(dp1
S'output'
p2
S"<type 'exceptions.SyntaxError'> invalid syntax (default/index.html, line 3)"
p3
sS'layer'
p4
S'C:\\GITWEBPY\\WEBPY\\web2py\\applications\\CRMwStyle\\views\\default/index.html'
p5
sS'code'
p6
S'response.write(\'<!DOCTYPE html PUBLIC "-//W3C//DTD XHTML 1.0 Strict//EN" "http://www.w3.org/TR/xhtml1/DTD/xhtml1-strict.dtd">\\r\\n\\r\\n<html>\\r\\n  <head>\\r\\n\\r\\n\\t  <link rel="stylesheet"  type=\\\'text/css\\\' href="\', escape=False)\nresponse.write(URL(\'static\',\'stupid\')\nresponse.write(\'" />\\r\\n\\t  \\r\\n    <link href="https://maxcdn.bootstrapcdn.com/font-awesome/4.5.0/css/font-awesome.min.css"\\r\\n          rel="stylesheet" >\\r\\n    <meta charset="utf-8">\\r\\n    <meta http-equiv="X-UA-Compatible" content="IE=edge,chrome=1">\\r\\n    <meta name="viewport" content="width=device-width, initial-scale=1.0" />\\r\\n    <meta name="apple-mobile-web-app-capable" content="yes" />\\r\\n    <style>\\r\\n      .menu.vertical li { width:100%; line-height:40px;}\\r\\n      .menu.vertical>li>a {color:white!important;}\\r\\n      table td, table tr {color: black!important;}\\r\\n    </style>\\r\\n  </head>\\r\\n  <body class="black">\\r\\n    <header class="white">\\r\\n      <div class="container">\\r\\n        <div class="fill padded middle">\\r\\n          <label class="ham fa fa-bars pulse" for="left-menu"></label>\\r\\n          <div class="burger accordion">\\r\\n            <input type="checkbox" id="left-menu">\\r\\n            <ul class="menu">\\r\\n              <li><a><i class="fa fa-envelope"></i></a></li>\\r\\n              <li><a><i class="fa fa-bell"></i></a></li>\\r\\n              <li><a><i class="fa fa-calendar"></i></a></li>\\r\\n            </ul>\\r\\n            <ul class="menu right">\\r\\n              <li><a>00:00:00</a><li>\\r\\n              <li><a><i class="fa fa-th"></i></a></li>\\r\\n              <li><a><i class="fa fa-group"></i> John Smith <i class="fa fa-caret-down"></i></a>\\r\\n                <ul>\\r\\n                  <li><a><i class="fa fa-user"></i> Profile</a></li>\\r\\n                  <li><a><i class="fa fa-envelope"></i> Inbox</a></li>\\r\\n                  <li><a><i class="fa fa-cog"></i> Settings</a></li>\\r\\n                  <li><a><i class="fa fa-power-off"></i> Logout</a></li>              \\r\\n                </ul>\\r\\n              </li>\\r\\n            </ul>\\r\\n          </div>\\r\\n        </div>\\r\\n      </div>\\r\\n    </header>\\r\\n    <main class="black">\\r\\n      <div class="container">\\r\\n        <div class="quarter">\\r\\n          <div class="padded">\\r\\n            <ul class="menu vertical">\\r\\n              <li>\\r\\n                <a href="index.html"><i class="fa fa-fw fa-dashboard"></i> Dashboard</a>\\r\\n              </li>\\r\\n              <li>\\r\\n                <a href="charts.html"><i class="fa fa-fw fa-bar-chart-o"></i> Charts</a>\\r\\n              </li>\\r\\n              <li>\\r\\n                <a href="tables.html"><i class="fa fa-fw fa-table"></i> Tables</a>\\r\\n              </li>\\r\\n              <li>\\r\\n                        <a href="forms.html"><i class="fa fa-fw fa-edit"></i> Forms</a>\\r\\n              </li>\\r\\n              <li>\\r\\n                <a href="bootstrap-elements.html"><i class="fa fa-fw fa-desktop"></i> Bootstrap Elements</a>\\r\\n              </li>\\r\\n              <li>\\r\\n                <a href="bootstrap-grid.html"><i class="fa fa-fw fa-wrench"></i> Bootstrap Grid</a>\\r\\n              </li>\\r\\n              <li>\\r\\n                <a><i class="fa fa-fw fa-arrows-v"></i> Dropdown <i class="fa fa-fw fa-caret-down"></i></a>\\r\\n                <ul>\\r\\n                  <li>\\r\\n                    <a href="#">Dropdown Item</a>\\r\\n                  </li>\\r\\n                  <li>\\r\\n                    <a href="#">Dropdown Item</a>\\r\\n                  </li>\\r\\n                </ul>\\r\\n              </li>\\r\\n              <li>\\r\\n                <a href="blank-page.html"><i class="fa fa-fw fa-file"></i> Blank Page</a>\\r\\n              </li>\\r\\n              <li>\\r\\n                <a href="index-rtl.html"><i class="fa fa-fw fa-dashboard"></i> RTL Dashboard</a>\\r\\n              </li>\\r\\n            </ul>\\r\\n          </div>\\r\\n        </div>\\r\\n        <div class="threequarters white">\\r\\n          <div class="padded">\\r\\n            <h3>Dashboard</h3>\\r\\n            <div class="padded silver rounded">\\r\\n              <i class="fa fa-dashboard"></i> Dashboard\\r\\n              made with <a href="../index.html">Stupid.css</a>.\\r\\n            </div>\\r\\n            <div class="padded spaced blue rounded">\\r\\n              <i class="fa fa-info"></i> Do you like this?\\r\\n            </div>\\r\\n         \\r\\n            <div class="container">\\r\\n              <div class="quarter spaced">\\r\\n                <div class="blue rounded padded">\\r\\n                  <i class="fa fa-comments fa-5x"></i>\\r\\n                  <div class="silver padded rounded">\\r\\n                    Details\\r\\n                </div>\\r\\n                </div>\\r\\n              </div>\\r\\n              <div class="quarter spaced">\\r\\n                <div class="green rounded padded">\\r\\n                  <i class="fa fa-tasks fa-5x"></i>\\r\\n                  <div class="silver padded rounded">\\r\\n                    Details\\r\\n                  </div>\\r\\n              </div>\\r\\n              </div>\\r\\n              <div class="quarter spaced">\\r\\n                <div class="yellow rounded padded">\\r\\n                  <i class="fa fa-shopping-cart fa-5x"></i>\\r\\n                  <div class="silver padded rounded">\\r\\n                    Details\\r\\n                  </div>\\r\\n                </div>\\r\\n              </div>\\r\\n              <div class="quarter spaced">\\r\\n                <div class="red rounded padded">\\r\\n                  <i class="fa fa-support fa-5x"></i>\\r\\n                  <div class="silver padded rounded">\\r\\n                    Details\\r\\n                  </div>\\r\\n                </div>\\r\\n              </div>\\r\\n            </div>\\r\\n            <div class="container">\\r\\n              <div class="half spaced">\\r\\n                <div class="silver">\\r\\n                  <div class="padded right">\\r\\n                    <label for="x1" class="fa fa-bars"></label>\\r\\n                  </div>\\r\\n                  <div class="accordion white">\\r\\n                    <input type="checkbox" checked id="x1"/>\\r\\n                    <div>\\r\\n                      <div class="padded rounded">\\r\\n                        <span data-peity=\\\'{"fill":["red","#eeeeee"],"innerRadius":10,"radius":40}\\\'>1/7</span>\\r\\n                        <span data-peity=\\\'{ "fill":["orange","#eeeeee"],"innerRadius":14,"radius":36}\\\'>2/7</span>\\r\\n                        <span data-peity=\\\'{ "fill": ["yellow", "#eeeeee"], "innerRadius": 16, "radius": 32 }\\\'>3/7</span>\\r\\n                        <span data-peity=\\\'{ "fill": ["green", "#eeeeee"],  "innerRadius": 18, "radius": 28 }\\\'>4/7</span>\\r\\n                        <span data-peity=\\\'{ "fill": ["blue", "#eeeeee"],   "innerRadius": 20, "radius": 24 }\\\'>5/7</span>\\r\\n                      </div>\\r\\n                    </div>\\r\\n                  </div>\\r\\n                </div>\\r\\n              </div>\\r\\n              <div class="half spaced">\\r\\n                <div class="silver">\\r\\n                  <div class="padded right">\\r\\n                    <label for="x2" class="fa fa-bars"></label>\\r\\n                  </div>\\r\\n                  <div class="accordion white">\\r\\n                    <input type="checkbox" checked id="x2"/>\\r\\n                    <div>\\r\\n                      <div class="padded rounded">\\r\\n                        <div>\\r\\n                          <span class="pie">1/5</span>\\r\\n                          <span class="pie">226/360</span>\\r\\n                          <span class="pie">0.52/1.561</span>\\r\\n                          <span class="pie">1,4</span>\\r\\n                          <span class="pie">226,134</span>\\r\\n                          <span class="pie">0.52,1.041</span>\\r\\n                          <span class="pie">1,2,3,2,2</span>\\r\\n                        </div>\\r\\n                        <div>\\r\\n                          <span class="donut">1/5</span>\\r\\n                          <span class="donut">226/360</span>\\r\\n                          <span class="donut">0.52/1.561</span>\\r\\n                          <span class="donut">1,4</span>\\r\\n                          <span class="donut">226,134</span>\\r\\n                          <span class="donut">0.52,1.041</span>\\r\\n                          <span class="donut">1,2,3,2,2</span>\\r\\n                        </div>\\r\\n                        <div>\\r\\n                          <span class="line">5,3,9,6,5,9,7,3,5,2</span>\\r\\n                          <span class="line">5,3,2,-1,-3,-2,2,3,5,2</span>\\r\\n                          <span class="line">0,-3,-6,-4,-5,-4,-7,-3,-5,-2</span>\\r\\n                          <span class="bar">5,3,9,6,5,9,7,3,5,2</span>\\r\\n                          <span class="bar">5,3,2,-1,-3,-2,2,3,5,2</span>\\r\\n                          <span class="bar">0,-3,-6,-4,-5,-4,-7,-3,-5,-2</span>\\r\\n                        </div>\\r\\n                        <div>\\r\\n                          <span class="bar-colours-1">5,3,9,6,5,9,7,3,5,2</span>\\r\\n                          <span class="bar-colours-2">5,3,2,-1,-3,-2,2,3,5,2</span>\\r\\n                          <span class="bar-colours-3">0,-3,-6,-4,-5,-4,-7,-3,-5,-2</span>\\r\\n                          <span class="pie-colours-1">4,7,6,5</span>\\r\\n                          <span class="pie-colours-2">5,3,9,6,5</span>\\r\\n                        </div>\\r\\n                      </div>\\r\\n                    </div>\\r\\n                  </div>\\r\\n                </div>\\r\\n              </div>\\r\\n            </div>\\r\\n            <div class="container">\\r\\n              <div class="half spaced">\\r\\n                <div class="silver">\\r\\n                  <div class="padded right">\\r\\n                    <label for="x3" class="fa fa-bars"></label>\\r\\n                  </div>\\r\\n                  <div class="accordion white">\\r\\n                    <input type="checkbox" checked id="x3"/>\\r\\n                    <div>\\r\\n                      <div class="padded rounded">\\r\\n                        <iframe src="https://www.youtube.com/embed/x1w8hKTJ2Co" frameborder="0" allowfullscreen style="width:100%"></iframe>\\r\\n                      </div>\\r\\n                    </div>\\r\\n                  </div>\\r\\n                </div>\\r\\n              </div>\\r\\n              <div class="half spaced">\\r\\n                <div class="silver">\\r\\n                  <div class="padded right">\\r\\n                    <label for="x4" class="fa fa-bars"></label>\\r\\n                  </div>\\r\\n                  <div class="accordion white">\\r\\n                    <input type="checkbox" checked id="x4"/>\\r\\n                    <div>\\r\\n                      <div class="padded rounded">\\r\\n                        <table class="fill">\\r\\n                          <thead>\\r\\n                            <tr>\\r\\n                              <th>\\r\\n                                Left\\r\\n                              </th>\\r\\n                              <th>\\r\\n                                Right\\r\\n                              </th>\\r\\n                          </thead>\\r\\n                          <tbody>\\r\\n                            <tr>\\r\\n                              <td>21325</td>\\r\\n                              <td>34523</td>\\r\\n                            </tr>\\r\\n                            <tr>\\r\\n                              <td>67257</td>\\r\\n                              <td>61953</td>\\r\\n                            </tr>\\r\\n                          </tbody>\\r\\n                        </table>\\r\\n                      </div>\\r\\n                    </div>\\r\\n                  </div>\\r\\n                </div>\\r\\n              </div>\\r\\n            </div>\\r\\n          </div>\\r\\n        </div>\\r\\n      </div>\\r\\n    </main>\\r\\n    <footer class="black">\\r\\n      <div class="container">\\r\\n        <div class="half">\\r\\n          <div class="padded">\\r\\n          </div>\\r\\n        </div>\\r\\n        <div class="half">\\r\\n          <div class="padded">\\r\\n          </div>\\r\\n        </div>        \\r\\n      </div>\\r\\n    </footer>\\r\\n    <div class="modal" id="app">\\r\\n      <div class="twothirds rounded white padded relative">\\r\\n        <a class="close" href="#modal-stupid-example">&times;</a>\\r\\n        <h2>Dashboard template from stupid.css</h2>\\r\\n        <p>\\r\\n          This template uses <a href="http://mdipierro.github.io/stupid.css/index.html">stupid.css</a>, a pure CSS library for style and effects.\\r\\n        </p>\\r\\n        <div class="high">\\r\\n          <a class="close right btn" href="#modal-stupid-example" >close</a>\\r\\n        </div>\\r\\n      </div>\\r\\n    </div>\\r\\n  </body>\\r\\n  <!-- code below is only for charts -->\\r\\n  <script src="https://code.jquery.com/jquery-1.12.1.min.js"></script>\\r\\n  <script src="dashboard/jquery.peity.js"></script>\\r\\n  <script>\\r\\n    $("span.pie").peity("pie");\\r\\n    $(\\\'.donut\\\').peity(\\\'donut\\\');\\r\\n    $(".line").peity("line");\\r\\n    $(".bar").peity("bar");\\r\\n    $("span[data-peity]").peity("donut")\\r\\n    $(".bar-colours-1").peity("bar", {\\r\\n      fill: ["red", "green", "blue"]\\r\\n    });    \\r\\n    $(".bar-colours-2").peity("bar", {\\r\\n      fill: function(value) {\\r\\n        return value > 0 ? "green" : "red"\\r\\n      }\\r\\n    });    \\r\\n    $(".bar-colours-3").peity("bar", {\\r\\n      fill: function(_, i, all) {\\r\\n        var g = parseInt((i / all.length) * 255)\\r\\n        return "rgb(255, " + g + ", 0)"\\r\\n      }\\r\\n    });\\r\\n    $(".pie-colours-1").peity("pie", {\\r\\n      fill: ["cyan", "magenta", "yellow", "black"]\\r\\n    });    \\r\\n    $(".pie-colours-2").peity("pie", {\\r\\n      fill: function(_, i, all) {\\r\\n        var g = parseInt((i / all.length) * 255)\\r\\n        return "rgb(255, " + g + ", 0)"\\r\\n      }\\r\\n    });\\r\\n  </script>\\r\\n</html>\\r\\n\\r\\n\\r\\n\\r\\n\', escape=False)'
p7
sS'snapshot'
p8
(dp9
S'exception'
p10
(dp11
S'__getslice__'
p12
S"<method-wrapper '__getslice__' of exceptions.SyntaxError object>"
p13
sS'text'
p14
S'\'response.write(\\\'" />\\\\r\\\\n\\\\t  \\\\r\\\\n    <link href="...ript>\\\\r\\\\n</html>\\\\r\\\\n\\\\r\\\\n\\\\r\\\\n\\\\r\\\\n\\\', escape=False)\\n\''
p15
sS'__str__'
p16
S"<method-wrapper '__str__' of exceptions.SyntaxError object>"
p17
sS'__reduce__'
p18
S'<built-in method __reduce__ of exceptions.SyntaxError object>'
p19
sS'__dict__'
p20
S'{}'
p21
sS'__sizeof__'
p22
S'<built-in method __sizeof__ of exceptions.SyntaxError object>'
p23
sS'__init__'
p24
S"<method-wrapper '__init__' of exceptions.SyntaxError object>"
p25
sS'__setattr__'
p26
S"<method-wrapper '__setattr__' of exceptions.SyntaxError object>"
p27
sS'__reduce_ex__'
p28
S'<built-in method __reduce_ex__ of exceptions.SyntaxError object>'
p29
sS'__new__'
p30
S'<built-in method __new__ of type object>'
p31
sS'__format__'
p32
S'<built-in method __format__ of exceptions.SyntaxError object>'
p33
sS'__class__'
p34
S"<type 'exceptions.SyntaxError'>"
p35
sS'filename'
p36
S"r'C:\\GITWEBPY\\WEBPY\\web2py\\applications\\CRMwStyle\\views\\default/index.html'"
p37
sS'lineno'
p38
S'3'
sS'msg'
p39
S"'invalid syntax'"
p40
sS'__doc__'
p41
S"'Invalid syntax.'"
p42
sS'__getitem__'
p43
S"<method-wrapper '__getitem__' of exceptions.SyntaxError object>"
p44
sS'__setstate__'
p45
S'<built-in method __setstate__ of exceptions.SyntaxError object>'
p46
sS'__getattribute__'
p47
S"<method-wrapper '__getattribute__' of exceptions.SyntaxError object>"
p48
sS'print_file_and_line'
p49
S'None'
p50
sS'args'
p51
S'(\'invalid syntax\', (r\'C:\\GITWEBPY\\WEBPY\\web2py\\applications\\CRMwStyle\\views\\default/index.html\', 3, 8, \'response.write(\\\'" />\\\\r\\\\n\\\\t  \\\\r\\\\n    <link href="...ript>\\\\r\\\\n</html>\\\\r\\\\n\\\\r\\\\n\\\\r\\\\n\\\\r\\\\n\\\', escape=False)\\n\'))'
p52
sS'__subclasshook__'
p53
S'<built-in method __subclasshook__ of type object>'
p54
sS'offset'
p55
S'8'
sS'__unicode__'
p56
S'<built-in method __unicode__ of exceptions.SyntaxError object>'
p57
sS'__delattr__'
p58
S"<method-wrapper '__delattr__' of exceptions.SyntaxError object>"
p59
sS'__repr__'
p60
S"<method-wrapper '__repr__' of exceptions.SyntaxError object>"
p61
sS'__hash__'
p62
S"<method-wrapper '__hash__' of exceptions.SyntaxError object>"
p63
ssS'evalue'
p64
S'invalid syntax (default/index.html, line 3)'
p65
sS'request'
p66
cgluon.html
XML_unpickle
p67
(S'sO^\x00\x00<div><table><tr><td style="font-weight:bold;vertical-align:top;">ajax</td><td style="vertical-align:top;">:</td><td><div>False</div></td></tr><tr><td style="font-weight:bold;vertical-align:top;">application</td><td style="vertical-align:top;">:</td><td><div>CRMwStyle</div></td></tr><tr><td style="font-weight:bold;vertical-align:top;">args</td><td style="vertical-align:top;">:</td><td><div><table></table></div></td></tr><tr><td style="font-weight:bold;vertical-align:top;">cid</td><td style="vertical-align:top;">:</td><td><div>None</div></td></tr><tr><td style="font-weight:bold;vertical-align:top;">client</td><td style="vertical-align:top;">:</td><td><div>127.0.0.1</div></td></tr><tr><td style="font-weight:bold;vertical-align:top;">controller</td><td style="vertical-align:top;">:</td><td><div>default</div></td></tr><tr><td style="font-weight:bold;vertical-align:top;">cookies</td><td style="vertical-align:top;">:</td><td><div><table><tr><td style="font-weight:bold;vertical-align:top;">session_id_admin</td><td style="vertical-align:top;">:</td><td><div>127.0.0.1-eaf0aadb-4a71-411b-88c1-6f44a032e2d4<table><tr><td style="font-weight:bold;vertical-align:top;">comment</td><td style="vertical-align:top;">:</td><td><div></div></td></tr><tr><td style="font-weight:bold;vertical-align:top;">domain</td><td style="vertical-align:top;">:</td><td><div></div></td></tr><tr><td style="font-weight:bold;vertical-align:top;">expires</td><td style="vertical-align:top;">:</td><td><div></div></td></tr><tr><td style="font-weight:bold;vertical-align:top;">httponly</td><td style="vertical-align:top;">:</td><td><div></div></td></tr><tr><td style="font-weight:bold;vertical-align:top;">max-age</td><td style="vertical-align:top;">:</td><td><div></div></td></tr><tr><td style="font-weight:bold;vertical-align:top;">path</td><td style="vertical-align:top;">:</td><td><div></div></td></tr><tr><td style="font-weight:bold;vertical-align:top;">secure</td><td style="vertical-align:top;">:</td><td><div></div></td></tr><tr><td style="font-weight:bold;vertical-align:top;">version</td><td style="vertical-align:top;">:</td><td><div></div></td></tr></table></div></td></tr><tr><td style="font-weight:bold;vertical-align:top;">session_id_crmwstyle</td><td style="vertical-align:top;">:</td><td><div>127.0.0.1-d3f5a0dc-a6ef-49ae-a8b5-a46a2009bbef<table><tr><td style="font-weight:bold;vertical-align:top;">comment</td><td style="vertical-align:top;">:</td><td><div></div></td></tr><tr><td style="font-weight:bold;vertical-align:top;">domain</td><td style="vertical-align:top;">:</td><td><div></div></td></tr><tr><td style="font-weight:bold;vertical-align:top;">expires</td><td style="vertical-align:top;">:</td><td><div></div></td></tr><tr><td style="font-weight:bold;vertical-align:top;">httponly</td><td style="vertical-align:top;">:</td><td><div></div></td></tr><tr><td style="font-weight:bold;vertical-align:top;">max-age</td><td style="vertical-align:top;">:</td><td><div></div></td></tr><tr><td style="font-weight:bold;vertical-align:top;">path</td><td style="vertical-align:top;">:</td><td><div></div></td></tr><tr><td style="font-weight:bold;vertical-align:top;">secure</td><td style="vertical-align:top;">:</td><td><div></div></td></tr><tr><td style="font-weight:bold;vertical-align:top;">version</td><td style="vertical-align:top;">:</td><td><div></div></td></tr></table></div></td></tr><tr><td style="font-weight:bold;vertical-align:top;">session_id_welcome</td><td style="vertical-align:top;">:</td><td><div>127.0.0.1-2cc084a5-c0d5-4a98-9139-d50d73df7c3e<table><tr><td style="font-weight:bold;vertical-align:top;">comment</td><td style="vertical-align:top;">:</td><td><div></div></td></tr><tr><td style="font-weight:bold;vertical-align:top;">domain</td><td style="vertical-align:top;">:</td><td><div></div></td></tr><tr><td style="font-weight:bold;vertical-align:top;">expires</td><td style="vertical-align:top;">:</td><td><div></div></td></tr><tr><td style="font-weight:bold;vertical-align:top;">httponly</td><td style="vertical-align:top;">:</td><td><div></div></td></tr><tr><td style="font-weight:bold;vertical-align:top;">max-age</td><td style="vertical-align:top;">:</td><td><div></div></td></tr><tr><td style="font-weight:bold;vertical-align:top;">path</td><td style="vertical-align:top;">:</td><td><div></div></td></tr><tr><td style="font-weight:bold;vertical-align:top;">secure</td><td style="vertical-align:top;">:</td><td><div></div></td></tr><tr><td style="font-weight:bold;vertical-align:top;">version</td><td style="vertical-align:top;">:</td><td><div></div></td></tr></table></div></td></tr></table></div></td></tr><tr><td style="font-weight:bold;vertical-align:top;">env</td><td style="vertical-align:top;">:</td><td><div><table><tr><td style="font-weight:bold;vertical-align:top;">HTTP_ACCEPT</td><td style="vertical-align:top;">:</td><td><div>text/html,application/xhtml+xml,application/xml;q=0.9,image/webp,*/*;q=0.8</div></td></tr><tr><td style="font-weight:bold;vertical-align:top;">HTTP_ACCEPT_ENCODING</td><td style="vertical-align:top;">:</td><td><div>gzip, deflate, sdch</div></td></tr><tr><td style="font-weight:bold;vertical-align:top;">HTTP_ACCEPT_LANGUAGE</td><td style="vertical-align:top;">:</td><td><div>en-US,en;q=0.8,de-DE;q=0.6,de;q=0.4</div></td></tr><tr><td style="font-weight:bold;vertical-align:top;">HTTP_CACHE_CONTROL</td><td style="vertical-align:top;">:</td><td><div>max-age=0</div></td></tr><tr><td style="font-weight:bold;vertical-align:top;">HTTP_CONNECTION</td><td style="vertical-align:top;">:</td><td><div>keep-alive</div></td></tr><tr><td style="font-weight:bold;vertical-align:top;">HTTP_COOKIE</td><td style="vertical-align:top;">:</td><td><div>session_id_welcome=127.0.0.1-2cc084a5-c0d5-4a98-9139-d50d73df7c3e; session_id_crmwstyle=127.0.0.1-d3f5a0dc-a6ef-49ae-a8b5-a46a2009bbef; session_id_admin=127.0.0.1-eaf0aadb-4a71-411b-88c1-6f44a032e2d4</div></td></tr><tr><td style="font-weight:bold;vertical-align:top;">HTTP_HOST</td><td style="vertical-align:top;">:</td><td><div>127.0.0.1:8000</div></td></tr><tr><td style="font-weight:bold;vertical-align:top;">HTTP_UPGRADE_INSECURE_REQUESTS</td><td style="vertical-align:top;">:</td><td><div>1</div></td></tr><tr><td style="font-weight:bold;vertical-align:top;">HTTP_USER_AGENT</td><td style="vertical-align:top;">:</td><td><div>Mozilla/5.0 (Windows NT 10.0; WOW64) AppleWebKit/537.36 (KHTML, like Gecko) Chrome/51.0.2704.84 Safari/537.36</div></td></tr><tr><td style="font-weight:bold;vertical-align:top;">PATH_INFO</td><td style="vertical-align:top;">:</td><td><div>/CRMwStyle/default/</div></td></tr><tr><td style="font-weight:bold;vertical-align:top;">QUERY_STRING</td><td style="vertical-align:top;">:</td><td><div></div></td></tr><tr><td style="font-weight:bold;vertical-align:top;">REMOTE_ADDR</td><td style="vertical-align:top;">:</td><td><div>127.0.0.1</div></td></tr><tr><td style="font-weight:bold;vertical-align:top;">REMOTE_PORT</td><td style="vertical-align:top;">:</td><td><div>57647</div></td></tr><tr><td style="font-weight:bold;vertical-align:top;">REQUEST_METHOD</td><td style="vertical-align:top;">:</td><td><div>GET</div></td></tr><tr><td style="font-weight:bold;vertical-align:top;">SCRIPT_NAME</td><td style="vertical-align:top;">:</td><td><div></div></td></tr><tr><td style="font-weight:bold;vertical-align:top;">SERVER_NAME</td><td style="vertical-align:top;">:</td><td><div>base03</div></td></tr><tr><td style="font-weight:bold;vertical-align:top;">SERVER_PORT</td><td style="vertical-align:top;">:</td><td><div>8000</div></td></tr><tr><td style="font-weight:bold;vertical-align:top;">SERVER_PROTOCOL</td><td style="vertical-align:top;">:</td><td><div>HTTP/1.1</div></td></tr><tr><td style="font-weight:bold;vertical-align:top;">SERVER_SOFTWARE</td><td style="vertical-align:top;">:</td><td><div>Rocket 1.2.6</div></td></tr><tr><td style="font-weight:bold;vertical-align:top;">app_folders</td><td style="vertical-align:top;">:</td><td><div>set([&#x27;C:\\\\GITWEBPY\\\\WEBPY\\\\web2py\\\\applications\\\\admin\\\\&#x27;, &#x27;C:\\\\GITWEBPY\\\\WEBPY\\\\web2py\\\\applications\\\\welcome\\\\&#x27;, &#x27;C:\\\\GITWEBPY\\\\WEBPY\\\\web2py\\\\applications\\\\CRMwStyle\\\\&#x27;])</div></td></tr><tr><td style="font-weight:bold;vertical-align:top;">applications_parent</td><td style="vertical-align:top;">:</td><td><div>C:\\GITWEBPY\\WEBPY\\web2py</div></td></tr><tr><td style="font-weight:bold;vertical-align:top;">cmd_args</td><td style="vertical-align:top;">:</td><td><div><table></table></div></td></tr><tr><td style="font-weight:bold;vertical-align:top;">cmd_options</td><td style="vertical-align:top;">:</td><td><div>&lt;Values at 0x2e85878: {&#x27;verbose&#x27;: False, &#x27;ip&#x27;: &#x27;127.0.0.1&#x27;, &#x27;debuglevel&#x27;: 30, &#x27;with_scheduler&#x27;: False, &#x27;ips&#x27;: [&#x27;2001:0:9d38:90d7:2cd8:72ed:2be8:1dfb&#x27;, &#x27;192.168.8.195&#x27;, &#x27;fe80::2cd8:72ed:2be8:1dfb%3&#x27;, &#x27;fe80::f42d:de1:215e:ed16%11&#x27;], &#x27;shutdown_timeout&#x27;: 5, &#x27;taskbar&#x27;: False, &#x27;with_coverage&#x27;: False, &#x27;scheduler_groups&#x27;: None, &#x27;port&#x27;: 8000, &#x27;maxthreads&#x27;: None, &#x27;softcron&#x27;: False, &#x27;server_name&#x27;: &#x27;base03&#x27;, &#x27;bpython&#x27;: False, &#x27;nogui&#x27;: False, &#x27;pid_filename&#x27;: &#x27;httpserver.pid&#x27;, &#x27;print_errors&#x27;: False, &#x27;extcron&#x27;: False, &#x27;runcron&#x27;: False, &#x27;run_system_tests&#x27;: False, &#x27;test&#x27;: None, &#x27;folder&#x27;: &#x27;C:\\\\GITWEBPY\\\\WEBPY\\\\web2py&#x27;, &#x27;config&#x27;: &#x27;&#x27;, &#x27;minthreads&#x27;: None, &#x27;shell&#x27;: None, &#x27;run&#x27;: &#x27;&#x27;, &#x27;log_filename&#x27;: &#x27;httpserver.log&#x27;, &#x27;profiler_dir&#x27;: None, &#x27;args&#x27;: [&#x27;&#x27;], &#x27;socket_timeout&#x27;: 5, &#x27;ssl_ca_certificate&#x27;: None, &#x27;scheduler&#x27;: None, &#x27;interfaces&#x27;: None, &#x27;ssl_private_key&#x27;: &#x27;&#x27;, &#x27;gae&#x27;: None, &#x27;password&#x27;: &#x27;&lt;ask&gt;&#x27;, &#x27;request_queue_size&#x27;: 5, &#x27;ssl_certificate&#x27;: &#x27;&#x27;, &#x27;cronjob&#x27;: False, &#x27;numthreads&#x27;: None, &#x27;quiet&#x27;: False, &#x27;import_models&#x27;: False, &#x27;timeout&#x27;: 10, &#x27;plain&#x27;: False, &#x27;nobanner&#x27;: False}&gt;</div></td></tr><tr><td style="font-weight:bold;vertical-align:top;">db_sessions</td><td style="vertical-align:top;">:</td><td><div>set([])</div></td></tr><tr><td style="font-weight:bold;vertical-align:top;">debugging</td><td style="vertical-align:top;">:</td><td><div>False</div></td></tr><tr><td style="font-weight:bold;vertical-align:top;">gluon_parent</td><td style="vertical-align:top;">:</td><td><div>C:\\GITWEBPY\\WEBPY\\web2py</div></td></tr><tr><td style="font-weight:bold;vertical-align:top;">http_accept</td><td style="vertical-align:top;">:</td><td><div>text/html,application/xhtml+xml,application/xml;q=0.9,image/webp,*/*;q=0.8</div></td></tr><tr><td style="font-weight:bold;vertical-align:top;">http_accept_encoding</td><td style="vertical-align:top;">:</td><td><div>gzip, deflate, sdch</div></td></tr><tr><td style="font-weight:bold;vertical-align:top;">http_accept_language</td><td style="vertical-align:top;">:</td><td><div>en-US,en;q=0.8,de-DE;q=0.6,de;q=0.4</div></td></tr><tr><td style="font-weight:bold;vertical-align:top;">http_cache_control</td><td style="vertical-align:top;">:</td><td><div>max-age=0</div></td></tr><tr><td style="font-weight:bold;vertical-align:top;">http_connection</td><td style="vertical-align:top;">:</td><td><div>keep-alive</div></td></tr><tr><td style="font-weight:bold;vertical-align:top;">http_cookie</td><td style="vertical-align:top;">:</td><td><div>session_id_welcome=127.0.0.1-2cc084a5-c0d5-4a98-9139-d50d73df7c3e; session_id_crmwstyle=127.0.0.1-d3f5a0dc-a6ef-49ae-a8b5-a46a2009bbef; session_id_admin=127.0.0.1-eaf0aadb-4a71-411b-88c1-6f44a032e2d4</div></td></tr><tr><td style="font-weight:bold;vertical-align:top;">http_host</td><td style="vertical-align:top;">:</td><td><div>127.0.0.1:8000</div></td></tr><tr><td style="font-weight:bold;vertical-align:top;">http_upgrade_insecure_requests</td><td style="vertical-align:top;">:</td><td><div>1</div></td></tr><tr><td style="font-weight:bold;vertical-align:top;">http_user_agent</td><td style="vertical-align:top;">:</td><td><div>Mozilla/5.0 (Windows NT 10.0; WOW64) AppleWebKit/537.36 (KHTML, like Gecko) Chrome/51.0.2704.84 Safari/537.36</div></td></tr><tr><td style="font-weight:bold;vertical-align:top;">is_jython</td><td style="vertical-align:top;">:</td><td><div>False</div></td></tr><tr><td style="font-weight:bold;vertical-align:top;">is_pypy</td><td style="vertical-align:top;">:</td><td><div>False</div></td></tr><tr><td style="font-weight:bold;vertical-align:top;">is_source</td><td style="vertical-align:top;">:</td><td><div>False</div></td></tr><tr><td style="font-weight:bold;vertical-align:top;">local_hosts</td><td style="vertical-align:top;">:</td><td><div><table><tr><td><div>2001:0:9d38:90d7:2cd8:72ed:2be8:1dfb</div></td></tr><tr><td><div>fe80::f42d:de1:215e:ed16%11</div></td></tr><tr><td><div>base03</div></td></tr><tr><td><div>::ffff:127.0.0.1</div></td></tr><tr><td><div>::1</div></td></tr><tr><td><div>192.168.8.195</div></td></tr><tr><td><div>fe80::2cd8:72ed:2be8:1dfb%3</div></td></tr><tr><td><div>127.0.0.1</div></td></tr></table></div></td></tr><tr><td style="font-weight:bold;vertical-align:top;">path_info</td><td style="vertical-align:top;">:</td><td><div>/CRMwStyle/default/</div></td></tr><tr><td style="font-weight:bold;vertical-align:top;">query_string</td><td style="vertical-align:top;">:</td><td><div></div></td></tr><tr><td style="font-weight:bold;vertical-align:top;">remote_addr</td><td style="vertical-align:top;">:</td><td><div>127.0.0.1</div></td></tr><tr><td style="font-weight:bold;vertical-align:top;">remote_port</td><td style="vertical-align:top;">:</td><td><div>57647</div></td></tr><tr><td style="font-weight:bold;vertical-align:top;">request_method</td><td style="vertical-align:top;">:</td><td><div>GET</div></td></tr><tr><td style="font-weight:bold;vertical-align:top;">request_uri</td><td style="vertical-align:top;">:</td><td><div>/CRMwStyle/default/</div></td></tr><tr><td style="font-weight:bold;vertical-align:top;">script_name</td><td style="vertical-align:top;">:</td><td><div></div></td></tr><tr><td style="font-weight:bold;vertical-align:top;">server_name</td><td style="vertical-align:top;">:</td><td><div>base03</div></td></tr><tr><td style="font-weight:bold;vertical-align:top;">server_port</td><td style="vertical-align:top;">:</td><td><div>8000</div></td></tr><tr><td style="font-weight:bold;vertical-align:top;">server_protocol</td><td style="vertical-align:top;">:</td><td><div>HTTP/1.1</div></td></tr><tr><td style="font-weight:bold;vertical-align:top;">server_software</td><td style="vertical-align:top;">:</td><td><div>Rocket 1.2.6</div></td></tr><tr><td style="font-weight:bold;vertical-align:top;">web2py_path</td><td style="vertical-align:top;">:</td><td><div>C:\\GITWEBPY\\WEBPY\\web2py</div></td></tr><tr><td style="font-weight:bold;vertical-align:top;">web2py_version</td><td style="vertical-align:top;">:</td><td><div>2.13.4-stable+timestamp.2015.12.26.04.59.39</div></td></tr><tr><td style="font-weight:bold;vertical-align:top;">wsgi.errors</td><td style="vertical-align:top;">:</td><td><div>&lt;open file &#x27;&lt;stderr&gt;&#x27;, mode &#x27;w&#x27; at 0x0217D0D0&gt;</div></td></tr><tr><td style="font-weight:bold;vertical-align:top;">wsgi.file_wrapper</td><td style="vertical-align:top;">:</td><td><div>&lt;class wsgiref.util.FileWrapper at 0x032151B8&gt;</div></td></tr><tr><td style="font-weight:bold;vertical-align:top;">wsgi.input</td><td style="vertical-align:top;">:</td><td><div>&lt;socket._fileobject object at 0x03EB7270&gt;</div></td></tr><tr><td style="font-weight:bold;vertical-align:top;">wsgi.multiprocess</td><td style="vertical-align:top;">:</td><td><div>False</div></td></tr><tr><td style="font-weight:bold;vertical-align:top;">wsgi.multithread</td><td style="vertical-align:top;">:</td><td><div>True</div></td></tr><tr><td style="font-weight:bold;vertical-align:top;">wsgi.run_once</td><td style="vertical-align:top;">:</td><td><div>False</div></td></tr><tr><td style="font-weight:bold;vertical-align:top;">wsgi.url_scheme</td><td style="vertical-align:top;">:</td><td><div>http</div></td></tr><tr><td style="font-weight:bold;vertical-align:top;">wsgi.version</td><td style="vertical-align:top;">:</td><td><div><table><tr><td><div>1</div></td></tr><tr><td><div>0</div></td></tr></table></div></td></tr><tr><td style="font-weight:bold;vertical-align:top;">wsgi_errors</td><td style="vertical-align:top;">:</td><td><div>&lt;open file &#x27;&lt;stderr&gt;&#x27;, mode &#x27;w&#x27; at 0x0217D0D0&gt;</div></td></tr><tr><td style="font-weight:bold;vertical-align:top;">wsgi_file_wrapper</td><td style="vertical-align:top;">:</td><td><div>&lt;class wsgiref.util.FileWrapper at 0x032151B8&gt;</div></td></tr><tr><td style="font-weight:bold;vertical-align:top;">wsgi_input</td><td style="vertical-align:top;">:</td><td><div>&lt;socket._fileobject object at 0x03EB7270&gt;</div></td></tr><tr><td style="font-weight:bold;vertical-align:top;">wsgi_multiprocess</td><td style="vertical-align:top;">:</td><td><div>False</div></td></tr><tr><td style="font-weight:bold;vertical-align:top;">wsgi_multithread</td><td style="vertical-align:top;">:</td><td><div>True</div></td></tr><tr><td style="font-weight:bold;vertical-align:top;">wsgi_run_once</td><td style="vertical-align:top;">:</td><td><div>False</div></td></tr><tr><td style="font-weight:bold;vertical-align:top;">wsgi_url_scheme</td><td style="vertical-align:top;">:</td><td><div>http</div></td></tr><tr><td style="font-weight:bold;vertical-align:top;">wsgi_version</td><td style="vertical-align:top;">:</td><td><div><table><tr><td><div>1</div></td></tr><tr><td><div>0</div></td></tr></table></div></td></tr></table></div></td></tr><tr><td style="font-weight:bold;vertical-align:top;">extension</td><td style="vertical-align:top;">:</td><td><div>html</div></td></tr><tr><td style="font-weight:bold;vertical-align:top;">folder</td><td style="vertical-align:top;">:</td><td><div>C:\\GITWEBPY\\WEBPY\\web2py\\applications\\CRMwStyle\\</div></td></tr><tr><td style="font-weight:bold;vertical-align:top;">function</td><td style="vertical-align:top;">:</td><td><div>index</div></td></tr><tr><td style="font-weight:bold;vertical-align:top;">global_settings</td><td style="vertical-align:top;">:</td><td><div><table><tr><td style="font-weight:bold;vertical-align:top;">app_folders</td><td style="vertical-align:top;">:</td><td><div>set([&#x27;C:\\\\GITWEBPY\\\\WEBPY\\\\web2py\\\\applications\\\\admin\\\\&#x27;, &#x27;C:\\\\GITWEBPY\\\\WEBPY\\\\web2py\\\\applications\\\\welcome\\\\&#x27;, &#x27;C:\\\\GITWEBPY\\\\WEBPY\\\\web2py\\\\applications\\\\CRMwStyle\\\\&#x27;])</div></td></tr><tr><td style="font-weight:bold;vertical-align:top;">applications_parent</td><td style="vertical-align:top;">:</td><td><div>C:\\GITWEBPY\\WEBPY\\web2py</div></td></tr><tr><td style="font-weight:bold;vertical-align:top;">cmd_args</td><td style="vertical-align:top;">:</td><td><div><table></table></div></td></tr><tr><td style="font-weight:bold;vertical-align:top;">cmd_options</td><td style="vertical-align:top;">:</td><td><div>&lt;Values at 0x2e85878: {&#x27;verbose&#x27;: False, &#x27;ip&#x27;: &#x27;127.0.0.1&#x27;, &#x27;debuglevel&#x27;: 30, &#x27;with_scheduler&#x27;: False, &#x27;ips&#x27;: [&#x27;2001:0:9d38:90d7:2cd8:72ed:2be8:1dfb&#x27;, &#x27;192.168.8.195&#x27;, &#x27;fe80::2cd8:72ed:2be8:1dfb%3&#x27;, &#x27;fe80::f42d:de1:215e:ed16%11&#x27;], &#x27;shutdown_timeout&#x27;: 5, &#x27;taskbar&#x27;: False, &#x27;with_coverage&#x27;: False, &#x27;scheduler_groups&#x27;: None, &#x27;port&#x27;: 8000, &#x27;maxthreads&#x27;: None, &#x27;softcron&#x27;: False, &#x27;server_name&#x27;: &#x27;base03&#x27;, &#x27;bpython&#x27;: False, &#x27;nogui&#x27;: False, &#x27;pid_filename&#x27;: &#x27;httpserver.pid&#x27;, &#x27;print_errors&#x27;: False, &#x27;extcron&#x27;: False, &#x27;runcron&#x27;: False, &#x27;run_system_tests&#x27;: False, &#x27;test&#x27;: None, &#x27;folder&#x27;: &#x27;C:\\\\GITWEBPY\\\\WEBPY\\\\web2py&#x27;, &#x27;config&#x27;: &#x27;&#x27;, &#x27;minthreads&#x27;: None, &#x27;shell&#x27;: None, &#x27;run&#x27;: &#x27;&#x27;, &#x27;log_filename&#x27;: &#x27;httpserver.log&#x27;, &#x27;profiler_dir&#x27;: None, &#x27;args&#x27;: [&#x27;&#x27;], &#x27;socket_timeout&#x27;: 5, &#x27;ssl_ca_certificate&#x27;: None, &#x27;scheduler&#x27;: None, &#x27;interfaces&#x27;: None, &#x27;ssl_private_key&#x27;: &#x27;&#x27;, &#x27;gae&#x27;: None, &#x27;password&#x27;: &#x27;&lt;ask&gt;&#x27;, &#x27;request_queue_size&#x27;: 5, &#x27;ssl_certificate&#x27;: &#x27;&#x27;, &#x27;cronjob&#x27;: False, &#x27;numthreads&#x27;: None, &#x27;quiet&#x27;: False, &#x27;import_models&#x27;: False, &#x27;timeout&#x27;: 10, &#x27;plain&#x27;: False, &#x27;nobanner&#x27;: False}&gt;</div></td></tr><tr><td style="font-weight:bold;vertical-align:top;">db_sessions</td><td style="vertical-align:top;">:</td><td><div>set([])</div></td></tr><tr><td style="font-weight:bold;vertical-align:top;">debugging</td><td style="vertical-align:top;">:</td><td><div>False</div></td></tr><tr><td style="font-weight:bold;vertical-align:top;">gluon_parent</td><td style="vertical-align:top;">:</td><td><div>C:\\GITWEBPY\\WEBPY\\web2py</div></td></tr><tr><td style="font-weight:bold;vertical-align:top;">is_jython</td><td style="vertical-align:top;">:</td><td><div>False</div></td></tr><tr><td style="font-weight:bold;vertical-align:top;">is_pypy</td><td style="vertical-align:top;">:</td><td><div>False</div></td></tr><tr><td style="font-weight:bold;vertical-align:top;">is_source</td><td style="vertical-align:top;">:</td><td><div>False</div></td></tr><tr><td style="font-weight:bold;vertical-align:top;">local_hosts</td><td style="vertical-align:top;">:</td><td><div><table><tr><td><div>2001:0:9d38:90d7:2cd8:72ed:2be8:1dfb</div></td></tr><tr><td><div>fe80::f42d:de1:215e:ed16%11</div></td></tr><tr><td><div>base03</div></td></tr><tr><td><div>::ffff:127.0.0.1</div></td></tr><tr><td><div>::1</div></td></tr><tr><td><div>192.168.8.195</div></td></tr><tr><td><div>fe80::2cd8:72ed:2be8:1dfb%3</div></td></tr><tr><td><div>127.0.0.1</div></td></tr></table></div></td></tr><tr><td style="font-weight:bold;vertical-align:top;">web2py_version</td><td style="vertical-align:top;">:</td><td><div>2.13.4-stable+timestamp.2015.12.26.04.59.39</div></td></tr></table></div></td></tr><tr><td style="font-weight:bold;vertical-align:top;">is_https</td><td style="vertical-align:top;">:</td><td><div>False</div></td></tr><tr><td style="font-weight:bold;vertical-align:top;">is_local</td><td style="vertical-align:top;">:</td><td><div>True</div></td></tr><tr><td style="font-weight:bold;vertical-align:top;">is_restful</td><td style="vertical-align:top;">:</td><td><div>False</div></td></tr><tr><td style="font-weight:bold;vertical-align:top;">is_scheduler</td><td style="vertical-align:top;">:</td><td><div>False</div></td></tr><tr><td style="font-weight:bold;vertical-align:top;">is_shell</td><td style="vertical-align:top;">:</td><td><div>False</div></td></tr><tr><td style="font-weight:bold;vertical-align:top;">now</td><td style="vertical-align:top;">:</td><td><div>datetime.datetime(2016, 6, 13, 15, 25, 4, 26000)</div></td></tr><tr><td style="font-weight:bold;vertical-align:top;">raw_args</td><td style="vertical-align:top;">:</td><td><div></div></td></tr><tr><td style="font-weight:bold;vertical-align:top;">raw_extension</td><td style="vertical-align:top;">:</td><td><div>None</div></td></tr><tr><td style="font-weight:bold;vertical-align:top;">url</td><td style="vertical-align:top;">:</td><td><div>/CRMwStyle/default/</div></td></tr><tr><td style="font-weight:bold;vertical-align:top;">utcnow</td><td style="vertical-align:top;">:</td><td><div>datetime.datetime(2016, 6, 13, 13, 25, 4, 26000)</div></td></tr><tr><td style="font-weight:bold;vertical-align:top;">wsgi</td><td style="vertical-align:top;">:</td><td><div>&lt;gluon.main.LazyWSGI object at 0x055A6910&gt;</div></td></tr></table></div>'
tRp68
sS'frames'
p69
(lp70
(dp71
S'file'
p72
S'C:\\GITWEBPY\\WEBPY\\web2py\\gluon\\restricted.py'
p73
sS'dump'
p74
(dp75
S'code'
p76
S'\'response.write(\\\'<!DOCTYPE html PUBLIC "-//W3C//D...cript>\\\\r\\\\n</html>\\\\r\\\\n\\\\r\\\\n\\\\r\\\\n\\\\r\\\\n\\\', escape=False)\''
p77
sS'layer'
p78
S"r'C:\\GITWEBPY\\WEBPY\\web2py\\applications\\CRMwStyle\\views\\default/index.html'"
p79
sS'global compile2'
p80
S'<function compile2>'
p81
sS'ccode'
p82
S'undefined'
p83
ssS'lnum'
p84
I226
sS'lines'
p85
(dp86
I224
S'            ccode = code'
p87
sI225
S'        else:'
p88
sI226
S'            ccode = compile2(code, layer)'
p89
sI227
S'        exec ccode in environment'
p90
sI228
S'    except HTTP:'
p91
sI229
S'        raise'
p92
sI230
S'    except RestrictedError:'
p93
sI221
S"    environment['__name__'] = '__restricted__'"
p94
sI222
S'    try:'
p95
sI223
S'        if isinstance(code, types.CodeType):'
p96
ssS'call'
p97
S'(code=\'response.write(\\\'<!DOCTYPE html PUBLIC "-//W3C//D...cript>\\\\r\\\\n</html>\\\\r\\\\n\\\\r\\\\n\\\\r\\\\n\\\\r\\\\n\\\', escape=False)\', environment={\'A\': <class \'gluon.html.A\'>, \'ANY_OF\': <class \'gluon.validators.ANY_OF\'>, \'ASSIGNJS\': <function ASSIGNJS>, \'Auth\': <class \'gluon.tools.Auth\'>, \'B\': <class \'gluon.html.B\'>, \'BEAUTIFY\': <class \'gluon.html.BEAUTIFY\'>, \'BODY\': <class \'gluon.html.BODY\'>, \'BR\': <class \'gluon.html.BR\'>, \'BUTTON\': <class \'gluon.html.BUTTON\'>, \'CAT\': <class \'gluon.html.CAT\'>, ...}, layer=r\'C:\\GITWEBPY\\WEBPY\\web2py\\applications\\CRMwStyle\\views\\default/index.html\')'
p98
sS'func'
p99
S'restricted'
p100
sa(dp101
g72
S'C:\\GITWEBPY\\WEBPY\\web2py\\gluon\\restricted.py'
p102
sg74
(dp103
S'builtincompile'
p104
S'<built-in function compile>'
p105
sS'code'
p106
S'\'response.write(\\\'<!DOCTYPE html PUBLIC "-//W3C//D...cript>\\\\r\\\\n</html>\\\\r\\\\n\\\\r\\\\n\\\\r\\\\n\\\\r\\\\n\\\', escape=False)\''
p107
sS'code.rstrip'
p108
S'<built-in method rstrip of str object>'
p109
sS').replace'
p110
g83
sS'layer'
p111
S"r'C:\\GITWEBPY\\WEBPY\\web2py\\applications\\CRMwStyle\\views\\default/index.html'"
p112
ssg84
I209
sg85
(dp113
I204
S'def compile2(code, layer):'
p114
sI205
S'    """'
p115
sI206
S"    The ``+'\\\\n'`` is necessary else compile fails when code ends in a comment."
p116
sI207
S'    """'
p117
sI208
S''
sI209
S"    return compile(code.rstrip().replace('\\r\\n', '\\n') + '\\n', layer, 'exec')"
p118
sI210
S''
sI211
S''
sI212
S"def restricted(code, environment=None, layer='Unknown'):"
p119
sI213
S'    """'
p120
ssg97
S'(code=\'response.write(\\\'<!DOCTYPE html PUBLIC "-//W3C//D...cript>\\\\r\\\\n</html>\\\\r\\\\n\\\\r\\\\n\\\\r\\\\n\\\\r\\\\n\\\', escape=False)\', layer=r\'C:\\GITWEBPY\\WEBPY\\web2py\\applications\\CRMwStyle\\views\\default/index.html\')'
p121
sg99
S'compile2'
p122
sasS'pyver'
p123
S'Python 2.7.9: C:\\GITWEBPY\\WEBPY\\web2py\\web2py.exe (prefix: C:\\Python27)'
p124
sS'session'
p125
g67
(S'sH\x01\x00\x00<div><table><tr><td style="font-weight:bold;vertical-align:top;">recent_companies</td><td style="vertical-align:top;">:</td><td><div><table></table></div></td></tr><tr><td style="font-weight:bold;vertical-align:top;">recent_persons</td><td style="vertical-align:top;">:</td><td><div><table></table></div></td></tr></table></div>'
tRp126
sS'etype'
p127
S"<type 'exceptions.SyntaxError'>"
p128
sS'date'
p129
S'Mon Jun 13 15:25:04 2016'
p130
sS'response'
p131
g67
(S's\x87$\x00\x00<div><table><tr><td style="font-weight:bold;vertical-align:top;">body</td><td style="vertical-align:top;">:</td><td><div>&lt;cStringIO.StringO object at 0x03F2AB20&gt;</div></td></tr><tr><td style="font-weight:bold;vertical-align:top;">cookies</td><td style="vertical-align:top;">:</td><td><div><table><tr><td style="font-weight:bold;vertical-align:top;">session_id_crmwstyle</td><td style="vertical-align:top;">:</td><td><div>127.0.0.1-d3f5a0dc-a6ef-49ae-a8b5-a46a2009bbef<table><tr><td style="font-weight:bold;vertical-align:top;">comment</td><td style="vertical-align:top;">:</td><td><div></div></td></tr><tr><td style="font-weight:bold;vertical-align:top;">domain</td><td style="vertical-align:top;">:</td><td><div></div></td></tr><tr><td style="font-weight:bold;vertical-align:top;">expires</td><td style="vertical-align:top;">:</td><td><div></div></td></tr><tr><td style="font-weight:bold;vertical-align:top;">httponly</td><td style="vertical-align:top;">:</td><td><div></div></td></tr><tr><td style="font-weight:bold;vertical-align:top;">max-age</td><td style="vertical-align:top;">:</td><td><div></div></td></tr><tr><td style="font-weight:bold;vertical-align:top;">path</td><td style="vertical-align:top;">:</td><td><div>/</div></td></tr><tr><td style="font-weight:bold;vertical-align:top;">secure</td><td style="vertical-align:top;">:</td><td><div></div></td></tr><tr><td style="font-weight:bold;vertical-align:top;">version</td><td style="vertical-align:top;">:</td><td><div></div></td></tr></table></div></td></tr></table></div></td></tr><tr><td style="font-weight:bold;vertical-align:top;">delimiters</td><td style="vertical-align:top;">:</td><td><div><table><tr><td><div>{{</div></td></tr><tr><td><div>}}</div></td></tr></table></div></td></tr><tr><td style="font-weight:bold;vertical-align:top;">files</td><td style="vertical-align:top;">:</td><td><div><table></table></div></td></tr><tr><td style="font-weight:bold;vertical-align:top;">flash</td><td style="vertical-align:top;">:</td><td><div></div></td></tr><tr><td style="font-weight:bold;vertical-align:top;">form_label_separator</td><td style="vertical-align:top;">:</td><td><div>: </div></td></tr><tr><td style="font-weight:bold;vertical-align:top;">formstyle</td><td style="vertical-align:top;">:</td><td><div>table3cols</div></td></tr><tr><td style="font-weight:bold;vertical-align:top;">generic_patterns</td><td style="vertical-align:top;">:</td><td><div><table><tr><td><div>*</div></td></tr></table></div></td></tr><tr><td style="font-weight:bold;vertical-align:top;">headers</td><td style="vertical-align:top;">:</td><td><div><table><tr><td style="font-weight:bold;vertical-align:top;">X-Powered-By</td><td style="vertical-align:top;">:</td><td><div>web2py</div></td></tr></table></div></td></tr><tr><td style="font-weight:bold;vertical-align:top;">menu</td><td style="vertical-align:top;">:</td><td><div><table><tr><td><div><table><tr><td><div>Companies</div></td></tr><tr><td><div>False</div></td></tr><tr><td><div>/CRMwStyle/default/list_companies</div></td></tr></table></div></td></tr><tr><td><div><table><tr><td><div>Contacts</div></td></tr><tr><td><div>False</div></td></tr><tr><td><div>/CRMwStyle/default/list_persons</div></td></tr></table></div></td></tr><tr><td><div><table><tr><td><div>Tasks</div></td></tr><tr><td><div>False</div></td></tr><tr><td><div>/CRMwStyle/default/list_tasks</div></td></tr></table></div></td></tr></table></div></td></tr><tr><td style="font-weight:bold;vertical-align:top;">menu_auth</td><td style="vertical-align:top;">:</td><td><div><table><tr><td><div><table><tr><td><div>Login</div></td></tr><tr><td><div>False</div></td></tr><tr><td><div>/CRMwStyle/default/user/login</div></td></tr><tr><td><div><table><tr><td><div><table><tr><td><div>Register</div></td></tr><tr><td><div>False</div></td></tr><tr><td><div>/CRMwStyle/default/user/register</div></td></tr></table></div></td></tr><tr><td><div><table><tr><td><div>Lost Password</div></td></tr><tr><td><div>False</div></td></tr><tr><td><div>/CRMwStyle/default/user/retrieve_password</div></td></tr></table></div></td></tr></table></div></td></tr></table></div></td></tr></table></div></td></tr><tr><td style="font-weight:bold;vertical-align:top;">menu_edit</td><td style="vertical-align:top;">:</td><td><div><table><tr><td><div><table><tr><td><div>Edit</div></td></tr><tr><td><div>False</div></td></tr><tr><td><div>/admin/default/design/CRMwStyle</div></td></tr><tr><td><div><table><tr><td><div><table><tr><td><div>Controller</div></td></tr><tr><td><div>False</div></td></tr><tr><td><div>/admin/default/edit/CRMwStyle/controllers/default.py</div></td></tr></table></div></td></tr><tr><td><div><table><tr><td><div>View</div></td></tr><tr><td><div>False</div></td></tr><tr><td><div>/admin/default/edit/CRMwStyle/views/default/index.html</div></td></tr></table></div></td></tr><tr><td><div><table><tr><td><div>Layout</div></td></tr><tr><td><div>False</div></td></tr><tr><td><div>/admin/default/edit/CRMwStyle/views/layout.html</div></td></tr></table></div></td></tr><tr><td><div><table><tr><td><div>Stylesheet</div></td></tr><tr><td><div>False</div></td></tr><tr><td><div>/admin/default/edit/CRMwStyle/static/base.css</div></td></tr></table></div></td></tr><tr><td><div><table><tr><td><div>DB Model</div></td></tr><tr><td><div>False</div></td></tr><tr><td><div>/admin/default/edit/CRMwStyle/models/db.py</div></td></tr></table></div></td></tr><tr><td><div><table><tr><td><div>Menu Model</div></td></tr><tr><td><div>False</div></td></tr><tr><td><div>/admin/default/edit/CRMwStyle/models/menu.py</div></td></tr></table></div></td></tr><tr><td><div><table><tr><td><div>Database</div></td></tr><tr><td><div>False</div></td></tr><tr><td><div>/CRMwStyle/appadmin/index</div></td></tr></table></div></td></tr></table></div></td></tr></table></div></td></tr></table></div></td></tr><tr><td style="font-weight:bold;vertical-align:top;">meta</td><td style="vertical-align:top;">:</td><td><div><table></table></div></td></tr><tr><td style="font-weight:bold;vertical-align:top;">models_to_run</td><td style="vertical-align:top;">:</td><td><div><table><tr><td><div>^\\w+\\.py$</div></td></tr><tr><td><div>^default/\\w+\\.py$</div></td></tr><tr><td><div>^default/index/\\w+\\.py$</div></td></tr></table></div></td></tr><tr><td style="font-weight:bold;vertical-align:top;">postprocessing</td><td style="vertical-align:top;">:</td><td><div><table></table></div></td></tr><tr><td style="font-weight:bold;vertical-align:top;">session_client</td><td style="vertical-align:top;">:</td><td><div>127.0.0.1</div></td></tr><tr><td style="font-weight:bold;vertical-align:top;">session_cookie_compression_level</td><td style="vertical-align:top;">:</td><td><div>None</div></td></tr><tr><td style="font-weight:bold;vertical-align:top;">session_cookie_expires</td><td style="vertical-align:top;">:</td><td><div>None</div></td></tr><tr><td style="font-weight:bold;vertical-align:top;">session_cookie_key</td><td style="vertical-align:top;">:</td><td><div>None</div></td></tr><tr><td style="font-weight:bold;vertical-align:top;">session_data_name</td><td style="vertical-align:top;">:</td><td><div>session_data_crmwstyle</div></td></tr><tr><td style="font-weight:bold;vertical-align:top;">session_file</td><td style="vertical-align:top;">:</td><td><div>&lt;open file &#x27;C:\\\\GITWEBPY\\\\WEBPY\\\\web2py\\\\applications\\\\CRMwStyle\\\\sessions\\\\029\\\\1f3\\\\127.0.0.1-d3f5a0dc-a6ef-49ae-a8b5-a46a2009bbef&#x27;, mode &#x27;rb+&#x27; at 0x0403F9C0&gt;</div></td></tr><tr><td style="font-weight:bold;vertical-align:top;">session_filename</td><td style="vertical-align:top;">:</td><td><div>C:\\GITWEBPY\\WEBPY\\web2py\\applications\\CRMwStyle\\sessions\\127.0.0.1-d3f5a0dc-a6ef-49ae-a8b5-a46a2009bbef</div></td></tr><tr><td style="font-weight:bold;vertical-align:top;">session_hash</td><td style="vertical-align:top;">:</td><td><div>ae83bc65c42789300be6ff8ce0b338d3</div></td></tr><tr><td style="font-weight:bold;vertical-align:top;">session_id</td><td style="vertical-align:top;">:</td><td><div>127.0.0.1-d3f5a0dc-a6ef-49ae-a8b5-a46a2009bbef</div></td></tr><tr><td style="font-weight:bold;vertical-align:top;">session_id_name</td><td style="vertical-align:top;">:</td><td><div>session_id_crmwstyle</div></td></tr><tr><td style="font-weight:bold;vertical-align:top;">session_locked</td><td style="vertical-align:top;">:</td><td><div>True</div></td></tr><tr><td style="font-weight:bold;vertical-align:top;">session_masterapp</td><td style="vertical-align:top;">:</td><td><div>CRMwStyle</div></td></tr><tr><td style="font-weight:bold;vertical-align:top;">session_new</td><td style="vertical-align:top;">:</td><td><div>False</div></td></tr><tr><td style="font-weight:bold;vertical-align:top;">session_storage_type</td><td style="vertical-align:top;">:</td><td><div>file</div></td></tr><tr><td style="font-weight:bold;vertical-align:top;">status</td><td style="vertical-align:top;">:</td><td><div>200</div></td></tr><tr><td style="font-weight:bold;vertical-align:top;">subtitle</td><td style="vertical-align:top;">:</td><td><div>customize me!</div></td></tr><tr><td style="font-weight:bold;vertical-align:top;">title</td><td style="vertical-align:top;">:</td><td><div>CRMwStyle</div></td></tr><tr><td style="font-weight:bold;vertical-align:top;">view</td><td style="vertical-align:top;">:</td><td><div>default/index.html</div></td></tr></table></div>'
tRp132
sS'locals'
p133
(dp134
g4
S"r'C:\\GITWEBPY\\WEBPY\\web2py\\applications\\CRMwStyle\\views\\default/index.html'"
p135
sg6
S'\'response.write(\\\'<!DOCTYPE html PUBLIC "-//W3C//D...cript>\\\\r\\\\n</html>\\\\r\\\\n\\\\r\\\\n\\\\r\\\\n\\\\r\\\\n\\\', escape=False)\''
p136
sssS'traceback'
p137
S'Traceback (most recent call last):\n  File "C:\\GITWEBPY\\WEBPY\\web2py\\gluon\\restricted.py", line 226, in restricted\n    ccode = compile2(code, layer)\n  File "C:\\GITWEBPY\\WEBPY\\web2py\\gluon\\restricted.py", line 209, in compile2\n    return compile(code.rstrip().replace(\'\\r\\n\', \'\\n\') + \'\\n\', layer, \'exec\')\n  File "C:\\GITWEBPY\\WEBPY\\web2py\\applications\\CRMwStyle\\views\\default/index.html", line 3\n    response.write(\'" />\\r\\n\\t  \\r\\n    <link href="https://maxcdn.bootstrapcdn.com/font-awesome/4.5.0/css/font-awesome.min.css"\\r\\n          rel="stylesheet" >\\r\\n    <meta charset="utf-8">\\r\\n    <meta http-equiv="X-UA-Compatible" content="IE=edge,chrome=1">\\r\\n    <meta name="viewport" content="width=device-width, initial-scale=1.0" />\\r\\n    <meta name="apple-mobile-web-app-capable" content="yes" />\\r\\n    <style>\\r\\n      .menu.vertical li { width:100%; line-height:40px;}\\r\\n      .menu.vertical>li>a {color:white!important;}\\r\\n      table td, table tr {color: black!important;}\\r\\n    </style>\\r\\n  </head>\\r\\n  <body class="black">\\r\\n    <header class="white">\\r\\n      <div class="container">\\r\\n        <div class="fill padded middle">\\r\\n          <label class="ham fa fa-bars pulse" for="left-menu"></label>\\r\\n          <div class="burger accordion">\\r\\n            <input type="checkbox" id="left-menu">\\r\\n            <ul class="menu">\\r\\n              <li><a><i class="fa fa-envelope"></i></a></li>\\r\\n              <li><a><i class="fa fa-bell"></i></a></li>\\r\\n              <li><a><i class="fa fa-calendar"></i></a></li>\\r\\n            </ul>\\r\\n            <ul class="menu right">\\r\\n              <li><a>00:00:00</a><li>\\r\\n              <li><a><i class="fa fa-th"></i></a></li>\\r\\n              <li><a><i class="fa fa-group"></i> John Smith <i class="fa fa-caret-down"></i></a>\\r\\n                <ul>\\r\\n                  <li><a><i class="fa fa-user"></i> Profile</a></li>\\r\\n                  <li><a><i class="fa fa-envelope"></i> Inbox</a></li>\\r\\n                  <li><a><i class="fa fa-cog"></i> Settings</a></li>\\r\\n                  <li><a><i class="fa fa-power-off"></i> Logout</a></li>              \\r\\n                </ul>\\r\\n              </li>\\r\\n            </ul>\\r\\n          </div>\\r\\n        </div>\\r\\n      </div>\\r\\n    </header>\\r\\n    <main class="black">\\r\\n      <div class="container">\\r\\n        <div class="quarter">\\r\\n          <div class="padded">\\r\\n            <ul class="menu vertical">\\r\\n              <li>\\r\\n                <a href="index.html"><i class="fa fa-fw fa-dashboard"></i> Dashboard</a>\\r\\n              </li>\\r\\n              <li>\\r\\n                <a href="charts.html"><i class="fa fa-fw fa-bar-chart-o"></i> Charts</a>\\r\\n              </li>\\r\\n              <li>\\r\\n                <a href="tables.html"><i class="fa fa-fw fa-table"></i> Tables</a>\\r\\n              </li>\\r\\n              <li>\\r\\n                        <a href="forms.html"><i class="fa fa-fw fa-edit"></i> Forms</a>\\r\\n              </li>\\r\\n              <li>\\r\\n                <a href="bootstrap-elements.html"><i class="fa fa-fw fa-desktop"></i> Bootstrap Elements</a>\\r\\n              </li>\\r\\n              <li>\\r\\n                <a href="bootstrap-grid.html"><i class="fa fa-fw fa-wrench"></i> Bootstrap Grid</a>\\r\\n              </li>\\r\\n              <li>\\r\\n                <a><i class="fa fa-fw fa-arrows-v"></i> Dropdown <i class="fa fa-fw fa-caret-down"></i></a>\\r\\n                <ul>\\r\\n                  <li>\\r\\n                    <a href="#">Dropdown Item</a>\\r\\n                  </li>\\r\\n                  <li>\\r\\n                    <a href="#">Dropdown Item</a>\\r\\n                  </li>\\r\\n                </ul>\\r\\n              </li>\\r\\n              <li>\\r\\n                <a href="blank-page.html"><i class="fa fa-fw fa-file"></i> Blank Page</a>\\r\\n              </li>\\r\\n              <li>\\r\\n                <a href="index-rtl.html"><i class="fa fa-fw fa-dashboard"></i> RTL Dashboard</a>\\r\\n              </li>\\r\\n            </ul>\\r\\n          </div>\\r\\n        </div>\\r\\n        <div class="threequarters white">\\r\\n          <div class="padded">\\r\\n            <h3>Dashboard</h3>\\r\\n            <div class="padded silver rounded">\\r\\n              <i class="fa fa-dashboard"></i> Dashboard\\r\\n              made with <a href="../index.html">Stupid.css</a>.\\r\\n            </div>\\r\\n            <div class="padded spaced blue rounded">\\r\\n              <i class="fa fa-info"></i> Do you like this?\\r\\n            </div>\\r\\n         \\r\\n            <div class="container">\\r\\n              <div class="quarter spaced">\\r\\n                <div class="blue rounded padded">\\r\\n                  <i class="fa fa-comments fa-5x"></i>\\r\\n                  <div class="silver padded rounded">\\r\\n                    Details\\r\\n                </div>\\r\\n                </div>\\r\\n              </div>\\r\\n              <div class="quarter spaced">\\r\\n                <div class="green rounded padded">\\r\\n                  <i class="fa fa-tasks fa-5x"></i>\\r\\n                  <div class="silver padded rounded">\\r\\n                    Details\\r\\n                  </div>\\r\\n              </div>\\r\\n              </div>\\r\\n              <div class="quarter spaced">\\r\\n                <div class="yellow rounded padded">\\r\\n                  <i class="fa fa-shopping-cart fa-5x"></i>\\r\\n                  <div class="silver padded rounded">\\r\\n                    Details\\r\\n                  </div>\\r\\n                </div>\\r\\n              </div>\\r\\n              <div class="quarter spaced">\\r\\n                <div class="red rounded padded">\\r\\n                  <i class="fa fa-support fa-5x"></i>\\r\\n                  <div class="silver padded rounded">\\r\\n                    Details\\r\\n                  </div>\\r\\n                </div>\\r\\n              </div>\\r\\n            </div>\\r\\n            <div class="container">\\r\\n              <div class="half spaced">\\r\\n                <div class="silver">\\r\\n                  <div class="padded right">\\r\\n                    <label for="x1" class="fa fa-bars"></label>\\r\\n                  </div>\\r\\n                  <div class="accordion white">\\r\\n                    <input type="checkbox" checked id="x1"/>\\r\\n                    <div>\\r\\n                      <div class="padded rounded">\\r\\n                        <span data-peity=\\\'{"fill":["red","#eeeeee"],"innerRadius":10,"radius":40}\\\'>1/7</span>\\r\\n                        <span data-peity=\\\'{ "fill":["orange","#eeeeee"],"innerRadius":14,"radius":36}\\\'>2/7</span>\\r\\n                        <span data-peity=\\\'{ "fill": ["yellow", "#eeeeee"], "innerRadius": 16, "radius": 32 }\\\'>3/7</span>\\r\\n                        <span data-peity=\\\'{ "fill": ["green", "#eeeeee"],  "innerRadius": 18, "radius": 28 }\\\'>4/7</span>\\r\\n                        <span data-peity=\\\'{ "fill": ["blue", "#eeeeee"],   "innerRadius": 20, "radius": 24 }\\\'>5/7</span>\\r\\n                      </div>\\r\\n                    </div>\\r\\n                  </div>\\r\\n                </div>\\r\\n              </div>\\r\\n              <div class="half spaced">\\r\\n                <div class="silver">\\r\\n                  <div class="padded right">\\r\\n                    <label for="x2" class="fa fa-bars"></label>\\r\\n                  </div>\\r\\n                  <div class="accordion white">\\r\\n                    <input type="checkbox" checked id="x2"/>\\r\\n                    <div>\\r\\n                      <div class="padded rounded">\\r\\n                        <div>\\r\\n                          <span class="pie">1/5</span>\\r\\n                          <span class="pie">226/360</span>\\r\\n                          <span class="pie">0.52/1.561</span>\\r\\n                          <span class="pie">1,4</span>\\r\\n                          <span class="pie">226,134</span>\\r\\n                          <span class="pie">0.52,1.041</span>\\r\\n                          <span class="pie">1,2,3,2,2</span>\\r\\n                        </div>\\r\\n                        <div>\\r\\n                          <span class="donut">1/5</span>\\r\\n                          <span class="donut">226/360</span>\\r\\n                          <span class="donut">0.52/1.561</span>\\r\\n                          <span class="donut">1,4</span>\\r\\n                          <span class="donut">226,134</span>\\r\\n                          <span class="donut">0.52,1.041</span>\\r\\n                          <span class="donut">1,2,3,2,2</span>\\r\\n                        </div>\\r\\n                        <div>\\r\\n                          <span class="line">5,3,9,6,5,9,7,3,5,2</span>\\r\\n                          <span class="line">5,3,2,-1,-3,-2,2,3,5,2</span>\\r\\n                          <span class="line">0,-3,-6,-4,-5,-4,-7,-3,-5,-2</span>\\r\\n                          <span class="bar">5,3,9,6,5,9,7,3,5,2</span>\\r\\n                          <span class="bar">5,3,2,-1,-3,-2,2,3,5,2</span>\\r\\n                          <span class="bar">0,-3,-6,-4,-5,-4,-7,-3,-5,-2</span>\\r\\n                        </div>\\r\\n                        <div>\\r\\n                          <span class="bar-colours-1">5,3,9,6,5,9,7,3,5,2</span>\\r\\n                          <span class="bar-colours-2">5,3,2,-1,-3,-2,2,3,5,2</span>\\r\\n                          <span class="bar-colours-3">0,-3,-6,-4,-5,-4,-7,-3,-5,-2</span>\\r\\n                          <span class="pie-colours-1">4,7,6,5</span>\\r\\n                          <span class="pie-colours-2">5,3,9,6,5</span>\\r\\n                        </div>\\r\\n                      </div>\\r\\n                    </div>\\r\\n                  </div>\\r\\n                </div>\\r\\n              </div>\\r\\n            </div>\\r\\n            <div class="container">\\r\\n              <div class="half spaced">\\r\\n                <div class="silver">\\r\\n                  <div class="padded right">\\r\\n                    <label for="x3" class="fa fa-bars"></label>\\r\\n                  </div>\\r\\n                  <div class="accordion white">\\r\\n                    <input type="checkbox" checked id="x3"/>\\r\\n                    <div>\\r\\n                      <div class="padded rounded">\\r\\n                        <iframe src="https://www.youtube.com/embed/x1w8hKTJ2Co" frameborder="0" allowfullscreen style="width:100%"></iframe>\\r\\n                      </div>\\r\\n                    </div>\\r\\n                  </div>\\r\\n                </div>\\r\\n              </div>\\r\\n              <div class="half spaced">\\r\\n                <div class="silver">\\r\\n                  <div class="padded right">\\r\\n                    <label for="x4" class="fa fa-bars"></label>\\r\\n                  </div>\\r\\n                  <div class="accordion white">\\r\\n                    <input type="checkbox" checked id="x4"/>\\r\\n                    <div>\\r\\n                      <div class="padded rounded">\\r\\n                        <table class="fill">\\r\\n                          <thead>\\r\\n                            <tr>\\r\\n                              <th>\\r\\n                                Left\\r\\n                              </th>\\r\\n                              <th>\\r\\n                                Right\\r\\n                              </th>\\r\\n                          </thead>\\r\\n                          <tbody>\\r\\n                            <tr>\\r\\n                              <td>21325</td>\\r\\n                              <td>34523</td>\\r\\n                            </tr>\\r\\n                            <tr>\\r\\n                              <td>67257</td>\\r\\n                              <td>61953</td>\\r\\n                            </tr>\\r\\n                          </tbody>\\r\\n                        </table>\\r\\n                      </div>\\r\\n                    </div>\\r\\n                  </div>\\r\\n                </div>\\r\\n              </div>\\r\\n            </div>\\r\\n          </div>\\r\\n        </div>\\r\\n      </div>\\r\\n    </main>\\r\\n    <footer class="black">\\r\\n      <div class="container">\\r\\n        <div class="half">\\r\\n          <div class="padded">\\r\\n          </div>\\r\\n        </div>\\r\\n        <div class="half">\\r\\n          <div class="padded">\\r\\n          </div>\\r\\n        </div>        \\r\\n      </div>\\r\\n    </footer>\\r\\n    <div class="modal" id="app">\\r\\n      <div class="twothirds rounded white padded relative">\\r\\n        <a class="close" href="#modal-stupid-example">&times;</a>\\r\\n        <h2>Dashboard template from stupid.css</h2>\\r\\n        <p>\\r\\n          This template uses <a href="http://mdipierro.github.io/stupid.css/index.html">stupid.css</a>, a pure CSS library for style and effects.\\r\\n        </p>\\r\\n        <div class="high">\\r\\n          <a class="close right btn" href="#modal-stupid-example" >close</a>\\r\\n        </div>\\r\\n      </div>\\r\\n    </div>\\r\\n  </body>\\r\\n  <!-- code below is only for charts -->\\r\\n  <script src="https://code.jquery.com/jquery-1.12.1.min.js"></script>\\r\\n  <script src="dashboard/jquery.peity.js"></script>\\r\\n  <script>\\r\\n    $("span.pie").peity("pie");\\r\\n    $(\\\'.donut\\\').peity(\\\'donut\\\');\\r\\n    $(".line").peity("line");\\r\\n    $(".bar").peity("bar");\\r\\n    $("span[data-peity]").peity("donut")\\r\\n    $(".bar-colours-1").peity("bar", {\\r\\n      fill: ["red", "green", "blue"]\\r\\n    });    \\r\\n    $(".bar-colours-2").peity("bar", {\\r\\n      fill: function(value) {\\r\\n        return value > 0 ? "green" : "red"\\r\\n      }\\r\\n    });    \\r\\n    $(".bar-colours-3").peity("bar", {\\r\\n      fill: function(_, i, all) {\\r\\n        var g = parseInt((i / all.length) * 255)\\r\\n        return "rgb(255, " + g + ", 0)"\\r\\n      }\\r\\n    });\\r\\n    $(".pie-colours-1").peity("pie", {\\r\\n      fill: ["cyan", "magenta", "yellow", "black"]\\r\\n    });    \\r\\n    $(".pie-colours-2").peity("pie", {\\r\\n      fill: function(_, i, all) {\\r\\n        var g = parseInt((i / all.length) * 255)\\r\\n        return "rgb(255, " + g + ", 0)"\\r\\n      }\\r\\n    });\\r\\n  </script>\\r\\n</html>\\r\\n\\r\\n\\r\\n\\r\\n\', escape=False)\n           ^\nSyntaxError: invalid syntax\n'
p138
s.