(dp1
S'output'
p2
S"<type 'exceptions.NameError'> name 'contacts' is not defined"
p3
sS'layer'
p4
S'C:\\WEB2PY\\EXE_RP\\web2py\\applications\\AddfinV3\\views\\default/list_accounts.html'
p5
sS'code'
p6
S'response.files.append(URL(r=request,c=\'static\',f=\'jquery.dataTables.min.js\'))\nresponse.write(\'\\n\', escape=False)\nresponse.files.append(URL(r=request,c=\'static\',f=\'demo_table.css\'))\nresponse.write(\'\\n\', escape=False)\nresponse.write(\'<!DOCTYPE html PUBLIC "-//W3C//DTD XHTML 1.0 Strict//EN" "http://www.w3.org/TR/xhtml1/DTD/xhtml1-strict.dtd">\\n<!--\\nDesign by Free CSS Templates\\nhttp://www.freecsstemplates.org\\nReleased for free under a Creative Commons Attribution 2.5 License\\n\\nName       : Oxidation\\nDescription: A two-column, fixed-width design for small websites and blogs.\\nVersion    : 1.0\\nReleased   : 20071229\\nlayout for main views dir\\n\\n-->\\n<html xmlns="http://www.w3.org/1999/xhtml">\\n <head>\\n  <title>\\xf0\\x9f\\x93\\x88Addfinwealth</title>\\n  <link rel="shortcut icon" href="company_logo.ico" type="image/x-icon" />\\n  \', escape=False)\nresponse.files.append(URL(request.application,\'static\',\'Oxidation/style.css\'))\nresponse.write(\'\\n\', escape=False)\nresponse.files.insert(0,URL(r=request,c=\'static\',f=\'jquery.js\'))\nresponse.files.insert(1,URL(r=request,c=\'static\',f=\'calendar.css\'))\nresponse.files.insert(2,URL(r=request,c=\'static\',f=\'calendar.js\'))\nfor _item in response.meta or []:\n    response.write(\'\\n     <meta name="\', escape=False)\n    response.write(_item)\n    response.write(\'" content="\', escape=False)\n    response.write(response.meta[_item])\n    response.write(\'" />\', escape=False)\n    pass\nfor _k,_file in enumerate(response.files or []):\n    if _file in response.files[:_k]:\n        continue\n    elif _file[-4:].lower()==\'.css\':\n        response.write(\'\\n     <link href="\', escape=False)\n        response.write(_file)\n        response.write(\'" rel="stylesheet" type="text/css" charset="utf-8" />\', escape=False)\n    elif _file[-3:].lower()==\'.js\':\n        response.write(\'\\n     <script src="\', escape=False)\n        response.write(_file)\n        response.write(\'" type="text/javascript"></script>\', escape=False)\n        pass\n    pass\nresponse.write(\'\\n<script type="text/javascript"><!--\\nfunction popup(url) {\\n  newwindow=window.open(url,\\\'name\\\',\\\'height=400,width=600\\\');\\n  if (window.focus) newwindow.focus();\\n  return false;\\n}\\nfunction collapse(id) { jQuery(\\\'#\\\'+id).slideToggle(); }\\nfunction fade(id,value) { if(value>0) jQuery(\\\'#\\\'+id).hide().fadeIn(\\\'slow\\\'); else jQuery(\\\'#\\\'+id).show().fadeOut(\\\'slow\\\'); }\\nfunction ajax(u,s,t) {\\n  var query="";\\n  for(i=0; i<s.length; i++) { \\n     if(i>0) query=query+"&";\\n     query=query+encodeURIComponent(s[i])+"="+encodeURIComponent(document.getElementById(s[i]).value);\\n  }\\n  jQuery.ajax({type: "POST", url: u, data: query, success: function(msg) { if(t==\\\':eval\\\') eval(msg); else document.getElementById(t).innerHTML=msg; } });  \\n}\\nString.prototype.reverse = function () { return this.split(\\\'\\\').reverse().join(\\\'\\\');};\\nfunction web2py_ajax_init() {\\n  jQuery(\\\'.hidden\\\').hide();\\n  jQuery(\\\'.error\\\').hide().slideDown(\\\'slow\\\');\\n  jQuery(\\\'.flash\\\').click(function() { jQuery(this).fadeOut(\\\'slow\\\'); return false; });\\n  jQuery(\\\'input.string\\\').attr(\\\'size\\\',50);\\n  jQuery(\\\'textarea.text\\\').attr(\\\'cols\\\',50).attr(\\\'rows\\\',10);\\n  jQuery(\\\'input.integer\\\').keyup(function(){this.value=this.value.reverse().replace(/[^0-9\\\\-]|\\\\-(?=.)/g,\\\'\\\').reverse();});\\n  jQuery(\\\'input.double\\\').keyup(function(){this.value=this.value.reverse().replace(/[^0-9\\\\-\\\\.]|[\\\\-](?=.)|[\\\\.](?=[0-9]*[\\\\.])/g,\\\'\\\').reverse();});\\n  jQuery(\\\'input.delete\\\').attr(\\\'onclick\\\',\\\'if(this.checked) if(!confirm("\', escape=False)\nresponse.write(T(\'Sure you want to delete this object?\'))\nresponse.write(\'")) this.checked=false;\\\');\\n  try {jQuery("input.date").focus( function() {Calendar.setup({\\n     inputField:this.id, ifFormat:"\', escape=False)\nresponse.write(T(\'%Y-%m-%d\'))\nresponse.write(\'", showsTime:false\\n  }); }); } catch(e) {};\\n  try { jQuery("input.datetime").focus( function() {Calendar.setup({\\n     inputField:this.id, ifFormat:"\', escape=False)\nresponse.write(T(\'%Y-%m-%d %H:%M:%S\'))\nresponse.write(\'", showsTime: true,timeFormat: "24"\\n  }); }); } catch(e) {};\\n  try { jQuery("input.time").clockpick({\\n      starthour:0, endhour:23, showminutes:true, military:true\\n  }); } catch(e) {};\\n};\\njQuery(document).ready(function(){\\n   jQuery(\\\'.flash\\\').hide();\\n   if(jQuery(\\\'.flash\\\').html()!=\\\'\\\') jQuery(\\\'.flash\\\').slideDown(\\\'slow\\\');\\n   web2py_ajax_init();});\\n\\nfunction web2py_trap_form(action,target) {\\n   jQuery(\\\'#\\\'+target+\\\' form\\\').each(function(i){\\n      var form=jQuery(this);\\n      jQuery(\\\'input[type="submit"]\\\',this).click(function(){\\n         jQuery(\\\'.flash\\\').hide().html(\\\'\\\');\\n         web2py_ajax_page(\\\'post\\\',action,form.serialize(),target);\\n         return false;\\n      });\\n   });\\n}\\nfunction web2py_ajax_page(method,action,data,target) {\\n  jQuery.ajax({\\\'type\\\':method,\\\'url\\\':action,\\\'data\\\':data,\\n    \\\'beforeSend\\\':function(xhr){\\n      xhr.setRequestHeader(\\\'web2py-component-location\\\',document.location);\\n      xhr.setRequestHeader(\\\'web2py-component-element\\\',target);},\\n    \\\'complete\\\':function(xhr,text){\\n      command=xhr.getResponseHeader(\\\'web2py-component-command\\\');\\n      if(command) eval(command);\\n      flash=xhr.getResponseHeader(\\\'web2py-component-flash\\\');\\n      if(flash) jQuery(\\\'.flash\\\').html(flash).slideDown();\\n      },\\n    \\\'success\\\': function(text) {\\n      jQuery(\\\'#\\\'+target).html(text);\\n      web2py_trap_form(action,target);\\n      web2py_ajax_init();\\n      }\\n    });\\n}\\nfunction web2py_component(action,target) {\\n    jQuery(document).ready(function(){ web2py_ajax_page(\\\'get\\\',action,null,target); });\\n}\\n//--></script>\\n\', escape=False)\nresponse.write(\'\\n </head>\\n <body>\\n  <div id="header">\\n   <div id="logo">\\n    <h1>\\n     Addfin.\\n    </h1>\\n    <h2>\\n     powered by <a href="http://addfinwealth.com">Addfin</a>\\n    </h2>\\n   </div>\\n   <div id="search">\\n    <form id="searchform" method="get" action="">\\n     <fieldset>\\n       [\\n       \', escape=False)\nif not auth.user:\n    response.write(\'\\n       <a href="\', escape=False)\n    response.write(URL(\'user/login\'))\n    response.write(\'">login</a>\\n       \', escape=False)\nelse:\n    response.write(\'\\n       \', escape=False)\n    response.write(auth.user.first_name)\n    response.write(\' |\\n       <a href="\', escape=False)\n    response.write(URL(\'user/logout\'))\n    response.write(\'">logout</a> |\\n       <a href="\', escape=False)\n    response.write(URL(\'user/change_password\'))\n    response.write(\'">password</a> |\\n       <a href="\', escape=False)\n    response.write(URL(\'user/profile\'))\n    response.write(\'">profile</a>\\n       \', escape=False)\n    pass\nresponse.write(\' ]\\n      <input id="searchquery" type="text" size="25" name="s" value="" />\\n      <input id="searchsubmit" type="submit" value="Search" />\\n     </fieldset>\\n    </form>\\n   </div>\\n  </div>\\n  <!-- end #header -->\\n  \\n<!-- <div id="menu"> -->\\n   <!-- \', escape=False)\nresponse.write(MENU(response.menu))\nresponse.write(\' -->\\n  <!-- </div> -->\\n  \\n  <!-- end #menu -->\\n  <div id="page">\\n   <div id="content">\\n     <div id="main">\\n        <div class="flash">\', escape=False)\nresponse.write(response.flash or \'\')\nresponse.write(\'</div> \\n       \', escape=False)\nresponse.write("\\n<script>\\n$(document).ready(function() { \\n   jQuery(\'.smarttable\').dataTable(); \\n   ", escape=False)\nif not form.errors:\n    response.write("jQuery(\'#form\').hide();", escape=False)\n    pass\nresponse.write(\'\\n});\\n</script>\\n<h1>List accounts</h1>\\n\\n[<a href="#nil" onclick="jQuery(\\\'#form\\\').slideToggle();">toggle</a>]\\n<div id="form">\\n<h2>New account</h2>\\n\', escape=False)\nresponse.write(form)\nresponse.write(\'\\n</div>\\n\\n<br /><br />\\n<table class="smarttable">\\n<thead>\\n    <tr>\\n      <th>Name</th><th>Actions</th>\\n    </tr>    \\n</thead>\\n<tbody>\\n\', escape=False)\nfor contact in contacts:\n    response.write(\'\\n    <tr>\\n       <td>\', escape=False)\n    response.write(link_contact(contact))\n    response.write(\'</td>   \\n       <td>\', escape=False)\n    response.write(button(\'contacts\',\'list_persons\',contact.id))\n    response.write(\'\\n       \', escape=False)\n    response.write(button(\'edit\',\'edit_contact\',contact.id))\n    response.write(\'</td>\\n    </tr>\\n\', escape=False)\n    pass\nresponse.write(\'\\n</tbody>\\n</table>\\n\', escape=False)\nresponse.write(\'\\n     </div>\\n   </div>\\n   <!-- end content -->\\n   <!-- \', escape=False)\nleft_sidebar_enabled=True,right_sidebar_enabled=False,(\'message\' in globals())\nresponse.write(\' -->\\n\\n   <div id="sidebar">\\n   <!-- left_sidebar_enabled = True -->\\n    <ul>\\n     <li>\\n       \', escape=False)\nif auth.user:\n    response.write(\'\\n      <h3>Recent Companies</h3>\\n      <ul>\\n\\t\', escape=False)\n    for id,name in session.recent_companies:\n        response.write(\'\\n       <li>\\n        <a href="\', escape=False)\n        response.write(URL(\'list_persons\',args=id))\n        response.write(\'">\\n          \', escape=False)\n        response.write(name)\n        response.write(\'\\n        </a>\\n       </li>\\n       \', escape=False)\n        pass\n    response.write(\'\\n      </ul>\\n     </li>\\n\\t \\n     <li>\\n      <h3>Recent Contacts </h3>\\n      <ul>\\n\\t\', escape=False)\n    for id,name in session.recent_persons:\n        response.write(\'\\n       <li>\\n        <a href="\', escape=False)\n        response.write(URL(\'view_person\',args=id))\n        response.write(\'">\\n          \', escape=False)\n        response.write(name)\n        response.write(\'\\n        </a>\\n       </li>\\n       \', escape=False)\n        pass\n    response.write(\'\\n\\t     \\n      </ul>\\n     </li>\\n\\t \\n    <li>\\n      <h3>Recent Tasks </h3>\\n      <ul>\\n\\t\', escape=False)\n    for id,name in session.recent_tasks:\n        response.write(\'\\n       <li>\\n        <a href="\', escape=False)\n        response.write(URL(\'view_task\',args=id))\n        response.write(\'">\\n          \', escape=False)\n        response.write(name)\n        response.write(\'\\n        </a>\\n       </li>\\n       \', escape=False)\n        pass\n    response.write(\'\\n\\t     \\n      </ul>\\n     </li>\\n\\t \\n\\t <ul>\\n\\t <li>\\n       <h3>Recent other things</h3>\\n       \', escape=False)\n    response.write(\'other things\')\n    response.write(\'\\n     </li>\\n     \', escape=False)\n    pass\nresponse.write(\'\\n    </ul>\\n\\t</li>\\n\\t\', escape=False)\npass\nresponse.write(\'\\n\\t      </ul>\\n     </li>\\n   </div>\\n   <!-- end #sidebar -->\\n     <div class="ez-box" id="left_sidebar">\\n            \', escape=False)\nresponse.write(\'\\n                \', escape=False)\nresponse.write(MENU(response.menu,_class=\'sf-menu\'))\nresponse.write(\'\\n            \', escape=False)\nresponse.write(\'    \\n            </div>\\n\\n   <div style="clear: both;">\\n    &nbsp;\\n   </div>\\n  </div>\\n  <!-- end page -->\\n  <div id="footer">\\n   <p class="legal">\\n    &copy;2016 All Rights Reserved.\\n   </p>\\n   <p class="credit">\\n    Design by\\n    <a href="http://www.addfinwealth.com/">\\n     Addfin\\n    </a>\\n   </p>\\n  </div>\\n </body>\\n</html>\\n\', escape=False)'
p7
sS'snapshot'
p8
(dp9
S'exception'
p10
(dp11
S'__hash__'
p12
S"<method-wrapper '__hash__' of exceptions.NameError object>"
p13
sS'__setattr__'
p14
S"<method-wrapper '__setattr__' of exceptions.NameError object>"
p15
sS'__reduce_ex__'
p16
S'<built-in method __reduce_ex__ of exceptions.NameError object>'
p17
sS'__getslice__'
p18
S"<method-wrapper '__getslice__' of exceptions.NameError object>"
p19
sS'__getitem__'
p20
S"<method-wrapper '__getitem__' of exceptions.NameError object>"
p21
sS'__setstate__'
p22
S'<built-in method __setstate__ of exceptions.NameError object>'
p23
sS'__reduce__'
p24
S'<built-in method __reduce__ of exceptions.NameError object>'
p25
sS'__str__'
p26
S"<method-wrapper '__str__' of exceptions.NameError object>"
p27
sS'__format__'
p28
S'<built-in method __format__ of exceptions.NameError object>'
p29
sS'__getattribute__'
p30
S"<method-wrapper '__getattribute__' of exceptions.NameError object>"
p31
sS'__class__'
p32
S"<type 'exceptions.NameError'>"
p33
sS'__unicode__'
p34
S'<built-in method __unicode__ of exceptions.NameError object>'
p35
sS'__delattr__'
p36
S"<method-wrapper '__delattr__' of exceptions.NameError object>"
p37
sS'__subclasshook__'
p38
S'<built-in method __subclasshook__ of type object>'
p39
sS'__repr__'
p40
S"<method-wrapper '__repr__' of exceptions.NameError object>"
p41
sS'args'
p42
S'("name \'contacts\' is not defined",)'
p43
sS'__dict__'
p44
S'{}'
p45
sS'__sizeof__'
p46
S'<built-in method __sizeof__ of exceptions.NameError object>'
p47
sS'__doc__'
p48
S"'Name not found globally.'"
p49
sS'__init__'
p50
S"<method-wrapper '__init__' of exceptions.NameError object>"
p51
sS'__new__'
p52
S'<built-in method __new__ of type object>'
p53
ssS'evalue'
p54
S"name 'contacts' is not defined"
p55
sS'request'
p56
cgluon.html
XML_unpickle
p57
(S's\xaag\x00\x00<div><table><tr><td style="font-weight:bold;vertical-align:top;">ajax</td><td style="vertical-align:top;">:</td><td><div>False</div></td></tr><tr><td style="font-weight:bold;vertical-align:top;">application</td><td style="vertical-align:top;">:</td><td><div>AddfinV3</div></td></tr><tr><td style="font-weight:bold;vertical-align:top;">args</td><td style="vertical-align:top;">:</td><td><div><table></table></div></td></tr><tr><td style="font-weight:bold;vertical-align:top;">cid</td><td style="vertical-align:top;">:</td><td><div>None</div></td></tr><tr><td style="font-weight:bold;vertical-align:top;">client</td><td style="vertical-align:top;">:</td><td><div>127.0.0.1</div></td></tr><tr><td style="font-weight:bold;vertical-align:top;">controller</td><td style="vertical-align:top;">:</td><td><div>default</div></td></tr><tr><td style="font-weight:bold;vertical-align:top;">cookies</td><td style="vertical-align:top;">:</td><td><div><table><tr><td style="font-weight:bold;vertical-align:top;">session_id_addfinv3</td><td style="vertical-align:top;">:</td><td><div>127.0.0.1-fcdbc3a9-e9fc-4298-8f1e-f82c70e71d97<table><tr><td style="font-weight:bold;vertical-align:top;">comment</td><td style="vertical-align:top;">:</td><td><div></div></td></tr><tr><td style="font-weight:bold;vertical-align:top;">domain</td><td style="vertical-align:top;">:</td><td><div></div></td></tr><tr><td style="font-weight:bold;vertical-align:top;">expires</td><td style="vertical-align:top;">:</td><td><div></div></td></tr><tr><td style="font-weight:bold;vertical-align:top;">httponly</td><td style="vertical-align:top;">:</td><td><div></div></td></tr><tr><td style="font-weight:bold;vertical-align:top;">max-age</td><td style="vertical-align:top;">:</td><td><div></div></td></tr><tr><td style="font-weight:bold;vertical-align:top;">path</td><td style="vertical-align:top;">:</td><td><div></div></td></tr><tr><td style="font-weight:bold;vertical-align:top;">secure</td><td style="vertical-align:top;">:</td><td><div></div></td></tr><tr><td style="font-weight:bold;vertical-align:top;">version</td><td style="vertical-align:top;">:</td><td><div></div></td></tr></table></div></td></tr><tr><td style="font-weight:bold;vertical-align:top;">session_id_admin</td><td style="vertical-align:top;">:</td><td><div>127.0.0.1-5e898987-30a9-4264-af9a-4c03c9a6c05b<table><tr><td style="font-weight:bold;vertical-align:top;">comment</td><td style="vertical-align:top;">:</td><td><div></div></td></tr><tr><td style="font-weight:bold;vertical-align:top;">domain</td><td style="vertical-align:top;">:</td><td><div></div></td></tr><tr><td style="font-weight:bold;vertical-align:top;">expires</td><td style="vertical-align:top;">:</td><td><div></div></td></tr><tr><td style="font-weight:bold;vertical-align:top;">httponly</td><td style="vertical-align:top;">:</td><td><div></div></td></tr><tr><td style="font-weight:bold;vertical-align:top;">max-age</td><td style="vertical-align:top;">:</td><td><div></div></td></tr><tr><td style="font-weight:bold;vertical-align:top;">path</td><td style="vertical-align:top;">:</td><td><div></div></td></tr><tr><td style="font-weight:bold;vertical-align:top;">secure</td><td style="vertical-align:top;">:</td><td><div></div></td></tr><tr><td style="font-weight:bold;vertical-align:top;">version</td><td style="vertical-align:top;">:</td><td><div></div></td></tr></table></div></td></tr><tr><td style="font-weight:bold;vertical-align:top;">session_id_crmraw</td><td style="vertical-align:top;">:</td><td><div>127.0.0.1-c63ee9db-bf95-4c5c-9ba4-fb84ac052322<table><tr><td style="font-weight:bold;vertical-align:top;">comment</td><td style="vertical-align:top;">:</td><td><div></div></td></tr><tr><td style="font-weight:bold;vertical-align:top;">domain</td><td style="vertical-align:top;">:</td><td><div></div></td></tr><tr><td style="font-weight:bold;vertical-align:top;">expires</td><td style="vertical-align:top;">:</td><td><div></div></td></tr><tr><td style="font-weight:bold;vertical-align:top;">httponly</td><td style="vertical-align:top;">:</td><td><div></div></td></tr><tr><td style="font-weight:bold;vertical-align:top;">max-age</td><td style="vertical-align:top;">:</td><td><div></div></td></tr><tr><td style="font-weight:bold;vertical-align:top;">path</td><td style="vertical-align:top;">:</td><td><div></div></td></tr><tr><td style="font-weight:bold;vertical-align:top;">secure</td><td style="vertical-align:top;">:</td><td><div></div></td></tr><tr><td style="font-weight:bold;vertical-align:top;">version</td><td style="vertical-align:top;">:</td><td><div></div></td></tr></table></div></td></tr><tr><td style="font-weight:bold;vertical-align:top;">session_id_crmrawfullfields</td><td style="vertical-align:top;">:</td><td><div>127.0.0.1-d7a5baf1-f883-495c-9cff-631275da4bef<table><tr><td style="font-weight:bold;vertical-align:top;">comment</td><td style="vertical-align:top;">:</td><td><div></div></td></tr><tr><td style="font-weight:bold;vertical-align:top;">domain</td><td style="vertical-align:top;">:</td><td><div></div></td></tr><tr><td style="font-weight:bold;vertical-align:top;">expires</td><td style="vertical-align:top;">:</td><td><div></div></td></tr><tr><td style="font-weight:bold;vertical-align:top;">httponly</td><td style="vertical-align:top;">:</td><td><div></div></td></tr><tr><td style="font-weight:bold;vertical-align:top;">max-age</td><td style="vertical-align:top;">:</td><td><div></div></td></tr><tr><td style="font-weight:bold;vertical-align:top;">path</td><td style="vertical-align:top;">:</td><td><div></div></td></tr><tr><td style="font-weight:bold;vertical-align:top;">secure</td><td style="vertical-align:top;">:</td><td><div></div></td></tr><tr><td style="font-weight:bold;vertical-align:top;">version</td><td style="vertical-align:top;">:</td><td><div></div></td></tr></table></div></td></tr><tr><td style="font-weight:bold;vertical-align:top;">session_id_welcome</td><td style="vertical-align:top;">:</td><td><div>127.0.0.1-46a2293c-625b-4272-8e4f-7baf6928c1c8<table><tr><td style="font-weight:bold;vertical-align:top;">comment</td><td style="vertical-align:top;">:</td><td><div></div></td></tr><tr><td style="font-weight:bold;vertical-align:top;">domain</td><td style="vertical-align:top;">:</td><td><div></div></td></tr><tr><td style="font-weight:bold;vertical-align:top;">expires</td><td style="vertical-align:top;">:</td><td><div></div></td></tr><tr><td style="font-weight:bold;vertical-align:top;">httponly</td><td style="vertical-align:top;">:</td><td><div></div></td></tr><tr><td style="font-weight:bold;vertical-align:top;">max-age</td><td style="vertical-align:top;">:</td><td><div></div></td></tr><tr><td style="font-weight:bold;vertical-align:top;">path</td><td style="vertical-align:top;">:</td><td><div></div></td></tr><tr><td style="font-weight:bold;vertical-align:top;">secure</td><td style="vertical-align:top;">:</td><td><div></div></td></tr><tr><td style="font-weight:bold;vertical-align:top;">version</td><td style="vertical-align:top;">:</td><td><div></div></td></tr></table></div></td></tr></table></div></td></tr><tr><td style="font-weight:bold;vertical-align:top;">env</td><td style="vertical-align:top;">:</td><td><div><table><tr><td style="font-weight:bold;vertical-align:top;">HTTP_ACCEPT</td><td style="vertical-align:top;">:</td><td><div>text/html,application/xhtml+xml,application/xml;q=0.9,image/webp,*/*;q=0.8</div></td></tr><tr><td style="font-weight:bold;vertical-align:top;">HTTP_ACCEPT_ENCODING</td><td style="vertical-align:top;">:</td><td><div>gzip, deflate, sdch</div></td></tr><tr><td style="font-weight:bold;vertical-align:top;">HTTP_ACCEPT_LANGUAGE</td><td style="vertical-align:top;">:</td><td><div>en-US,en;q=0.8,de-DE;q=0.6,de;q=0.4</div></td></tr><tr><td style="font-weight:bold;vertical-align:top;">HTTP_CONNECTION</td><td style="vertical-align:top;">:</td><td><div>keep-alive</div></td></tr><tr><td style="font-weight:bold;vertical-align:top;">HTTP_COOKIE</td><td style="vertical-align:top;">:</td><td><div>session_id_crmraw=127.0.0.1-c63ee9db-bf95-4c5c-9ba4-fb84ac052322; session_id_crmrawfullfields=127.0.0.1-d7a5baf1-f883-495c-9cff-631275da4bef; session_id_welcome=127.0.0.1-46a2293c-625b-4272-8e4f-7baf6928c1c8; session_id_admin=127.0.0.1-5e898987-30a9-4264-af9a-4c03c9a6c05b; session_id_addfinv3=127.0.0.1-fcdbc3a9-e9fc-4298-8f1e-f82c70e71d97</div></td></tr><tr><td style="font-weight:bold;vertical-align:top;">HTTP_HOST</td><td style="vertical-align:top;">:</td><td><div>127.0.0.1:8000</div></td></tr><tr><td style="font-weight:bold;vertical-align:top;">HTTP_REFERER</td><td style="vertical-align:top;">:</td><td><div>http://127.0.0.1:8000/AddfinV3/default/list_persons</div></td></tr><tr><td style="font-weight:bold;vertical-align:top;">HTTP_UPGRADE_INSECURE_REQUESTS</td><td style="vertical-align:top;">:</td><td><div>1</div></td></tr><tr><td style="font-weight:bold;vertical-align:top;">HTTP_USER_AGENT</td><td style="vertical-align:top;">:</td><td><div>Mozilla/5.0 (Windows NT 6.1; WOW64) AppleWebKit/537.36 (KHTML, like Gecko) Chrome/50.0.2661.94 Safari/537.36</div></td></tr><tr><td style="font-weight:bold;vertical-align:top;">PATH_INFO</td><td style="vertical-align:top;">:</td><td><div>/AddfinV3/default/list_accounts</div></td></tr><tr><td style="font-weight:bold;vertical-align:top;">QUERY_STRING</td><td style="vertical-align:top;">:</td><td><div></div></td></tr><tr><td style="font-weight:bold;vertical-align:top;">REMOTE_ADDR</td><td style="vertical-align:top;">:</td><td><div>127.0.0.1</div></td></tr><tr><td style="font-weight:bold;vertical-align:top;">REMOTE_PORT</td><td style="vertical-align:top;">:</td><td><div>61534</div></td></tr><tr><td style="font-weight:bold;vertical-align:top;">REQUEST_METHOD</td><td style="vertical-align:top;">:</td><td><div>GET</div></td></tr><tr><td style="font-weight:bold;vertical-align:top;">SCRIPT_NAME</td><td style="vertical-align:top;">:</td><td><div></div></td></tr><tr><td style="font-weight:bold;vertical-align:top;">SERVER_NAME</td><td style="vertical-align:top;">:</td><td><div>RPBASE1</div></td></tr><tr><td style="font-weight:bold;vertical-align:top;">SERVER_PORT</td><td style="vertical-align:top;">:</td><td><div>8000</div></td></tr><tr><td style="font-weight:bold;vertical-align:top;">SERVER_PROTOCOL</td><td style="vertical-align:top;">:</td><td><div>HTTP/1.1</div></td></tr><tr><td style="font-weight:bold;vertical-align:top;">SERVER_SOFTWARE</td><td style="vertical-align:top;">:</td><td><div>Rocket 1.2.6</div></td></tr><tr><td style="font-weight:bold;vertical-align:top;">app_folders</td><td style="vertical-align:top;">:</td><td><div>set([&#x27;C:\\\\WEB2PY\\\\EXE_RP\\\\web2py\\\\applications\\\\admin\\\\&#x27;, &#x27;C:\\\\WEB2PY\\\\EXE_RP\\\\web2py\\\\applications\\\\welcome\\\\&#x27;, &#x27;C:\\\\WEB2PY\\\\EXE_RP\\\\web2py\\\\applications\\\\AddfinV3\\\\&#x27;])</div></td></tr><tr><td style="font-weight:bold;vertical-align:top;">applications_parent</td><td style="vertical-align:top;">:</td><td><div>C:\\WEB2PY\\EXE_RP\\web2py</div></td></tr><tr><td style="font-weight:bold;vertical-align:top;">cmd_args</td><td style="vertical-align:top;">:</td><td><div><table></table></div></td></tr><tr><td style="font-weight:bold;vertical-align:top;">cmd_options</td><td style="vertical-align:top;">:</td><td><div>&lt;Values at 0x31dd7b0: {&#x27;verbose&#x27;: False, &#x27;ip&#x27;: &#x27;127.0.0.1&#x27;, &#x27;debuglevel&#x27;: 30, &#x27;with_scheduler&#x27;: False, &#x27;ips&#x27;: [], &#x27;shutdown_timeout&#x27;: 5, &#x27;taskbar&#x27;: False, &#x27;with_coverage&#x27;: False, &#x27;scheduler_groups&#x27;: None, &#x27;port&#x27;: 8000, &#x27;maxthreads&#x27;: None, &#x27;softcron&#x27;: False, &#x27;server_name&#x27;: &#x27;RPBASE1&#x27;, &#x27;bpython&#x27;: False, &#x27;nogui&#x27;: False, &#x27;pid_filename&#x27;: &#x27;httpserver.pid&#x27;, &#x27;print_errors&#x27;: False, &#x27;extcron&#x27;: False, &#x27;runcron&#x27;: False, &#x27;run_system_tests&#x27;: False, &#x27;test&#x27;: None, &#x27;folder&#x27;: &#x27;C:\\\\WEB2PY\\\\EXE_RP\\\\web2py&#x27;, &#x27;config&#x27;: &#x27;&#x27;, &#x27;minthreads&#x27;: None, &#x27;shell&#x27;: None, &#x27;run&#x27;: &#x27;&#x27;, &#x27;log_filename&#x27;: &#x27;httpserver.log&#x27;, &#x27;profiler_dir&#x27;: None, &#x27;args&#x27;: [&#x27;&#x27;], &#x27;socket_timeout&#x27;: 5, &#x27;ssl_ca_certificate&#x27;: None, &#x27;scheduler&#x27;: None, &#x27;interfaces&#x27;: None, &#x27;ssl_private_key&#x27;: &#x27;&#x27;, &#x27;gae&#x27;: None, &#x27;password&#x27;: &#x27;&lt;ask&gt;&#x27;, &#x27;request_queue_size&#x27;: 5, &#x27;ssl_certificate&#x27;: &#x27;&#x27;, &#x27;cronjob&#x27;: False, &#x27;numthreads&#x27;: None, &#x27;quiet&#x27;: False, &#x27;import_models&#x27;: False, &#x27;timeout&#x27;: 10, &#x27;plain&#x27;: False, &#x27;nobanner&#x27;: False}&gt;</div></td></tr><tr><td style="font-weight:bold;vertical-align:top;">db_sessions</td><td style="vertical-align:top;">:</td><td><div>set([])</div></td></tr><tr><td style="font-weight:bold;vertical-align:top;">debugging</td><td style="vertical-align:top;">:</td><td><div>False</div></td></tr><tr><td style="font-weight:bold;vertical-align:top;">gluon_parent</td><td style="vertical-align:top;">:</td><td><div>C:\\WEB2PY\\EXE_RP\\web2py</div></td></tr><tr><td style="font-weight:bold;vertical-align:top;">http_accept</td><td style="vertical-align:top;">:</td><td><div>text/html,application/xhtml+xml,application/xml;q=0.9,image/webp,*/*;q=0.8</div></td></tr><tr><td style="font-weight:bold;vertical-align:top;">http_accept_encoding</td><td style="vertical-align:top;">:</td><td><div>gzip, deflate, sdch</div></td></tr><tr><td style="font-weight:bold;vertical-align:top;">http_accept_language</td><td style="vertical-align:top;">:</td><td><div>en-US,en;q=0.8,de-DE;q=0.6,de;q=0.4</div></td></tr><tr><td style="font-weight:bold;vertical-align:top;">http_connection</td><td style="vertical-align:top;">:</td><td><div>keep-alive</div></td></tr><tr><td style="font-weight:bold;vertical-align:top;">http_cookie</td><td style="vertical-align:top;">:</td><td><div>session_id_crmraw=127.0.0.1-c63ee9db-bf95-4c5c-9ba4-fb84ac052322; session_id_crmrawfullfields=127.0.0.1-d7a5baf1-f883-495c-9cff-631275da4bef; session_id_welcome=127.0.0.1-46a2293c-625b-4272-8e4f-7baf6928c1c8; session_id_admin=127.0.0.1-5e898987-30a9-4264-af9a-4c03c9a6c05b; session_id_addfinv3=127.0.0.1-fcdbc3a9-e9fc-4298-8f1e-f82c70e71d97</div></td></tr><tr><td style="font-weight:bold;vertical-align:top;">http_host</td><td style="vertical-align:top;">:</td><td><div>127.0.0.1:8000</div></td></tr><tr><td style="font-weight:bold;vertical-align:top;">http_referer</td><td style="vertical-align:top;">:</td><td><div>http://127.0.0.1:8000/AddfinV3/default/list_persons</div></td></tr><tr><td style="font-weight:bold;vertical-align:top;">http_upgrade_insecure_requests</td><td style="vertical-align:top;">:</td><td><div>1</div></td></tr><tr><td style="font-weight:bold;vertical-align:top;">http_user_agent</td><td style="vertical-align:top;">:</td><td><div>Mozilla/5.0 (Windows NT 6.1; WOW64) AppleWebKit/537.36 (KHTML, like Gecko) Chrome/50.0.2661.94 Safari/537.36</div></td></tr><tr><td style="font-weight:bold;vertical-align:top;">is_jython</td><td style="vertical-align:top;">:</td><td><div>False</div></td></tr><tr><td style="font-weight:bold;vertical-align:top;">is_pypy</td><td style="vertical-align:top;">:</td><td><div>False</div></td></tr><tr><td style="font-weight:bold;vertical-align:top;">is_source</td><td style="vertical-align:top;">:</td><td><div>False</div></td></tr><tr><td style="font-weight:bold;vertical-align:top;">local_hosts</td><td style="vertical-align:top;">:</td><td><div><table><tr><td><div>::ffff:127.0.0.1</div></td></tr><tr><td><div>::1</div></td></tr><tr><td><div>192.168.1.56</div></td></tr><tr><td><div>fe80::48d0:efaa:de27:62ec%10</div></td></tr><tr><td><div>RPBASE1</div></td></tr><tr><td><div>RPBASE1.office.actant.com</div></td></tr><tr><td><div>127.0.0.1</div></td></tr></table></div></td></tr><tr><td style="font-weight:bold;vertical-align:top;">path_info</td><td style="vertical-align:top;">:</td><td><div>/AddfinV3/default/list_accounts</div></td></tr><tr><td style="font-weight:bold;vertical-align:top;">query_string</td><td style="vertical-align:top;">:</td><td><div></div></td></tr><tr><td style="font-weight:bold;vertical-align:top;">remote_addr</td><td style="vertical-align:top;">:</td><td><div>127.0.0.1</div></td></tr><tr><td style="font-weight:bold;vertical-align:top;">remote_port</td><td style="vertical-align:top;">:</td><td><div>61534</div></td></tr><tr><td style="font-weight:bold;vertical-align:top;">request_method</td><td style="vertical-align:top;">:</td><td><div>GET</div></td></tr><tr><td style="font-weight:bold;vertical-align:top;">request_uri</td><td style="vertical-align:top;">:</td><td><div>/AddfinV3/default/list_accounts</div></td></tr><tr><td style="font-weight:bold;vertical-align:top;">script_name</td><td style="vertical-align:top;">:</td><td><div></div></td></tr><tr><td style="font-weight:bold;vertical-align:top;">server_name</td><td style="vertical-align:top;">:</td><td><div>RPBASE1</div></td></tr><tr><td style="font-weight:bold;vertical-align:top;">server_port</td><td style="vertical-align:top;">:</td><td><div>8000</div></td></tr><tr><td style="font-weight:bold;vertical-align:top;">server_protocol</td><td style="vertical-align:top;">:</td><td><div>HTTP/1.1</div></td></tr><tr><td style="font-weight:bold;vertical-align:top;">server_software</td><td style="vertical-align:top;">:</td><td><div>Rocket 1.2.6</div></td></tr><tr><td style="font-weight:bold;vertical-align:top;">web2py_path</td><td style="vertical-align:top;">:</td><td><div>C:\\WEB2PY\\EXE_RP\\web2py</div></td></tr><tr><td style="font-weight:bold;vertical-align:top;">web2py_version</td><td style="vertical-align:top;">:</td><td><div>2.13.4-stable+timestamp.2015.12.26.04.59.39</div></td></tr><tr><td style="font-weight:bold;vertical-align:top;">wsgi.errors</td><td style="vertical-align:top;">:</td><td><div>&lt;open file &#x27;&lt;stderr&gt;&#x27;, mode &#x27;w&#x27; at 0x0045D0D0&gt;</div></td></tr><tr><td style="font-weight:bold;vertical-align:top;">wsgi.file_wrapper</td><td style="vertical-align:top;">:</td><td><div>&lt;class wsgiref.util.FileWrapper at 0x03D1BC38&gt;</div></td></tr><tr><td style="font-weight:bold;vertical-align:top;">wsgi.input</td><td style="vertical-align:top;">:</td><td><div>&lt;socket._fileobject object at 0x08E71EB0&gt;</div></td></tr><tr><td style="font-weight:bold;vertical-align:top;">wsgi.multiprocess</td><td style="vertical-align:top;">:</td><td><div>False</div></td></tr><tr><td style="font-weight:bold;vertical-align:top;">wsgi.multithread</td><td style="vertical-align:top;">:</td><td><div>True</div></td></tr><tr><td style="font-weight:bold;vertical-align:top;">wsgi.run_once</td><td style="vertical-align:top;">:</td><td><div>False</div></td></tr><tr><td style="font-weight:bold;vertical-align:top;">wsgi.url_scheme</td><td style="vertical-align:top;">:</td><td><div>http</div></td></tr><tr><td style="font-weight:bold;vertical-align:top;">wsgi.version</td><td style="vertical-align:top;">:</td><td><div><table><tr><td><div>1</div></td></tr><tr><td><div>0</div></td></tr></table></div></td></tr><tr><td style="font-weight:bold;vertical-align:top;">wsgi_errors</td><td style="vertical-align:top;">:</td><td><div>&lt;open file &#x27;&lt;stderr&gt;&#x27;, mode &#x27;w&#x27; at 0x0045D0D0&gt;</div></td></tr><tr><td style="font-weight:bold;vertical-align:top;">wsgi_file_wrapper</td><td style="vertical-align:top;">:</td><td><div>&lt;class wsgiref.util.FileWrapper at 0x03D1BC38&gt;</div></td></tr><tr><td style="font-weight:bold;vertical-align:top;">wsgi_input</td><td style="vertical-align:top;">:</td><td><div>&lt;socket._fileobject object at 0x08E71EB0&gt;</div></td></tr><tr><td style="font-weight:bold;vertical-align:top;">wsgi_multiprocess</td><td style="vertical-align:top;">:</td><td><div>False</div></td></tr><tr><td style="font-weight:bold;vertical-align:top;">wsgi_multithread</td><td style="vertical-align:top;">:</td><td><div>True</div></td></tr><tr><td style="font-weight:bold;vertical-align:top;">wsgi_run_once</td><td style="vertical-align:top;">:</td><td><div>False</div></td></tr><tr><td style="font-weight:bold;vertical-align:top;">wsgi_url_scheme</td><td style="vertical-align:top;">:</td><td><div>http</div></td></tr><tr><td style="font-weight:bold;vertical-align:top;">wsgi_version</td><td style="vertical-align:top;">:</td><td><div><table><tr><td><div>1</div></td></tr><tr><td><div>0</div></td></tr></table></div></td></tr></table></div></td></tr><tr><td style="font-weight:bold;vertical-align:top;">extension</td><td style="vertical-align:top;">:</td><td><div>html</div></td></tr><tr><td style="font-weight:bold;vertical-align:top;">folder</td><td style="vertical-align:top;">:</td><td><div>C:\\WEB2PY\\EXE_RP\\web2py\\applications\\AddfinV3\\</div></td></tr><tr><td style="font-weight:bold;vertical-align:top;">function</td><td style="vertical-align:top;">:</td><td><div>list_accounts</div></td></tr><tr><td style="font-weight:bold;vertical-align:top;">global_settings</td><td style="vertical-align:top;">:</td><td><div><table><tr><td style="font-weight:bold;vertical-align:top;">app_folders</td><td style="vertical-align:top;">:</td><td><div>set([&#x27;C:\\\\WEB2PY\\\\EXE_RP\\\\web2py\\\\applications\\\\admin\\\\&#x27;, &#x27;C:\\\\WEB2PY\\\\EXE_RP\\\\web2py\\\\applications\\\\welcome\\\\&#x27;, &#x27;C:\\\\WEB2PY\\\\EXE_RP\\\\web2py\\\\applications\\\\AddfinV3\\\\&#x27;])</div></td></tr><tr><td style="font-weight:bold;vertical-align:top;">applications_parent</td><td style="vertical-align:top;">:</td><td><div>C:\\WEB2PY\\EXE_RP\\web2py</div></td></tr><tr><td style="font-weight:bold;vertical-align:top;">cmd_args</td><td style="vertical-align:top;">:</td><td><div><table></table></div></td></tr><tr><td style="font-weight:bold;vertical-align:top;">cmd_options</td><td style="vertical-align:top;">:</td><td><div>&lt;Values at 0x31dd7b0: {&#x27;verbose&#x27;: False, &#x27;ip&#x27;: &#x27;127.0.0.1&#x27;, &#x27;debuglevel&#x27;: 30, &#x27;with_scheduler&#x27;: False, &#x27;ips&#x27;: [], &#x27;shutdown_timeout&#x27;: 5, &#x27;taskbar&#x27;: False, &#x27;with_coverage&#x27;: False, &#x27;scheduler_groups&#x27;: None, &#x27;port&#x27;: 8000, &#x27;maxthreads&#x27;: None, &#x27;softcron&#x27;: False, &#x27;server_name&#x27;: &#x27;RPBASE1&#x27;, &#x27;bpython&#x27;: False, &#x27;nogui&#x27;: False, &#x27;pid_filename&#x27;: &#x27;httpserver.pid&#x27;, &#x27;print_errors&#x27;: False, &#x27;extcron&#x27;: False, &#x27;runcron&#x27;: False, &#x27;run_system_tests&#x27;: False, &#x27;test&#x27;: None, &#x27;folder&#x27;: &#x27;C:\\\\WEB2PY\\\\EXE_RP\\\\web2py&#x27;, &#x27;config&#x27;: &#x27;&#x27;, &#x27;minthreads&#x27;: None, &#x27;shell&#x27;: None, &#x27;run&#x27;: &#x27;&#x27;, &#x27;log_filename&#x27;: &#x27;httpserver.log&#x27;, &#x27;profiler_dir&#x27;: None, &#x27;args&#x27;: [&#x27;&#x27;], &#x27;socket_timeout&#x27;: 5, &#x27;ssl_ca_certificate&#x27;: None, &#x27;scheduler&#x27;: None, &#x27;interfaces&#x27;: None, &#x27;ssl_private_key&#x27;: &#x27;&#x27;, &#x27;gae&#x27;: None, &#x27;password&#x27;: &#x27;&lt;ask&gt;&#x27;, &#x27;request_queue_size&#x27;: 5, &#x27;ssl_certificate&#x27;: &#x27;&#x27;, &#x27;cronjob&#x27;: False, &#x27;numthreads&#x27;: None, &#x27;quiet&#x27;: False, &#x27;import_models&#x27;: False, &#x27;timeout&#x27;: 10, &#x27;plain&#x27;: False, &#x27;nobanner&#x27;: False}&gt;</div></td></tr><tr><td style="font-weight:bold;vertical-align:top;">db_sessions</td><td style="vertical-align:top;">:</td><td><div>set([])</div></td></tr><tr><td style="font-weight:bold;vertical-align:top;">debugging</td><td style="vertical-align:top;">:</td><td><div>False</div></td></tr><tr><td style="font-weight:bold;vertical-align:top;">gluon_parent</td><td style="vertical-align:top;">:</td><td><div>C:\\WEB2PY\\EXE_RP\\web2py</div></td></tr><tr><td style="font-weight:bold;vertical-align:top;">is_jython</td><td style="vertical-align:top;">:</td><td><div>False</div></td></tr><tr><td style="font-weight:bold;vertical-align:top;">is_pypy</td><td style="vertical-align:top;">:</td><td><div>False</div></td></tr><tr><td style="font-weight:bold;vertical-align:top;">is_source</td><td style="vertical-align:top;">:</td><td><div>False</div></td></tr><tr><td style="font-weight:bold;vertical-align:top;">local_hosts</td><td style="vertical-align:top;">:</td><td><div><table><tr><td><div>::ffff:127.0.0.1</div></td></tr><tr><td><div>::1</div></td></tr><tr><td><div>192.168.1.56</div></td></tr><tr><td><div>fe80::48d0:efaa:de27:62ec%10</div></td></tr><tr><td><div>RPBASE1</div></td></tr><tr><td><div>RPBASE1.office.actant.com</div></td></tr><tr><td><div>127.0.0.1</div></td></tr></table></div></td></tr><tr><td style="font-weight:bold;vertical-align:top;">web2py_version</td><td style="vertical-align:top;">:</td><td><div>2.13.4-stable+timestamp.2015.12.26.04.59.39</div></td></tr></table></div></td></tr><tr><td style="font-weight:bold;vertical-align:top;">is_https</td><td style="vertical-align:top;">:</td><td><div>False</div></td></tr><tr><td style="font-weight:bold;vertical-align:top;">is_local</td><td style="vertical-align:top;">:</td><td><div>True</div></td></tr><tr><td style="font-weight:bold;vertical-align:top;">is_restful</td><td style="vertical-align:top;">:</td><td><div>False</div></td></tr><tr><td style="font-weight:bold;vertical-align:top;">is_scheduler</td><td style="vertical-align:top;">:</td><td><div>False</div></td></tr><tr><td style="font-weight:bold;vertical-align:top;">is_shell</td><td style="vertical-align:top;">:</td><td><div>False</div></td></tr><tr><td style="font-weight:bold;vertical-align:top;">now</td><td style="vertical-align:top;">:</td><td><div>datetime.datetime(2016, 5, 16, 20, 2, 3, 228000)</div></td></tr><tr><td style="font-weight:bold;vertical-align:top;">raw_args</td><td style="vertical-align:top;">:</td><td><div></div></td></tr><tr><td style="font-weight:bold;vertical-align:top;">raw_extension</td><td style="vertical-align:top;">:</td><td><div>None</div></td></tr><tr><td style="font-weight:bold;vertical-align:top;">url</td><td style="vertical-align:top;">:</td><td><div>/AddfinV3/default/list_accounts</div></td></tr><tr><td style="font-weight:bold;vertical-align:top;">utcnow</td><td style="vertical-align:top;">:</td><td><div>datetime.datetime(2016, 5, 16, 18, 2, 3, 228000)</div></td></tr><tr><td style="font-weight:bold;vertical-align:top;">wsgi</td><td style="vertical-align:top;">:</td><td><div>&lt;gluon.main.LazyWSGI object at 0x0922BBF0&gt;</div></td></tr></table></div>'
tRp58
sS'frames'
p59
(lp60
(dp61
S'file'
p62
S'C:\\WEB2PY\\EXE_RP\\web2py\\gluon\\restricted.py'
p63
sS'dump'
p64
(dp65
S'environment'
p66
S"{'A': <class 'gluon.html.A'>, 'ANY_OF': <class 'gluon.validators.ANY_OF'>, 'ASSIGNJS': <function ASSIGNJS>, 'Auth': <class 'gluon.tools.Auth'>, 'B': <class 'gluon.html.B'>, 'BEAUTIFY': <class 'gluon.html.BEAUTIFY'>, 'BODY': <class 'gluon.html.BODY'>, 'BR': <class 'gluon.html.BR'>, 'BUTTON': <class 'gluon.html.BUTTON'>, 'CAT': <class 'gluon.html.CAT'>, ...}"
p67
sS'ccode'
p68
S'<code object <module> at 041CE338, file "C:\\WEB2...dfinV3\\views\\default/list_accounts.html", line 1>'
p69
ssS'lnum'
p70
I227
sS'lines'
p71
(dp72
I224
S'            ccode = code'
p73
sI225
S'        else:'
p74
sI226
S'            ccode = compile2(code, layer)'
p75
sI227
S'        exec ccode in environment'
p76
sI228
S'    except HTTP:'
p77
sI229
S'        raise'
p78
sI230
S'    except RestrictedError:'
p79
sI231
S'        # do not encapsulate (obfuscate) the original RestrictedError'
p80
sI222
S'    try:'
p81
sI223
S'        if isinstance(code, types.CodeType):'
p82
ssS'call'
p83
S'(code=r"response.files.append(URL(r=request,c=\'static\',f...p>\\n  </div>\\n </body>\\n</html>\\n\', escape=False)", environment={\'A\': <class \'gluon.html.A\'>, \'ANY_OF\': <class \'gluon.validators.ANY_OF\'>, \'ASSIGNJS\': <function ASSIGNJS>, \'Auth\': <class \'gluon.tools.Auth\'>, \'B\': <class \'gluon.html.B\'>, \'BEAUTIFY\': <class \'gluon.html.BEAUTIFY\'>, \'BODY\': <class \'gluon.html.BODY\'>, \'BR\': <class \'gluon.html.BR\'>, \'BUTTON\': <class \'gluon.html.BUTTON\'>, \'CAT\': <class \'gluon.html.CAT\'>, ...}, layer=r\'C:\\WEB2PY\\EXE_RP\\web2py\\applications\\AddfinV3\\views\\default/list_accounts.html\')'
p84
sS'func'
p85
S'restricted'
p86
sa(dp87
g62
S'C:\\WEB2PY\\EXE_RP\\web2py\\applications\\AddfinV3\\views\\default\\list_accounts.html'
p88
sg64
(dp89
sg70
I66
sg71
(dp90
I64
S'response.write(form)'
p91
sI65
S'response.write(\'\\n</div>\\n\\n<br /><br />\\n<table class="smarttable">\\n<thead>\\n    <tr>\\n      <th>Name</th><th>Actions</th>\\n    </tr>    \\n</thead>\\n<tbody>\\n\', escape=False)'
p92
sI66
S'for contact in contacts:'
p93
sI67
S"    response.write('\\n    <tr>\\n       <td>', escape=False)"
p94
sI68
S'    response.write(link_contact(contact))'
p95
sI69
S"    response.write('</td>   \\n       <td>', escape=False)"
p96
sI70
S"    response.write(button('contacts','list_persons',contact.id))"
p97
sI71
S"    response.write('\\n       ', escape=False)"
p98
sI72
S"    response.write(button('edit','edit_contact',contact.id))"
p99
sI73
S"    response.write('</td>\\n    </tr>\\n', escape=False)"
p100
sI74
S'    pass'
p101
sI75
S"response.write('\\n</tbody>\\n</table>\\n', escape=False)"
p102
sI76
S"response.write('\\n     </div>\\n   </div>\\n   <!-- end content -->\\n   <!-- ', escape=False)"
p103
sI57
S"response.write(response.flash or '')"
p104
sI58
S"response.write('</div> \\n       ', escape=False)"
p105
sI59
S'response.write("\\n<script>\\n$(document).ready(function() { \\n   jQuery(\'.smarttable\').dataTable(); \\n   ", escape=False)'
p106
sI60
S'if not form.errors:'
p107
sI61
S'    response.write("jQuery(\'#form\').hide();", escape=False)'
p108
sI62
S'    pass'
p109
sI63
S'response.write(\'\\n});\\n</script>\\n<h1>List accounts</h1>\\n\\n[<a href="#nil" onclick="jQuery(\\\'#form\\\').slideToggle();">toggle</a>]\\n<div id="form">\\n<h2>New account</h2>\\n\', escape=False)'
p110
ssg83
S'()'
p111
sg85
S'<module>'
p112
sasS'pyver'
p113
S'Python 2.7.9: C:\\WEB2PY\\EXE_RP\\web2py\\web2py.exe (prefix: C:\\Python27)'
p114
sS'session'
p115
g57
(S's0\x0b\x00\x00<div><table><tr><td style="font-weight:bold;vertical-align:top;">auth</td><td style="vertical-align:top;">:</td><td><div><table><tr><td style="font-weight:bold;vertical-align:top;">expiration</td><td style="vertical-align:top;">:</td><td><div>2592000</div></td></tr><tr><td style="font-weight:bold;vertical-align:top;">hmac_key</td><td style="vertical-align:top;">:</td><td><div>bacd85e9-dab3-451a-9f53-b1bbee46288b</div></td></tr><tr><td style="font-weight:bold;vertical-align:top;">last_visit</td><td style="vertical-align:top;">:</td><td><div>datetime.datetime(2016, 5, 16, 19, 50, 48, 412000)</div></td></tr><tr><td style="font-weight:bold;vertical-align:top;">remember_me</td><td style="vertical-align:top;">:</td><td><div>True</div></td></tr><tr><td style="font-weight:bold;vertical-align:top;">user</td><td style="vertical-align:top;">:</td><td><div><table><tr><td style="font-weight:bold;vertical-align:top;">email</td><td style="vertical-align:top;">:</td><td><div>p@p.pp</div></td></tr><tr><td style="font-weight:bold;vertical-align:top;">first_name</td><td style="vertical-align:top;">:</td><td><div>p</div></td></tr><tr><td style="font-weight:bold;vertical-align:top;">id</td><td style="vertical-align:top;">:</td><td><div>2L</div></td></tr><tr><td style="font-weight:bold;vertical-align:top;">last_name</td><td style="vertical-align:top;">:</td><td><div>p</div></td></tr><tr><td style="font-weight:bold;vertical-align:top;">registration_id</td><td style="vertical-align:top;">:</td><td><div></div></td></tr><tr><td style="font-weight:bold;vertical-align:top;">registration_key</td><td style="vertical-align:top;">:</td><td><div></div></td></tr><tr><td style="font-weight:bold;vertical-align:top;">reset_password_key</td><td style="vertical-align:top;">:</td><td><div></div></td></tr></table></div></td></tr><tr><td style="font-weight:bold;vertical-align:top;">user_groups</td><td style="vertical-align:top;">:</td><td><div><table><tr><td style="font-weight:bold;vertical-align:top;">2</td><td style="vertical-align:top;">:</td><td><div>user_2</div></td></tr></table></div></td></tr></table></div></td></tr><tr><td style="font-weight:bold;vertical-align:top;">flash</td><td style="vertical-align:top;">:</td><td><div>None</div></td></tr><tr><td style="font-weight:bold;vertical-align:top;">recent_accounts</td><td style="vertical-align:top;">:</td><td><div><table></table></div></td></tr><tr><td style="font-weight:bold;vertical-align:top;">recent_companies</td><td style="vertical-align:top;">:</td><td><div><table></table></div></td></tr><tr><td style="font-weight:bold;vertical-align:top;">recent_persons</td><td style="vertical-align:top;">:</td><td><div><table></table></div></td></tr><tr><td style="font-weight:bold;vertical-align:top;">recent_tasks</td><td style="vertical-align:top;">:</td><td><div><table></table></div></td></tr></table></div>'
tRp116
sS'etype'
p117
S"<type 'exceptions.NameError'>"
p118
sS'date'
p119
S'Mon May 16 20:02:03 2016'
p120
sS'response'
p121
g57
(S's\x06B\x00\x00<div><table><tr><td style="font-weight:bold;vertical-align:top;">body</td><td style="vertical-align:top;">:</td><td><div>&lt;cStringIO.StringO object at 0x0868D380&gt;</div></td></tr><tr><td style="font-weight:bold;vertical-align:top;">cookies</td><td style="vertical-align:top;">:</td><td><div><table><tr><td style="font-weight:bold;vertical-align:top;">session_id_addfinv3</td><td style="vertical-align:top;">:</td><td><div>127.0.0.1-fcdbc3a9-e9fc-4298-8f1e-f82c70e71d97<table><tr><td style="font-weight:bold;vertical-align:top;">comment</td><td style="vertical-align:top;">:</td><td><div></div></td></tr><tr><td style="font-weight:bold;vertical-align:top;">domain</td><td style="vertical-align:top;">:</td><td><div></div></td></tr><tr><td style="font-weight:bold;vertical-align:top;">expires</td><td style="vertical-align:top;">:</td><td><div></div></td></tr><tr><td style="font-weight:bold;vertical-align:top;">httponly</td><td style="vertical-align:top;">:</td><td><div></div></td></tr><tr><td style="font-weight:bold;vertical-align:top;">max-age</td><td style="vertical-align:top;">:</td><td><div></div></td></tr><tr><td style="font-weight:bold;vertical-align:top;">path</td><td style="vertical-align:top;">:</td><td><div>/</div></td></tr><tr><td style="font-weight:bold;vertical-align:top;">secure</td><td style="vertical-align:top;">:</td><td><div></div></td></tr><tr><td style="font-weight:bold;vertical-align:top;">version</td><td style="vertical-align:top;">:</td><td><div></div></td></tr></table></div></td></tr></table></div></td></tr><tr><td style="font-weight:bold;vertical-align:top;">delimiters</td><td style="vertical-align:top;">:</td><td><div><table><tr><td><div>{{</div></td></tr><tr><td><div>}}</div></td></tr></table></div></td></tr><tr><td style="font-weight:bold;vertical-align:top;">files</td><td style="vertical-align:top;">:</td><td><div><table><tr><td><div>/AddfinV3/static/jquery.js</div></td></tr><tr><td><div>/AddfinV3/static/calendar.css</div></td></tr><tr><td><div>/AddfinV3/static/calendar.js</div></td></tr><tr><td><div>/AddfinV3/static/jquery.dataTables.min.js</div></td></tr><tr><td><div>/AddfinV3/static/demo_table.css</div></td></tr><tr><td><div>/AddfinV3/static/Oxidation/style.css</div></td></tr></table></div></td></tr><tr><td style="font-weight:bold;vertical-align:top;">flash</td><td style="vertical-align:top;">:</td><td><div></div></td></tr><tr><td style="font-weight:bold;vertical-align:top;">form_label_separator</td><td style="vertical-align:top;">:</td><td><div>: </div></td></tr><tr><td style="font-weight:bold;vertical-align:top;">formstyle</td><td style="vertical-align:top;">:</td><td><div>table3cols</div></td></tr><tr><td style="font-weight:bold;vertical-align:top;">generic_patterns</td><td style="vertical-align:top;">:</td><td><div><table><tr><td><div>*</div></td></tr></table></div></td></tr><tr><td style="font-weight:bold;vertical-align:top;">headers</td><td style="vertical-align:top;">:</td><td><div><table><tr><td style="font-weight:bold;vertical-align:top;">X-Powered-By</td><td style="vertical-align:top;">:</td><td><div>web2py</div></td></tr></table></div></td></tr><tr><td style="font-weight:bold;vertical-align:top;">menu</td><td style="vertical-align:top;">:</td><td><div><table><tr><td><div><table><tr><td><div>Companies</div></td></tr><tr><td><div>False</div></td></tr><tr><td><div>/AddfinV3/default/list_companies</div></td></tr></table></div></td></tr><tr><td><div><table><tr><td><div>Contacts</div></td></tr><tr><td><div>False</div></td></tr><tr><td><div>/AddfinV3/default/list_persons</div></td></tr></table></div></td></tr><tr><td><div><table><tr><td><div>Tasks</div></td></tr><tr><td><div>False</div></td></tr><tr><td><div>/AddfinV3/default/list_tasks</div></td></tr></table></div></td></tr><tr><td><div><table><tr><td><div>Accounts</div></td></tr><tr><td><div>False</div></td></tr><tr><td><div>/AddfinV3/default/list_accounts</div></td></tr></table></div></td></tr><tr><td><div><table><tr><td><div>accounts_bugs</div></td></tr><tr><td><div>False</div></td></tr><tr><td><div>/AddfinV3/default/list_accounts_bugs</div></td></tr></table></div></td></tr><tr><td><div><table><tr><td><div>accounts_cases</div></td></tr><tr><td><div>False</div></td></tr><tr><td><div>/AddfinV3/default/list_accounts_cases</div></td></tr></table></div></td></tr><tr><td><div><table><tr><td><div>accounts_contacts</div></td></tr><tr><td><div>False</div></td></tr><tr><td><div>/AddfinV3/default/list_accounts_contacts</div></td></tr></table></div></td></tr><tr><td><div><table><tr><td><div>accounts_cstm</div></td></tr><tr><td><div>False</div></td></tr><tr><td><div>/AddfinV3/default/list_accounts_cstm</div></td></tr></table></div></td></tr><tr><td><div><table><tr><td><div>accounts_opportunities</div></td></tr><tr><td><div>False</div></td></tr><tr><td><div>/AddfinV3/default/list_accounts_opportunities</div></td></tr></table></div></td></tr><tr><td><div><table><tr><td><div>acl_actions</div></td></tr><tr><td><div>False</div></td></tr><tr><td><div>/AddfinV3/default/list_acl_actions</div></td></tr></table></div></td></tr><tr><td><div><table><tr><td><div>acl_roles</div></td></tr><tr><td><div>False</div></td></tr><tr><td><div>/AddfinV3/default/list_acl_roles</div></td></tr></table></div></td></tr><tr><td><div><table><tr><td><div>address_book</div></td></tr><tr><td><div>False</div></td></tr><tr><td><div>/AddfinV3/default/list_address_book</div></td></tr></table></div></td></tr><tr><td><div><table><tr><td><div>bugs</div></td></tr><tr><td><div>False</div></td></tr><tr><td><div>/AddfinV3/default/list_bugs</div></td></tr></table></div></td></tr><tr><td><div><table><tr><td><div>calls</div></td></tr><tr><td><div>False</div></td></tr><tr><td><div>/AddfinV3/default/list_calls</div></td></tr></table></div></td></tr><tr><td><div><table><tr><td><div>cases</div></td></tr><tr><td><div>False</div></td></tr><tr><td><div>/AddfinV3/default/list_cases</div></td></tr></table></div></td></tr><tr><td><div><table><tr><td><div>client_roles</div></td></tr><tr><td><div>False</div></td></tr><tr><td><div>/AddfinV3/default/list_client_roles</div></td></tr></table></div></td></tr><tr><td><div><table><tr><td><div>clientroles_accounts_c</div></td></tr><tr><td><div>False</div></td></tr><tr><td><div>/AddfinV3/default/list_clientroles_accounts_c</div></td></tr></table></div></td></tr><tr><td><div><table><tr><td><div>contacts</div></td></tr><tr><td><div>False</div></td></tr><tr><td><div>/AddfinV3/default/list_contacts</div></td></tr></table></div></td></tr><tr><td><div><table><tr><td><div>contacts_audit</div></td></tr><tr><td><div>False</div></td></tr><tr><td><div>/AddfinV3/default/list_contacts_audit</div></td></tr></table></div></td></tr><tr><td><div><table><tr><td><div>contacts_nxcaddfinportfolio_1_c</div></td></tr><tr><td><div>False</div></td></tr><tr><td><div>/AddfinV3/default/list_contacts_nxcaddfinportfolio_1_c</div></td></tr></table></div></td></tr><tr><td><div><table><tr><td><div>currencies</div></td></tr><tr><td><div>False</div></td></tr><tr><td><div>/AddfinV3/default/list_currencies</div></td></tr></table></div></td></tr><tr><td><div><table><tr><td><div>custom_fields</div></td></tr><tr><td><div>False</div></td></tr><tr><td><div>/AddfinV3/default/list_custom_fields</div></td></tr></table></div></td></tr><tr><td><div><table><tr><td><div>database_currencies</div></td></tr><tr><td><div>False</div></td></tr><tr><td><div>/AddfinV3/default/list_database_currencies</div></td></tr></table></div></td></tr><tr><td><div><table><tr><td><div>database_currencies_history</div></td></tr><tr><td><div>False</div></td></tr><tr><td><div>/AddfinV3/default/list_database_currencies_history</div></td></tr></table></div></td></tr><tr><td><div><table><tr><td><div>database_fundinfo</div></td></tr><tr><td><div>False</div></td></tr><tr><td><div>/AddfinV3/default/list_database_fundinfo</div></td></tr></table></div></td></tr><tr><td><div><table><tr><td><div>database_products</div></td></tr><tr><td><div>False</div></td></tr><tr><td><div>/AddfinV3/default/list_database_products</div></td></tr></table></div></td></tr><tr><td><div><table><tr><td><div>document_revisions</div></td></tr><tr><td><div>False</div></td></tr><tr><td><div>/AddfinV3/default/list_document_revisions</div></td></tr></table></div></td></tr><tr><td><div><table><tr><td><div>documents</div></td></tr><tr><td><div>False</div></td></tr><tr><td><div>/AddfinV3/default/list_documents</div></td></tr></table></div></td></tr><tr><td><div><table><tr><td><div>documents_accounts</div></td></tr><tr><td><div>False</div></td></tr><tr><td><div>/AddfinV3/default/list_documents_accounts</div></td></tr></table></div></td></tr><tr><td><div><table><tr><td><div>email_addresses</div></td></tr><tr><td><div>False</div></td></tr><tr><td><div>/AddfinV3/default/list_email_addresses</div></td></tr></table></div></td></tr><tr><td><div><table><tr><td><div>fields_meta_data</div></td></tr><tr><td><div>False</div></td></tr><tr><td><div>/AddfinV3/default/list_fields_meta_data</div></td></tr></table></div></td></tr><tr><td><div><table><tr><td><div>folders</div></td></tr><tr><td><div>False</div></td></tr><tr><td><div>/AddfinV3/default/list_folders</div></td></tr></table></div></td></tr><tr><td><div><table><tr><td><div>folders_rel</div></td></tr><tr><td><div>False</div></td></tr><tr><td><div>/AddfinV3/default/list_folders_rel</div></td></tr></table></div></td></tr><tr><td><div><table><tr><td><div>folders_subscriptions</div></td></tr><tr><td><div>False</div></td></tr><tr><td><div>/AddfinV3/default/list_folders_subscriptions</div></td></tr></table></div></td></tr><tr><td><div><table><tr><td><div>gii</div></td></tr><tr><td><div>False</div></td></tr><tr><td><div>/AddfinV3/default/list_gii</div></td></tr></table></div></td></tr><tr><td><div><table><tr><td><div>job_queue</div></td></tr><tr><td><div>False</div></td></tr><tr><td><div>/AddfinV3/default/list_job_queue</div></td></tr></table></div></td></tr><tr><td><div><table><tr><td><div>kbe_kube</div></td></tr><tr><td><div>False</div></td></tr><tr><td><div>/AddfinV3/default/list_kbe_kube</div></td></tr></table></div></td></tr><tr><td><div><table><tr><td><div>kbe_vqf</div></td></tr><tr><td><div>False</div></td></tr><tr><td><div>/AddfinV3/default/list_kbe_vqf</div></td></tr></table></div></td></tr><tr><td><div><table><tr><td><div>kreports</div></td></tr><tr><td><div>False</div></td></tr><tr><td><div>/AddfinV3/default/list_kreports</div></td></tr></table></div></td></tr><tr><td><div><table><tr><td><div>leads</div></td></tr><tr><td><div>False</div></td></tr><tr><td><div>/AddfinV3/default/list_leads</div></td></tr></table></div></td></tr><tr><td><div><table><tr><td><div>linked_documents</div></td></tr><tr><td><div>False</div></td></tr><tr><td><div>/AddfinV3/default/list_linked_documents</div></td></tr></table></div></td></tr></table></div></td></tr><tr><td style="font-weight:bold;vertical-align:top;">menu_auth</td><td style="vertical-align:top;">:</td><td><div><table><tr><td><div><table><tr><td><div>User: p</div></td></tr><tr><td><div>False</div></td></tr><tr><td><div>None</div></td></tr><tr><td><div><table><tr><td><div><table><tr><td><div>Logout</div></td></tr><tr><td><div>False</div></td></tr><tr><td><div>/AddfinV3/default/user/logout</div></td></tr></table></div></td></tr><tr><td><div><table><tr><td><div>Edit Profile</div></td></tr><tr><td><div>False</div></td></tr><tr><td><div>/AddfinV3/default/user/profile</div></td></tr></table></div></td></tr><tr><td><div><table><tr><td><div>Change Password</div></td></tr><tr><td><div>False</div></td></tr><tr><td><div>/AddfinV3/default/user/change_password</div></td></tr></table></div></td></tr></table></div></td></tr></table></div></td></tr></table></div></td></tr><tr><td style="font-weight:bold;vertical-align:top;">menu_edit</td><td style="vertical-align:top;">:</td><td><div><table><tr><td><div><table><tr><td><div>Edit</div></td></tr><tr><td><div>False</div></td></tr><tr><td><div>/admin/default/design/AddfinV3</div></td></tr><tr><td><div><table><tr><td><div><table><tr><td><div>Controller</div></td></tr><tr><td><div>False</div></td></tr><tr><td><div>/admin/default/edit/AddfinV3/controllers/default.py</div></td></tr></table></div></td></tr><tr><td><div><table><tr><td><div>View</div></td></tr><tr><td><div>False</div></td></tr><tr><td><div>/admin/default/edit/AddfinV3/views/default/list_accounts.html</div></td></tr></table></div></td></tr><tr><td><div><table><tr><td><div>Layout</div></td></tr><tr><td><div>False</div></td></tr><tr><td><div>/admin/default/edit/AddfinV3/views/layout.html</div></td></tr></table></div></td></tr><tr><td><div><table><tr><td><div>Stylesheet</div></td></tr><tr><td><div>False</div></td></tr><tr><td><div>/admin/default/edit/AddfinV3/static/base.css</div></td></tr></table></div></td></tr><tr><td><div><table><tr><td><div>DB Model</div></td></tr><tr><td><div>False</div></td></tr><tr><td><div>/admin/default/edit/AddfinV3/models/db.py</div></td></tr></table></div></td></tr><tr><td><div><table><tr><td><div>Menu Model</div></td></tr><tr><td><div>False</div></td></tr><tr><td><div>/admin/default/edit/AddfinV3/models/menu.py</div></td></tr></table></div></td></tr><tr><td><div><table><tr><td><div>Database</div></td></tr><tr><td><div>False</div></td></tr><tr><td><div>/AddfinV3/appadmin/index</div></td></tr></table></div></td></tr></table></div></td></tr></table></div></td></tr></table></div></td></tr><tr><td style="font-weight:bold;vertical-align:top;">meta</td><td style="vertical-align:top;">:</td><td><div><table></table></div></td></tr><tr><td style="font-weight:bold;vertical-align:top;">models_to_run</td><td style="vertical-align:top;">:</td><td><div><table><tr><td><div>^\\w+\\.py$</div></td></tr><tr><td><div>^default/\\w+\\.py$</div></td></tr><tr><td><div>^default/list_accounts/\\w+\\.py$</div></td></tr></table></div></td></tr><tr><td style="font-weight:bold;vertical-align:top;">postprocessing</td><td style="vertical-align:top;">:</td><td><div><table></table></div></td></tr><tr><td style="font-weight:bold;vertical-align:top;">session_client</td><td style="vertical-align:top;">:</td><td><div>127.0.0.1</div></td></tr><tr><td style="font-weight:bold;vertical-align:top;">session_cookie_compression_level</td><td style="vertical-align:top;">:</td><td><div>None</div></td></tr><tr><td style="font-weight:bold;vertical-align:top;">session_cookie_expires</td><td style="vertical-align:top;">:</td><td><div>2592000</div></td></tr><tr><td style="font-weight:bold;vertical-align:top;">session_cookie_key</td><td style="vertical-align:top;">:</td><td><div>None</div></td></tr><tr><td style="font-weight:bold;vertical-align:top;">session_data_name</td><td style="vertical-align:top;">:</td><td><div>session_data_addfinv3</div></td></tr><tr><td style="font-weight:bold;vertical-align:top;">session_file</td><td style="vertical-align:top;">:</td><td><div>&lt;open file &#x27;C:\\\\WEB2PY\\\\EXE_RP\\\\web2py\\\\applications\\\\AddfinV3\\\\sessions\\\\1fc\\\\126\\\\127.0.0.1-fcdbc3a9-e9fc-4298-8f1e-f82c70e71d97&#x27;, mode &#x27;rb+&#x27; at 0x03FC08B8&gt;</div></td></tr><tr><td style="font-weight:bold;vertical-align:top;">session_filename</td><td style="vertical-align:top;">:</td><td><div>C:\\WEB2PY\\EXE_RP\\web2py\\applications\\AddfinV3\\sessions\\127.0.0.1-fcdbc3a9-e9fc-4298-8f1e-f82c70e71d97</div></td></tr><tr><td style="font-weight:bold;vertical-align:top;">session_hash</td><td style="vertical-align:top;">:</td><td><div>1d241884c8621d5c96631ab8f202d171</div></td></tr><tr><td style="font-weight:bold;vertical-align:top;">session_id</td><td style="vertical-align:top;">:</td><td><div>127.0.0.1-fcdbc3a9-e9fc-4298-8f1e-f82c70e71d97</div></td></tr><tr><td style="font-weight:bold;vertical-align:top;">session_id_name</td><td style="vertical-align:top;">:</td><td><div>session_id_addfinv3</div></td></tr><tr><td style="font-weight:bold;vertical-align:top;">session_locked</td><td style="vertical-align:top;">:</td><td><div>True</div></td></tr><tr><td style="font-weight:bold;vertical-align:top;">session_masterapp</td><td style="vertical-align:top;">:</td><td><div>AddfinV3</div></td></tr><tr><td style="font-weight:bold;vertical-align:top;">session_new</td><td style="vertical-align:top;">:</td><td><div>False</div></td></tr><tr><td style="font-weight:bold;vertical-align:top;">session_storage_type</td><td style="vertical-align:top;">:</td><td><div>file</div></td></tr><tr><td style="font-weight:bold;vertical-align:top;">status</td><td style="vertical-align:top;">:</td><td><div>200</div></td></tr><tr><td style="font-weight:bold;vertical-align:top;">subtitle</td><td style="vertical-align:top;">:</td><td><div>customize me!</div></td></tr><tr><td style="font-weight:bold;vertical-align:top;">title</td><td style="vertical-align:top;">:</td><td><div>AddfinV3</div></td></tr><tr><td style="font-weight:bold;vertical-align:top;">view</td><td style="vertical-align:top;">:</td><td><div>default/list_accounts.html</div></td></tr></table></div>'
tRp122
sS'locals'
p123
(dp124
S'Service'
p125
S"<class 'gluon.tools.Service'>"
p126
sS'OBJECT'
p127
S"<class 'gluon.html.OBJECT'>"
p128
sS'_file'
p129
S"'/AddfinV3/static/Oxidation/style.css'"
p130
sS'SQLDB'
p131
S"<class 'pydal.base.DAL'>"
p132
sg115
S"<Storage {'recent_companies': [], '_formkey[curr...4108-866b-f6981196d24f'], 'recent_accounts': []}>"
p133
sS'LINK'
p134
S"<class 'gluon.html.LINK'>"
p135
sS'BR'
p136
S"<class 'gluon.html.BR'>"
p137
sS'local_import'
p138
S'<function <lambda>>'
p139
sS'OPTGROUP'
p140
S"<class 'gluon.html.OPTGROUP'>"
p141
sS'__package__'
p142
S'None'
p143
sS'PRE'
p144
S"<class 'gluon.html.PRE'>"
p145
sS'IS_INT_IN_RANGE'
p146
S"<class 'gluon.validators.IS_INT_IN_RANGE'>"
p147
sS'IS_LOWER'
p148
S"<class 'gluon.validators.IS_LOWER'>"
p149
sS'IS_STRONG'
p150
S"<class 'gluon.validators.IS_STRONG'>"
p151
sS'Recaptcha'
p152
S"<class 'gluon.tools.Recaptcha'>"
p153
sS'cache'
p154
S'<gluon.cache.Cache object>'
p155
sS'IS_IN_DB'
p156
S"<class 'gluon.validators.IS_IN_DB'>"
p157
sS'TAG'
p158
S'<gluon.html.__TAG__ object>'
p159
sS'_k'
p160
S'5'
sS'SQLField'
p161
S"<class 'pydal.objects.Field'>"
p162
sS'BODY'
p163
S"<class 'gluon.html.BODY'>"
p164
sS'IS_DATE_IN_RANGE'
p165
S"<class 'gluon.validators.IS_DATE_IN_RANGE'>"
p166
sS'IFRAME'
p167
S"<class 'gluon.html.IFRAME'>"
p168
sS'URL'
p169
S'<function URL>'
p170
sS'__file__'
p171
S"r'C:\\WEB2PY\\EXE_RP\\web2py\\applications\\AddfinV3\\views\\default/list_accounts.html'"
p172
sS'db'
p173
S'<DAL uri="sqlite://storage.sqlite">'
p174
sS'auth'
p175
S'<gluon.tools.Auth object>'
p176
sS'P'
S"<class 'gluon.html.P'>"
p177
sS'TFOOT'
p178
S"<class 'gluon.html.TFOOT'>"
p179
sS'XHTML'
p180
S"<class 'gluon.html.XHTML'>"
p181
sS'ON'
p182
S'True'
p183
sS'OL'
p184
S"<class 'gluon.html.OL'>"
p185
sS'TEXTAREA'
p186
S"<class 'gluon.html.TEXTAREA'>"
p187
sS'MENU'
p188
S"<class 'gluon.html.MENU'>"
p189
sS'button'
p190
S'<function button>'
p191
sS'IS_IMAGE'
p192
S"<class 'gluon.validators.IS_IMAGE'>"
p193
sS'reverse_geocode'
p194
S'<function reverse_geocode>'
p195
sS'EM'
p196
S"<class 'gluon.html.EM'>"
p197
sS'CODE'
p198
S"<class 'gluon.html.CODE'>"
p199
sS'HTTP'
p200
S"<class 'gluon.http.HTTP'>"
p201
sS'HR'
p202
S"<class 'gluon.html.HR'>"
p203
sS'IS_DATETIME'
p204
S"<class 'gluon.validators.IS_DATETIME'>"
p205
sS'STYLE'
p206
S"<class 'gluon.html.STYLE'>"
p207
sS'LABEL'
p208
S"<class 'gluon.html.LABEL'>"
p209
sS'CLEANUP'
p210
S"<class 'gluon.validators.CLEANUP'>"
p211
sS'SELECT'
p212
S"<class 'gluon.html.SELECT'>"
p213
sS'CENTER'
p214
S"<class 'gluon.html.CENTER'>"
p215
sS'prettydate'
p216
S'<function prettydate>'
p217
sS'Crud'
p218
S"<class 'gluon.tools.Crud'>"
p219
sS'Auth'
p220
S"<class 'gluon.tools.Auth'>"
p221
sS'__builtins__'
p222
S"{'ArithmeticError': <type 'exceptions.ArithmeticError'>, 'AssertionError': <type 'exceptions.AssertionError'>, 'AttributeError': <type 'exceptions.AttributeError'>, 'BaseException': <type 'exceptions.BaseException'>, 'BufferError': <type 'exceptions.BufferError'>, 'BytesWarning': <type 'exceptions.BytesWarning'>, 'DeprecationWarning': <type 'exceptions.DeprecationWarning'>, 'EOFError': <type 'exceptions.EOFError'>, 'Ellipsis': Ellipsis, 'EnvironmentError': <type 'exceptions.EnvironmentError'>, ...}"
p223
sS'HTML'
p224
S"<class 'gluon.html.HTML'>"
p225
sS'SQLFORM'
p226
S"<class 'gluon.sqlhtml.SQLFORM'>"
p227
sS'LOAD'
p228
S'<function LOAD>'
p229
sS'redirect'
p230
S'<function redirect>'
p231
sS'FIELDSET'
p232
S"<class 'gluon.html.FIELDSET'>"
p233
sS'IS_EQUAL_TO'
p234
S"<class 'gluon.validators.IS_EQUAL_TO'>"
p235
sS'embed64'
p236
S'<function embed64>'
p237
sS'link_person'
p238
S'<function link_person>'
p239
sS'IS_LIST_OF'
p240
S"<class 'gluon.validators.IS_LIST_OF'>"
p241
sS'INPUT'
p242
S"<class 'gluon.html.INPUT'>"
p243
sS'EMBED'
p244
S"<class 'gluon.html.EMBED'>"
p245
sS'H2'
p246
S"<class 'gluon.html.H2'>"
p247
sS'H3'
p248
S"<class 'gluon.html.H3'>"
p249
sS'BUTTON'
p250
S"<class 'gluon.html.BUTTON'>"
p251
sS'H1'
p252
S"<class 'gluon.html.H1'>"
p253
sS'H6'
p254
S"<class 'gluon.html.H6'>"
p255
sS'H4'
p256
S"<class 'gluon.html.H4'>"
p257
sS'H5'
p258
S"<class 'gluon.html.H5'>"
p259
sS'UL'
p260
S"<class 'gluon.html.UL'>"
p261
sS'IS_UPPER'
p262
S"<class 'gluon.validators.IS_UPPER'>"
p263
sS'xmlescape'
p264
S'<function xmlescape>'
p265
sS'IS_TIME'
p266
S"<class 'gluon.validators.IS_TIME'>"
p267
sS'OPTION'
p268
S"<class 'gluon.html.OPTION'>"
p269
sS'TITLE'
p270
S"<class 'gluon.html.TITLE'>"
p271
sS'CRYPT'
p272
S"<class 'gluon.validators.CRYPT'>"
p273
sS'IS_EMPTY_OR'
p274
S"<class 'gluon.validators.IS_EMPTY_OR'>"
p275
sS'MARKMIN'
p276
S"<class 'gluon.html.MARKMIN'>"
p277
sS'Recaptcha2'
p278
S"<class 'gluon.tools.Recaptcha2'>"
p279
sS'accounts'
p280
S'<Rows (0)>'
p281
sS'__name__'
p282
S"'__restricted__'"
p283
sS'STRONG'
p284
S"<class 'gluon.html.STRONG'>"
p285
sS'COL'
p286
S"<class 'gluon.html.COL'>"
p287
sS'service'
p288
S'<gluon.tools.Service object>'
p289
sS'SCRIPT'
p290
S"<class 'gluon.html.SCRIPT'>"
p291
sS'is_phone'
p292
S'<gluon.validators.IS_MATCH object>'
p293
sS'geocode'
p294
S'<function geocode>'
p295
sS'TABLE'
p296
S"<class 'gluon.html.TABLE'>"
p297
sS'IS_IPV4'
p298
S"<class 'gluon.validators.IS_IPV4'>"
p299
sS'IS_LENGTH'
p300
S"<class 'gluon.validators.IS_LENGTH'>"
p301
sS'IS_IPV6'
p302
S"<class 'gluon.validators.IS_IPV6'>"
p303
sS'XML'
p304
S"<class 'gluon.html.XML'>"
p305
sS'Wiki'
p306
S"<class 'gluon.tools.Wiki'>"
p307
sS'B'
S"<class 'gluon.html.B'>"
p308
sS'IMG'
p309
S"<class 'gluon.html.IMG'>"
p310
sS'SQLTABLE'
p311
S"<class 'gluon.sqlhtml.SQLTABLE'>"
p312
sS'IS_MATCH'
p313
S"<class 'gluon.validators.IS_MATCH'>"
p314
sS'IS_ALPHANUMERIC'
p315
S"<class 'gluon.validators.IS_ALPHANUMERIC'>"
p316
sS'me'
p317
S'2L'
p318
sS'SPAN'
p319
S"<class 'gluon.html.SPAN'>"
p320
sS'IS_JSON'
p321
S"<class 'gluon.validators.IS_JSON'>"
p322
sS'IS_IPADDRESS'
p323
S"<class 'gluon.validators.IS_IPADDRESS'>"
p324
sS'IS_SLUG'
p325
S"<class 'gluon.validators.IS_SLUG'>"
p326
sS'BEAUTIFY'
p327
S"<class 'gluon.html.BEAUTIFY'>"
p328
sS'META'
p329
S"<class 'gluon.html.META'>"
p330
sS'fetch'
p331
S'<function fetch>'
p332
sS'link_company'
p333
S'<function link_company>'
p334
sS'IS_DATE'
p335
S"<class 'gluon.validators.IS_DATE'>"
p336
sS'IS_EMAIL'
p337
S"<class 'gluon.validators.IS_EMAIL'>"
p338
sS'IS_NOT_EMPTY'
p339
S"<class 'gluon.validators.IS_NOT_EMPTY'>"
p340
sS'IS_FLOAT_IN_RANGE'
p341
S"<class 'gluon.validators.IS_FLOAT_IN_RANGE'>"
p342
sS'TBODY'
p343
S"<class 'gluon.html.TBODY'>"
p344
sS'CAT'
p345
S"<class 'gluon.html.CAT'>"
p346
sS'Field'
p347
S"<class 'pydal.objects.Field'>"
p348
sS'tag'
p349
S'<function tag>'
p350
sS'IS_LIST_OF_EMAILS'
p351
S"<class 'gluon.validators.IS_LIST_OF_EMAILS'>"
p352
sS'Mail'
p353
S"<class 'gluon.tools.Mail'>"
p354
sS'DIV'
p355
S"<class 'gluon.html.DIV'>"
p356
sS'LEGEND'
p357
S"<class 'gluon.html.LEGEND'>"
p358
sS'form'
p359
S'<gluon.sqlhtml.SQLFORM object>'
p360
sS'COLGROUP'
p361
S"<class 'gluon.html.COLGROUP'>"
p362
sS'DAL'
p363
S"<class 'pydal.base.DAL'>"
p364
sS'ASSIGNJS'
p365
S'<function ASSIGNJS>'
p366
sS'TR'
p367
S"<class 'gluon.html.TR'>"
p368
sS'LI'
p369
S"<class 'gluon.html.LI'>"
p370
sS'TH'
p371
S"<class 'gluon.html.TH'>"
p372
sS'TD'
p373
S"<class 'gluon.html.TD'>"
p374
sS'PluginManager'
p375
S"<class 'gluon.tools.PluginManager'>"
p376
sS'IS_URL'
p377
S"<class 'gluon.validators.IS_URL'>"
p378
sS'A'
S"<class 'gluon.html.A'>"
p379
sS'HEAD'
p380
S"<class 'gluon.html.HEAD'>"
p381
sS'IS_DATETIME_IN_RANGE'
p382
S"<class 'gluon.validators.IS_DATETIME_IN_RANGE'>"
p383
sS'FORM'
p384
S"<class 'gluon.html.FORM'>"
p385
sS'I'
S"<class 'gluon.html.I'>"
p386
sS'crud'
p387
S'<gluon.tools.Crud object>'
p388
sS'tag_cloud'
p389
S'<function tag_cloud>'
p390
sS'IS_NOT_IN_DB'
p391
S"<class 'gluon.validators.IS_NOT_IN_DB'>"
p392
sg121
S"<Storage {'body': <cStringIO.StringO object at 0...03FE34F0>, 'view': 'default/list_accounts.html'}>"
p393
sS'THEAD'
p394
S"<class 'gluon.html.THEAD'>"
p395
sS'ANY_OF'
p396
S"<class 'gluon.validators.ANY_OF'>"
p397
sS'IS_NULL_OR'
p398
S"<class 'gluon.validators.IS_EMPTY_OR'>"
p399
sS'TASK_TYPES'
p400
S"('Phone', 'Fax', 'Mail', 'Meet')"
p401
sS'url'
p402
S'<function url>'
p403
sg56
S"<Storage {'_vars': <Storage {}>, 'function': 'li...B2PY\\\\EXE_RP\\\\web2py\\\\applications\\\\AddfinV3\\\\'}>"
p404
sS'IS_EXPR'
p405
S"<class 'gluon.validators.IS_EXPR'>"
p406
sS'T'
S'<gluon.languages.translator object>'
p407
sS'IS_IN_SET'
p408
S"<class 'gluon.validators.IS_IN_SET'>"
p409
sS'IS_UPLOAD_FILENAME'
p410
S"<class 'gluon.validators.IS_UPLOAD_FILENAME'>"
p411
sS'TT'
p412
S"<class 'gluon.html.TT'>"
p413
sS'IS_DECIMAL_IN_RANGE'
p414
S"<class 'gluon.validators.IS_DECIMAL_IN_RANGE'>"
p415
sssS'traceback'
p416
S'Traceback (most recent call last):\n  File "C:\\WEB2PY\\EXE_RP\\web2py\\gluon\\restricted.py", line 227, in restricted\n    exec ccode in environment\n  File "C:\\WEB2PY\\EXE_RP\\web2py\\applications\\AddfinV3\\views\\default/list_accounts.html", line 66, in <module>\nNameError: name \'contacts\' is not defined\n'
p417
s.