(dp1
S'output'
p2
S"<type 'exceptions.NameError'> name 'address_book' is not defined"
p3
sS'layer'
p4
S'C:\\WEB2PY\\EXE_RP\\web2py\\applications\\AddfinV4\\views\\default/list_crm_contacts.html'
p5
sS'code'
p6
S'response.files.append(URL(r=request,c=\'static\',f=\'jquery.dataTables.min.js\'))\nresponse.write(\'\\r\\n\\r\\n\\r\\n\\r\\n\', escape=False)\nresponse.files.append(URL(r=request,c=\'static\',f=\'demo_table.css\'))\nresponse.write(\'\\r\\n\\r\\n\\r\\n\\r\\n\', escape=False)\nresponse.write(\'<!DOCTYPE html PUBLIC "-//W3C//DTD XHTML 1.0 Strict//EN" "http://www.w3.org/TR/xhtml1/DTD/xhtml1-strict.dtd">\\n<!--\\nDesign by Free CSS Templates\\nhttp://www.freecsstemplates.org\\nReleased for free under a Creative Commons Attribution 2.5 License\\n\\nName       : Oxidation\\nDescription: A two-column, fixed-width design for small websites and blogs.\\nVersion    : 1.0\\nReleased   : 20071229\\nlayout for main views dir\\n\\n-->\\n<html xmlns="http://www.w3.org/1999/xhtml">\\n <head>\\n  <title>\\xf0\\x9f\\x93\\x88Addfinwealth</title>\\n  <link rel="shortcut icon" href="company_logo.ico" type="image/x-icon" />\\n  \', escape=False)\nresponse.files.append(URL(request.application,\'static\',\'Oxidation/style.css\'))\nresponse.write(\'\\n\', escape=False)\nresponse.files.insert(0,URL(r=request,c=\'static\',f=\'jquery.js\'))\nresponse.files.insert(1,URL(r=request,c=\'static\',f=\'calendar.css\'))\nresponse.files.insert(2,URL(r=request,c=\'static\',f=\'calendar.js\'))\nfor _item in response.meta or []:\n    response.write(\'\\n     <meta name="\', escape=False)\n    response.write(_item)\n    response.write(\'" content="\', escape=False)\n    response.write(response.meta[_item])\n    response.write(\'" />\', escape=False)\n    pass\nfor _k,_file in enumerate(response.files or []):\n    if _file in response.files[:_k]:\n        continue\n    elif _file[-4:].lower()==\'.css\':\n        response.write(\'\\n     <link href="\', escape=False)\n        response.write(_file)\n        response.write(\'" rel="stylesheet" type="text/css" charset="utf-8" />\', escape=False)\n    elif _file[-3:].lower()==\'.js\':\n        response.write(\'\\n     <script src="\', escape=False)\n        response.write(_file)\n        response.write(\'" type="text/javascript"></script>\', escape=False)\n        pass\n    pass\nresponse.write(\'\\n<script type="text/javascript"><!--\\nfunction popup(url) {\\n  newwindow=window.open(url,\\\'name\\\',\\\'height=400,width=600\\\');\\n  if (window.focus) newwindow.focus();\\n  return false;\\n}\\nfunction collapse(id) { jQuery(\\\'#\\\'+id).slideToggle(); }\\nfunction fade(id,value) { if(value>0) jQuery(\\\'#\\\'+id).hide().fadeIn(\\\'slow\\\'); else jQuery(\\\'#\\\'+id).show().fadeOut(\\\'slow\\\'); }\\nfunction ajax(u,s,t) {\\n  var query="";\\n  for(i=0; i<s.length; i++) { \\n     if(i>0) query=query+"&";\\n     query=query+encodeURIComponent(s[i])+"="+encodeURIComponent(document.getElementById(s[i]).value);\\n  }\\n  jQuery.ajax({type: "POST", url: u, data: query, success: function(msg) { if(t==\\\':eval\\\') eval(msg); else document.getElementById(t).innerHTML=msg; } });  \\n}\\nString.prototype.reverse = function () { return this.split(\\\'\\\').reverse().join(\\\'\\\');};\\nfunction web2py_ajax_init() {\\n  jQuery(\\\'.hidden\\\').hide();\\n  jQuery(\\\'.error\\\').hide().slideDown(\\\'slow\\\');\\n  jQuery(\\\'.flash\\\').click(function() { jQuery(this).fadeOut(\\\'slow\\\'); return false; });\\n  jQuery(\\\'input.string\\\').attr(\\\'size\\\',50);\\n  jQuery(\\\'textarea.text\\\').attr(\\\'cols\\\',50).attr(\\\'rows\\\',10);\\n  jQuery(\\\'input.integer\\\').keyup(function(){this.value=this.value.reverse().replace(/[^0-9\\\\-]|\\\\-(?=.)/g,\\\'\\\').reverse();});\\n  jQuery(\\\'input.double\\\').keyup(function(){this.value=this.value.reverse().replace(/[^0-9\\\\-\\\\.]|[\\\\-](?=.)|[\\\\.](?=[0-9]*[\\\\.])/g,\\\'\\\').reverse();});\\n  jQuery(\\\'input.delete\\\').attr(\\\'onclick\\\',\\\'if(this.checked) if(!confirm("\', escape=False)\nresponse.write(T(\'Sure you want to delete this object?\'))\nresponse.write(\'")) this.checked=false;\\\');\\n  try {jQuery("input.date").focus( function() {Calendar.setup({\\n     inputField:this.id, ifFormat:"\', escape=False)\nresponse.write(T(\'%Y-%m-%d\'))\nresponse.write(\'", showsTime:false\\n  }); }); } catch(e) {};\\n  try { jQuery("input.datetime").focus( function() {Calendar.setup({\\n     inputField:this.id, ifFormat:"\', escape=False)\nresponse.write(T(\'%Y-%m-%d %H:%M:%S\'))\nresponse.write(\'", showsTime: true,timeFormat: "24"\\n  }); }); } catch(e) {};\\n  try { jQuery("input.time").clockpick({\\n      starthour:0, endhour:23, showminutes:true, military:true\\n  }); } catch(e) {};\\n};\\njQuery(document).ready(function(){\\n   jQuery(\\\'.flash\\\').hide();\\n   if(jQuery(\\\'.flash\\\').html()!=\\\'\\\') jQuery(\\\'.flash\\\').slideDown(\\\'slow\\\');\\n   web2py_ajax_init();});\\n\\nfunction web2py_trap_form(action,target) {\\n   jQuery(\\\'#\\\'+target+\\\' form\\\').each(function(i){\\n      var form=jQuery(this);\\n      jQuery(\\\'input[type="submit"]\\\',this).click(function(){\\n         jQuery(\\\'.flash\\\').hide().html(\\\'\\\');\\n         web2py_ajax_page(\\\'post\\\',action,form.serialize(),target);\\n         return false;\\n      });\\n   });\\n}\\nfunction web2py_ajax_page(method,action,data,target) {\\n  jQuery.ajax({\\\'type\\\':method,\\\'url\\\':action,\\\'data\\\':data,\\n    \\\'beforeSend\\\':function(xhr){\\n      xhr.setRequestHeader(\\\'web2py-component-location\\\',document.location);\\n      xhr.setRequestHeader(\\\'web2py-component-element\\\',target);},\\n    \\\'complete\\\':function(xhr,text){\\n      command=xhr.getResponseHeader(\\\'web2py-component-command\\\');\\n      if(command) eval(command);\\n      flash=xhr.getResponseHeader(\\\'web2py-component-flash\\\');\\n      if(flash) jQuery(\\\'.flash\\\').html(flash).slideDown();\\n      },\\n    \\\'success\\\': function(text) {\\n      jQuery(\\\'#\\\'+target).html(text);\\n      web2py_trap_form(action,target);\\n      web2py_ajax_init();\\n      }\\n    });\\n}\\nfunction web2py_component(action,target) {\\n    jQuery(document).ready(function(){ web2py_ajax_page(\\\'get\\\',action,null,target); });\\n}\\n//--></script>\\n\', escape=False)\nresponse.write(\'\\n </head>\\n <body>\\n  <div id="header">\\n   <div id="logo">\\n    <h1>\\n     Addfin.\\n    </h1>\\n    <h2>\\n     powered by <a href="http://addfinwealth.com">Addfin</a>\\n    </h2>\\n   </div>\\n   <div id="search">\\n    <form id="searchform" method="get" action="">\\n     <fieldset>\\n       [\\n       \', escape=False)\nif not auth.user:\n    response.write(\'\\n       <a href="\', escape=False)\n    response.write(URL(\'user/login\'))\n    response.write(\'">login</a>\\n       \', escape=False)\nelse:\n    response.write(\'\\n       \', escape=False)\n    response.write(auth.user.first_name)\n    response.write(\' |\\n       <a href="\', escape=False)\n    response.write(URL(\'user/logout\'))\n    response.write(\'">logout</a> |\\n       <a href="\', escape=False)\n    response.write(URL(\'user/change_password\'))\n    response.write(\'">password</a> |\\n       <a href="\', escape=False)\n    response.write(URL(\'user/profile\'))\n    response.write(\'">profile</a>\\n       \', escape=False)\n    pass\nresponse.write(\' ]\\n      <input id="searchquery" type="text" size="25" name="s" value="" />\\n      <input id="searchsubmit" type="submit" value="Search" />\\n     </fieldset>\\n    </form>\\n   </div>\\n  </div>\\n  <!-- end #header -->\\n  \\n<!-- <div id="menu"> -->\\n   <!-- \', escape=False)\nresponse.write(MENU(response.menu))\nresponse.write(\' -->\\n  <!-- </div> -->\\n  \\n  <!-- end #menu -->\\n  <div id="page">\\n   <div id="content">\\n     <div id="main">\\n        <div class="flash">\', escape=False)\nresponse.write(response.flash or \'\')\nresponse.write(\'</div> \\n       \', escape=False)\nresponse.write("\\r\\n\\r\\n\\r\\n\\r\\n<script>\\r\\n\\r\\n\\r\\n\\r\\n$(document).ready(function() { \\r\\n\\r\\n\\r\\n\\r\\n   jQuery(\'.smarttable\').dataTable(); \\r\\n\\r\\n\\r\\n\\r\\n   ", escape=False)\nif not form.errors:\n    response.write("jQuery(\'#form\').hide();", escape=False)\n    pass\nresponse.write(\'\\r\\n\\r\\n\\r\\n\\r\\n});\\r\\n\\r\\n\\r\\n\\r\\n</script>\\r\\n\\r\\n\\r\\n\\r\\n<h1>List address_books</h1>\\r\\n\\r\\n\\r\\n\\r\\n\\r\\n\\r\\n\\r\\n\\r\\n[<a href="#nil" onclick="jQuery(\\\'#form\\\').slideToggle();">toggle</a>]\\r\\n\\r\\n\\r\\n\\r\\n<div id="form">\\r\\n\\r\\n\\r\\n\\r\\n<h2>New address_book</h2>\\r\\n\\r\\n\\r\\n\\r\\n\', escape=False)\nresponse.write(form)\nresponse.write(\'\\r\\n\\r\\n\\r\\n\\r\\n</div>\\r\\n\\r\\n\\r\\n\\r\\n\\r\\n\\r\\n\\r\\n\\r\\n<br /><br />\\r\\n\\r\\n\\r\\n\\r\\n<table class="smarttable">\\r\\n\\r\\n\\r\\n\\r\\n<thead>\\r\\n\\r\\n\\r\\n\\r\\n    <tr>\\r\\n\\r\\n\\r\\n\\r\\n      <th>Name</th><th>Actions</th>\\r\\n\\r\\n\\r\\n\\r\\n    </tr>    \\r\\n\\r\\n\\r\\n\\r\\n</thead>\\r\\n\\r\\n\\r\\n\\r\\n<tbody>\\r\\n\\r\\n\\r\\n\\r\\n\', escape=False)\nfor address_booki in address_book:\n    response.write(\'\\r\\n\\r\\n\\r\\n\\r\\n    <tr>\\r\\n\\r\\n\\r\\n\\r\\n       <td>\', escape=False)\n    response.write(link_address_book(address_booki))\n    response.write(\'</td>   \\r\\n\\r\\n\\r\\n\\r\\n       <td>\', escape=False)\n    response.write(button(\'address_book\',\'list_address_book\',address_booki.id))\n    response.write(\'\\r\\n\\r\\n\\r\\n\\r\\n       \', escape=False)\n    response.write(button(\'edit\',\'edit_address_book\',address_booki.id))\n    response.write(\'</td>\\r\\n\\r\\n\\r\\n\\r\\n    </tr>\\r\\n\\r\\n\\r\\n\\r\\n\', escape=False)\n    pass\nresponse.write(\'\\r\\n\\r\\n\\r\\n\\r\\n</tbody>\\r\\n\\r\\n\\r\\n\\r\\n</table>\\r\\n\\r\\n\\r\\n\\r\\n\', escape=False)\nresponse.write(\'\\n     </div>\\n   </div>\\n   <!-- end content -->\\n   <!-- \', escape=False)\nleft_sidebar_enabled=True,right_sidebar_enabled=False,(\'message\' in globals())\nresponse.write(\' -->\\n\\n\\n     <div class="ez-box" id="left_sidebar">\\n            \', escape=False)\nresponse.write(\'\\n                \', escape=False)\nresponse.write(MENU(response.menu,_class=\'sf-menu\'))\nresponse.write(\'\\n            \', escape=False)\nresponse.write(\'    \\n            </div>\\n\\n   <div style="clear: both;">\\n    &nbsp;\\n   </div>\\n  </div>\\n  <!-- end page -->\\n  <div id="footer">\\n   <p class="legal">\\n    &copy;2016 All Rights Reserved.\\n   </p>\\n   <p class="credit">\\n    Design by\\n    <a href="http://www.addfinwealth.com/">\\n     Addfin\\n    </a>\\n   </p>\\n  </div>\\n </body>\\n</html>\\n\', escape=False)'
p7
sS'snapshot'
p8
(dp9
S'exception'
p10
(dp11
S'__hash__'
p12
S"<method-wrapper '__hash__' of exceptions.NameError object>"
p13
sS'__setattr__'
p14
S"<method-wrapper '__setattr__' of exceptions.NameError object>"
p15
sS'__reduce_ex__'
p16
S'<built-in method __reduce_ex__ of exceptions.NameError object>'
p17
sS'__getslice__'
p18
S"<method-wrapper '__getslice__' of exceptions.NameError object>"
p19
sS'__getitem__'
p20
S"<method-wrapper '__getitem__' of exceptions.NameError object>"
p21
sS'__setstate__'
p22
S'<built-in method __setstate__ of exceptions.NameError object>'
p23
sS'__reduce__'
p24
S'<built-in method __reduce__ of exceptions.NameError object>'
p25
sS'__str__'
p26
S"<method-wrapper '__str__' of exceptions.NameError object>"
p27
sS'__format__'
p28
S'<built-in method __format__ of exceptions.NameError object>'
p29
sS'__getattribute__'
p30
S"<method-wrapper '__getattribute__' of exceptions.NameError object>"
p31
sS'__class__'
p32
S"<type 'exceptions.NameError'>"
p33
sS'__unicode__'
p34
S'<built-in method __unicode__ of exceptions.NameError object>'
p35
sS'__delattr__'
p36
S"<method-wrapper '__delattr__' of exceptions.NameError object>"
p37
sS'__subclasshook__'
p38
S'<built-in method __subclasshook__ of type object>'
p39
sS'__repr__'
p40
S"<method-wrapper '__repr__' of exceptions.NameError object>"
p41
sS'args'
p42
S'("name \'address_book\' is not defined",)'
p43
sS'__dict__'
p44
S'{}'
p45
sS'__sizeof__'
p46
S'<built-in method __sizeof__ of exceptions.NameError object>'
p47
sS'__doc__'
p48
S"'Name not found globally.'"
p49
sS'__init__'
p50
S"<method-wrapper '__init__' of exceptions.NameError object>"
p51
sS'__new__'
p52
S'<built-in method __new__ of type object>'
p53
ssS'evalue'
p54
S"name 'address_book' is not defined"
p55
sS'request'
p56
cgluon.html
XML_unpickle
p57
(S's\x01m\x00\x00<div><table><tr><td style="font-weight:bold;vertical-align:top;">ajax</td><td style="vertical-align:top;">:</td><td><div>False</div></td></tr><tr><td style="font-weight:bold;vertical-align:top;">application</td><td style="vertical-align:top;">:</td><td><div>AddfinV4</div></td></tr><tr><td style="font-weight:bold;vertical-align:top;">args</td><td style="vertical-align:top;">:</td><td><div><table></table></div></td></tr><tr><td style="font-weight:bold;vertical-align:top;">cid</td><td style="vertical-align:top;">:</td><td><div>None</div></td></tr><tr><td style="font-weight:bold;vertical-align:top;">client</td><td style="vertical-align:top;">:</td><td><div>127.0.0.1</div></td></tr><tr><td style="font-weight:bold;vertical-align:top;">controller</td><td style="vertical-align:top;">:</td><td><div>default</div></td></tr><tr><td style="font-weight:bold;vertical-align:top;">cookies</td><td style="vertical-align:top;">:</td><td><div><table><tr><td style="font-weight:bold;vertical-align:top;">session_id_addfinv3</td><td style="vertical-align:top;">:</td><td><div>127.0.0.1-fcdbc3a9-e9fc-4298-8f1e-f82c70e71d97<table><tr><td style="font-weight:bold;vertical-align:top;">comment</td><td style="vertical-align:top;">:</td><td><div></div></td></tr><tr><td style="font-weight:bold;vertical-align:top;">domain</td><td style="vertical-align:top;">:</td><td><div></div></td></tr><tr><td style="font-weight:bold;vertical-align:top;">expires</td><td style="vertical-align:top;">:</td><td><div></div></td></tr><tr><td style="font-weight:bold;vertical-align:top;">httponly</td><td style="vertical-align:top;">:</td><td><div></div></td></tr><tr><td style="font-weight:bold;vertical-align:top;">max-age</td><td style="vertical-align:top;">:</td><td><div></div></td></tr><tr><td style="font-weight:bold;vertical-align:top;">path</td><td style="vertical-align:top;">:</td><td><div></div></td></tr><tr><td style="font-weight:bold;vertical-align:top;">secure</td><td style="vertical-align:top;">:</td><td><div></div></td></tr><tr><td style="font-weight:bold;vertical-align:top;">version</td><td style="vertical-align:top;">:</td><td><div></div></td></tr></table></div></td></tr><tr><td style="font-weight:bold;vertical-align:top;">session_id_addfinv4</td><td style="vertical-align:top;">:</td><td><div>127.0.0.1-23d38975-3e81-4d02-ab76-80195e6b0ee5<table><tr><td style="font-weight:bold;vertical-align:top;">comment</td><td style="vertical-align:top;">:</td><td><div></div></td></tr><tr><td style="font-weight:bold;vertical-align:top;">domain</td><td style="vertical-align:top;">:</td><td><div></div></td></tr><tr><td style="font-weight:bold;vertical-align:top;">expires</td><td style="vertical-align:top;">:</td><td><div></div></td></tr><tr><td style="font-weight:bold;vertical-align:top;">httponly</td><td style="vertical-align:top;">:</td><td><div></div></td></tr><tr><td style="font-weight:bold;vertical-align:top;">max-age</td><td style="vertical-align:top;">:</td><td><div></div></td></tr><tr><td style="font-weight:bold;vertical-align:top;">path</td><td style="vertical-align:top;">:</td><td><div></div></td></tr><tr><td style="font-weight:bold;vertical-align:top;">secure</td><td style="vertical-align:top;">:</td><td><div></div></td></tr><tr><td style="font-weight:bold;vertical-align:top;">version</td><td style="vertical-align:top;">:</td><td><div></div></td></tr></table></div></td></tr><tr><td style="font-weight:bold;vertical-align:top;">session_id_admin</td><td style="vertical-align:top;">:</td><td><div>127.0.0.1-5e898987-30a9-4264-af9a-4c03c9a6c05b<table><tr><td style="font-weight:bold;vertical-align:top;">comment</td><td style="vertical-align:top;">:</td><td><div></div></td></tr><tr><td style="font-weight:bold;vertical-align:top;">domain</td><td style="vertical-align:top;">:</td><td><div></div></td></tr><tr><td style="font-weight:bold;vertical-align:top;">expires</td><td style="vertical-align:top;">:</td><td><div></div></td></tr><tr><td style="font-weight:bold;vertical-align:top;">httponly</td><td style="vertical-align:top;">:</td><td><div></div></td></tr><tr><td style="font-weight:bold;vertical-align:top;">max-age</td><td style="vertical-align:top;">:</td><td><div></div></td></tr><tr><td style="font-weight:bold;vertical-align:top;">path</td><td style="vertical-align:top;">:</td><td><div></div></td></tr><tr><td style="font-weight:bold;vertical-align:top;">secure</td><td style="vertical-align:top;">:</td><td><div></div></td></tr><tr><td style="font-weight:bold;vertical-align:top;">version</td><td style="vertical-align:top;">:</td><td><div></div></td></tr></table></div></td></tr><tr><td style="font-weight:bold;vertical-align:top;">session_id_crmraw</td><td style="vertical-align:top;">:</td><td><div>127.0.0.1-c63ee9db-bf95-4c5c-9ba4-fb84ac052322<table><tr><td style="font-weight:bold;vertical-align:top;">comment</td><td style="vertical-align:top;">:</td><td><div></div></td></tr><tr><td style="font-weight:bold;vertical-align:top;">domain</td><td style="vertical-align:top;">:</td><td><div></div></td></tr><tr><td style="font-weight:bold;vertical-align:top;">expires</td><td style="vertical-align:top;">:</td><td><div></div></td></tr><tr><td style="font-weight:bold;vertical-align:top;">httponly</td><td style="vertical-align:top;">:</td><td><div></div></td></tr><tr><td style="font-weight:bold;vertical-align:top;">max-age</td><td style="vertical-align:top;">:</td><td><div></div></td></tr><tr><td style="font-weight:bold;vertical-align:top;">path</td><td style="vertical-align:top;">:</td><td><div></div></td></tr><tr><td style="font-weight:bold;vertical-align:top;">secure</td><td style="vertical-align:top;">:</td><td><div></div></td></tr><tr><td style="font-weight:bold;vertical-align:top;">version</td><td style="vertical-align:top;">:</td><td><div></div></td></tr></table></div></td></tr><tr><td style="font-weight:bold;vertical-align:top;">session_id_crmrawfullfields</td><td style="vertical-align:top;">:</td><td><div>127.0.0.1-d7a5baf1-f883-495c-9cff-631275da4bef<table><tr><td style="font-weight:bold;vertical-align:top;">comment</td><td style="vertical-align:top;">:</td><td><div></div></td></tr><tr><td style="font-weight:bold;vertical-align:top;">domain</td><td style="vertical-align:top;">:</td><td><div></div></td></tr><tr><td style="font-weight:bold;vertical-align:top;">expires</td><td style="vertical-align:top;">:</td><td><div></div></td></tr><tr><td style="font-weight:bold;vertical-align:top;">httponly</td><td style="vertical-align:top;">:</td><td><div></div></td></tr><tr><td style="font-weight:bold;vertical-align:top;">max-age</td><td style="vertical-align:top;">:</td><td><div></div></td></tr><tr><td style="font-weight:bold;vertical-align:top;">path</td><td style="vertical-align:top;">:</td><td><div></div></td></tr><tr><td style="font-weight:bold;vertical-align:top;">secure</td><td style="vertical-align:top;">:</td><td><div></div></td></tr><tr><td style="font-weight:bold;vertical-align:top;">version</td><td style="vertical-align:top;">:</td><td><div></div></td></tr></table></div></td></tr><tr><td style="font-weight:bold;vertical-align:top;">session_id_welcome</td><td style="vertical-align:top;">:</td><td><div>127.0.0.1-3135739e-a576-4745-b0d2-477214927d5e<table><tr><td style="font-weight:bold;vertical-align:top;">comment</td><td style="vertical-align:top;">:</td><td><div></div></td></tr><tr><td style="font-weight:bold;vertical-align:top;">domain</td><td style="vertical-align:top;">:</td><td><div></div></td></tr><tr><td style="font-weight:bold;vertical-align:top;">expires</td><td style="vertical-align:top;">:</td><td><div></div></td></tr><tr><td style="font-weight:bold;vertical-align:top;">httponly</td><td style="vertical-align:top;">:</td><td><div></div></td></tr><tr><td style="font-weight:bold;vertical-align:top;">max-age</td><td style="vertical-align:top;">:</td><td><div></div></td></tr><tr><td style="font-weight:bold;vertical-align:top;">path</td><td style="vertical-align:top;">:</td><td><div></div></td></tr><tr><td style="font-weight:bold;vertical-align:top;">secure</td><td style="vertical-align:top;">:</td><td><div></div></td></tr><tr><td style="font-weight:bold;vertical-align:top;">version</td><td style="vertical-align:top;">:</td><td><div></div></td></tr></table></div></td></tr></table></div></td></tr><tr><td style="font-weight:bold;vertical-align:top;">env</td><td style="vertical-align:top;">:</td><td><div><table><tr><td style="font-weight:bold;vertical-align:top;">HTTP_ACCEPT</td><td style="vertical-align:top;">:</td><td><div>text/html,application/xhtml+xml,application/xml;q=0.9,image/webp,*/*;q=0.8</div></td></tr><tr><td style="font-weight:bold;vertical-align:top;">HTTP_ACCEPT_ENCODING</td><td style="vertical-align:top;">:</td><td><div>gzip, deflate, sdch</div></td></tr><tr><td style="font-weight:bold;vertical-align:top;">HTTP_ACCEPT_LANGUAGE</td><td style="vertical-align:top;">:</td><td><div>en-US,en;q=0.8,de-DE;q=0.6,de;q=0.4</div></td></tr><tr><td style="font-weight:bold;vertical-align:top;">HTTP_CONNECTION</td><td style="vertical-align:top;">:</td><td><div>keep-alive</div></td></tr><tr><td style="font-weight:bold;vertical-align:top;">HTTP_COOKIE</td><td style="vertical-align:top;">:</td><td><div>session_id_crmraw=127.0.0.1-c63ee9db-bf95-4c5c-9ba4-fb84ac052322; session_id_crmrawfullfields=127.0.0.1-d7a5baf1-f883-495c-9cff-631275da4bef; session_id_addfinv3=127.0.0.1-fcdbc3a9-e9fc-4298-8f1e-f82c70e71d97; session_id_welcome=127.0.0.1-3135739e-a576-4745-b0d2-477214927d5e; session_id_admin=127.0.0.1-5e898987-30a9-4264-af9a-4c03c9a6c05b; session_id_addfinv4=127.0.0.1-23d38975-3e81-4d02-ab76-80195e6b0ee5</div></td></tr><tr><td style="font-weight:bold;vertical-align:top;">HTTP_HOST</td><td style="vertical-align:top;">:</td><td><div>127.0.0.1:8000</div></td></tr><tr><td style="font-weight:bold;vertical-align:top;">HTTP_REFERER</td><td style="vertical-align:top;">:</td><td><div>http://127.0.0.1:8000/AddfinV4/default/index</div></td></tr><tr><td style="font-weight:bold;vertical-align:top;">HTTP_UPGRADE_INSECURE_REQUESTS</td><td style="vertical-align:top;">:</td><td><div>1</div></td></tr><tr><td style="font-weight:bold;vertical-align:top;">HTTP_USER_AGENT</td><td style="vertical-align:top;">:</td><td><div>Mozilla/5.0 (Windows NT 6.1; WOW64) AppleWebKit/537.36 (KHTML, like Gecko) Chrome/50.0.2661.94 Safari/537.36</div></td></tr><tr><td style="font-weight:bold;vertical-align:top;">PATH_INFO</td><td style="vertical-align:top;">:</td><td><div>/AddfinV4/default/list_crm_contacts</div></td></tr><tr><td style="font-weight:bold;vertical-align:top;">QUERY_STRING</td><td style="vertical-align:top;">:</td><td><div></div></td></tr><tr><td style="font-weight:bold;vertical-align:top;">REMOTE_ADDR</td><td style="vertical-align:top;">:</td><td><div>127.0.0.1</div></td></tr><tr><td style="font-weight:bold;vertical-align:top;">REMOTE_PORT</td><td style="vertical-align:top;">:</td><td><div>59549</div></td></tr><tr><td style="font-weight:bold;vertical-align:top;">REQUEST_METHOD</td><td style="vertical-align:top;">:</td><td><div>GET</div></td></tr><tr><td style="font-weight:bold;vertical-align:top;">SCRIPT_NAME</td><td style="vertical-align:top;">:</td><td><div></div></td></tr><tr><td style="font-weight:bold;vertical-align:top;">SERVER_NAME</td><td style="vertical-align:top;">:</td><td><div>RPBASE1</div></td></tr><tr><td style="font-weight:bold;vertical-align:top;">SERVER_PORT</td><td style="vertical-align:top;">:</td><td><div>8000</div></td></tr><tr><td style="font-weight:bold;vertical-align:top;">SERVER_PROTOCOL</td><td style="vertical-align:top;">:</td><td><div>HTTP/1.1</div></td></tr><tr><td style="font-weight:bold;vertical-align:top;">SERVER_SOFTWARE</td><td style="vertical-align:top;">:</td><td><div>Rocket 1.2.6</div></td></tr><tr><td style="font-weight:bold;vertical-align:top;">app_folders</td><td style="vertical-align:top;">:</td><td><div>set([&#x27;C:\\\\WEB2PY\\\\EXE_RP\\\\web2py\\\\applications\\\\admin\\\\&#x27;, &#x27;C:\\\\WEB2PY\\\\EXE_RP\\\\web2py\\\\applications\\\\AddfinV4\\\\&#x27;, &#x27;C:\\\\WEB2PY\\\\EXE_RP\\\\web2py\\\\applications\\\\welcome\\\\&#x27;])</div></td></tr><tr><td style="font-weight:bold;vertical-align:top;">applications_parent</td><td style="vertical-align:top;">:</td><td><div>C:\\WEB2PY\\EXE_RP\\web2py</div></td></tr><tr><td style="font-weight:bold;vertical-align:top;">cmd_args</td><td style="vertical-align:top;">:</td><td><div><table></table></div></td></tr><tr><td style="font-weight:bold;vertical-align:top;">cmd_options</td><td style="vertical-align:top;">:</td><td><div>&lt;Values at 0x314d7b0: {&#x27;verbose&#x27;: False, &#x27;ip&#x27;: &#x27;127.0.0.1&#x27;, &#x27;debuglevel&#x27;: 30, &#x27;with_scheduler&#x27;: False, &#x27;ips&#x27;: [], &#x27;shutdown_timeout&#x27;: 5, &#x27;taskbar&#x27;: False, &#x27;with_coverage&#x27;: False, &#x27;scheduler_groups&#x27;: None, &#x27;port&#x27;: 8000, &#x27;maxthreads&#x27;: None, &#x27;softcron&#x27;: False, &#x27;server_name&#x27;: &#x27;RPBASE1&#x27;, &#x27;bpython&#x27;: False, &#x27;nogui&#x27;: False, &#x27;pid_filename&#x27;: &#x27;httpserver.pid&#x27;, &#x27;print_errors&#x27;: False, &#x27;extcron&#x27;: False, &#x27;runcron&#x27;: False, &#x27;run_system_tests&#x27;: False, &#x27;test&#x27;: None, &#x27;folder&#x27;: &#x27;C:\\\\WEB2PY\\\\EXE_RP\\\\web2py&#x27;, &#x27;config&#x27;: &#x27;&#x27;, &#x27;minthreads&#x27;: None, &#x27;shell&#x27;: None, &#x27;run&#x27;: &#x27;&#x27;, &#x27;log_filename&#x27;: &#x27;httpserver.log&#x27;, &#x27;profiler_dir&#x27;: None, &#x27;args&#x27;: [&#x27;&#x27;], &#x27;socket_timeout&#x27;: 5, &#x27;ssl_ca_certificate&#x27;: None, &#x27;scheduler&#x27;: None, &#x27;interfaces&#x27;: None, &#x27;ssl_private_key&#x27;: &#x27;&#x27;, &#x27;gae&#x27;: None, &#x27;password&#x27;: &#x27;&lt;ask&gt;&#x27;, &#x27;request_queue_size&#x27;: 5, &#x27;ssl_certificate&#x27;: &#x27;&#x27;, &#x27;cronjob&#x27;: False, &#x27;numthreads&#x27;: None, &#x27;quiet&#x27;: False, &#x27;import_models&#x27;: False, &#x27;timeout&#x27;: 10, &#x27;plain&#x27;: False, &#x27;nobanner&#x27;: False}&gt;</div></td></tr><tr><td style="font-weight:bold;vertical-align:top;">db_sessions</td><td style="vertical-align:top;">:</td><td><div>set([])</div></td></tr><tr><td style="font-weight:bold;vertical-align:top;">debugging</td><td style="vertical-align:top;">:</td><td><div>False</div></td></tr><tr><td style="font-weight:bold;vertical-align:top;">gluon_parent</td><td style="vertical-align:top;">:</td><td><div>C:\\WEB2PY\\EXE_RP\\web2py</div></td></tr><tr><td style="font-weight:bold;vertical-align:top;">http_accept</td><td style="vertical-align:top;">:</td><td><div>text/html,application/xhtml+xml,application/xml;q=0.9,image/webp,*/*;q=0.8</div></td></tr><tr><td style="font-weight:bold;vertical-align:top;">http_accept_encoding</td><td style="vertical-align:top;">:</td><td><div>gzip, deflate, sdch</div></td></tr><tr><td style="font-weight:bold;vertical-align:top;">http_accept_language</td><td style="vertical-align:top;">:</td><td><div>en-US,en;q=0.8,de-DE;q=0.6,de;q=0.4</div></td></tr><tr><td style="font-weight:bold;vertical-align:top;">http_connection</td><td style="vertical-align:top;">:</td><td><div>keep-alive</div></td></tr><tr><td style="font-weight:bold;vertical-align:top;">http_cookie</td><td style="vertical-align:top;">:</td><td><div>session_id_crmraw=127.0.0.1-c63ee9db-bf95-4c5c-9ba4-fb84ac052322; session_id_crmrawfullfields=127.0.0.1-d7a5baf1-f883-495c-9cff-631275da4bef; session_id_addfinv3=127.0.0.1-fcdbc3a9-e9fc-4298-8f1e-f82c70e71d97; session_id_welcome=127.0.0.1-3135739e-a576-4745-b0d2-477214927d5e; session_id_admin=127.0.0.1-5e898987-30a9-4264-af9a-4c03c9a6c05b; session_id_addfinv4=127.0.0.1-23d38975-3e81-4d02-ab76-80195e6b0ee5</div></td></tr><tr><td style="font-weight:bold;vertical-align:top;">http_host</td><td style="vertical-align:top;">:</td><td><div>127.0.0.1:8000</div></td></tr><tr><td style="font-weight:bold;vertical-align:top;">http_referer</td><td style="vertical-align:top;">:</td><td><div>http://127.0.0.1:8000/AddfinV4/default/index</div></td></tr><tr><td style="font-weight:bold;vertical-align:top;">http_upgrade_insecure_requests</td><td style="vertical-align:top;">:</td><td><div>1</div></td></tr><tr><td style="font-weight:bold;vertical-align:top;">http_user_agent</td><td style="vertical-align:top;">:</td><td><div>Mozilla/5.0 (Windows NT 6.1; WOW64) AppleWebKit/537.36 (KHTML, like Gecko) Chrome/50.0.2661.94 Safari/537.36</div></td></tr><tr><td style="font-weight:bold;vertical-align:top;">is_jython</td><td style="vertical-align:top;">:</td><td><div>False</div></td></tr><tr><td style="font-weight:bold;vertical-align:top;">is_pypy</td><td style="vertical-align:top;">:</td><td><div>False</div></td></tr><tr><td style="font-weight:bold;vertical-align:top;">is_source</td><td style="vertical-align:top;">:</td><td><div>False</div></td></tr><tr><td style="font-weight:bold;vertical-align:top;">local_hosts</td><td style="vertical-align:top;">:</td><td><div><table><tr><td><div>::ffff:127.0.0.1</div></td></tr><tr><td><div>::1</div></td></tr><tr><td><div>192.168.1.56</div></td></tr><tr><td><div>fe80::48d0:efaa:de27:62ec%10</div></td></tr><tr><td><div>RPBASE1</div></td></tr><tr><td><div>RPBASE1.office.actant.com</div></td></tr><tr><td><div>127.0.0.1</div></td></tr></table></div></td></tr><tr><td style="font-weight:bold;vertical-align:top;">path_info</td><td style="vertical-align:top;">:</td><td><div>/AddfinV4/default/list_crm_contacts</div></td></tr><tr><td style="font-weight:bold;vertical-align:top;">query_string</td><td style="vertical-align:top;">:</td><td><div></div></td></tr><tr><td style="font-weight:bold;vertical-align:top;">remote_addr</td><td style="vertical-align:top;">:</td><td><div>127.0.0.1</div></td></tr><tr><td style="font-weight:bold;vertical-align:top;">remote_port</td><td style="vertical-align:top;">:</td><td><div>59549</div></td></tr><tr><td style="font-weight:bold;vertical-align:top;">request_method</td><td style="vertical-align:top;">:</td><td><div>GET</div></td></tr><tr><td style="font-weight:bold;vertical-align:top;">request_uri</td><td style="vertical-align:top;">:</td><td><div>/AddfinV4/default/list_crm_contacts</div></td></tr><tr><td style="font-weight:bold;vertical-align:top;">script_name</td><td style="vertical-align:top;">:</td><td><div></div></td></tr><tr><td style="font-weight:bold;vertical-align:top;">server_name</td><td style="vertical-align:top;">:</td><td><div>RPBASE1</div></td></tr><tr><td style="font-weight:bold;vertical-align:top;">server_port</td><td style="vertical-align:top;">:</td><td><div>8000</div></td></tr><tr><td style="font-weight:bold;vertical-align:top;">server_protocol</td><td style="vertical-align:top;">:</td><td><div>HTTP/1.1</div></td></tr><tr><td style="font-weight:bold;vertical-align:top;">server_software</td><td style="vertical-align:top;">:</td><td><div>Rocket 1.2.6</div></td></tr><tr><td style="font-weight:bold;vertical-align:top;">web2py_path</td><td style="vertical-align:top;">:</td><td><div>C:\\WEB2PY\\EXE_RP\\web2py</div></td></tr><tr><td style="font-weight:bold;vertical-align:top;">web2py_version</td><td style="vertical-align:top;">:</td><td><div>2.13.4-stable+timestamp.2015.12.26.04.59.39</div></td></tr><tr><td style="font-weight:bold;vertical-align:top;">wsgi.errors</td><td style="vertical-align:top;">:</td><td><div>&lt;open file &#x27;&lt;stderr&gt;&#x27;, mode &#x27;w&#x27; at 0x0045D0D0&gt;</div></td></tr><tr><td style="font-weight:bold;vertical-align:top;">wsgi.file_wrapper</td><td style="vertical-align:top;">:</td><td><div>&lt;class wsgiref.util.FileWrapper at 0x03B2BC38&gt;</div></td></tr><tr><td style="font-weight:bold;vertical-align:top;">wsgi.input</td><td style="vertical-align:top;">:</td><td><div>&lt;socket._fileobject object at 0x089FA9F0&gt;</div></td></tr><tr><td style="font-weight:bold;vertical-align:top;">wsgi.multiprocess</td><td style="vertical-align:top;">:</td><td><div>False</div></td></tr><tr><td style="font-weight:bold;vertical-align:top;">wsgi.multithread</td><td style="vertical-align:top;">:</td><td><div>True</div></td></tr><tr><td style="font-weight:bold;vertical-align:top;">wsgi.run_once</td><td style="vertical-align:top;">:</td><td><div>False</div></td></tr><tr><td style="font-weight:bold;vertical-align:top;">wsgi.url_scheme</td><td style="vertical-align:top;">:</td><td><div>http</div></td></tr><tr><td style="font-weight:bold;vertical-align:top;">wsgi.version</td><td style="vertical-align:top;">:</td><td><div><table><tr><td><div>1</div></td></tr><tr><td><div>0</div></td></tr></table></div></td></tr><tr><td style="font-weight:bold;vertical-align:top;">wsgi_errors</td><td style="vertical-align:top;">:</td><td><div>&lt;open file &#x27;&lt;stderr&gt;&#x27;, mode &#x27;w&#x27; at 0x0045D0D0&gt;</div></td></tr><tr><td style="font-weight:bold;vertical-align:top;">wsgi_file_wrapper</td><td style="vertical-align:top;">:</td><td><div>&lt;class wsgiref.util.FileWrapper at 0x03B2BC38&gt;</div></td></tr><tr><td style="font-weight:bold;vertical-align:top;">wsgi_input</td><td style="vertical-align:top;">:</td><td><div>&lt;socket._fileobject object at 0x089FA9F0&gt;</div></td></tr><tr><td style="font-weight:bold;vertical-align:top;">wsgi_multiprocess</td><td style="vertical-align:top;">:</td><td><div>False</div></td></tr><tr><td style="font-weight:bold;vertical-align:top;">wsgi_multithread</td><td style="vertical-align:top;">:</td><td><div>True</div></td></tr><tr><td style="font-weight:bold;vertical-align:top;">wsgi_run_once</td><td style="vertical-align:top;">:</td><td><div>False</div></td></tr><tr><td style="font-weight:bold;vertical-align:top;">wsgi_url_scheme</td><td style="vertical-align:top;">:</td><td><div>http</div></td></tr><tr><td style="font-weight:bold;vertical-align:top;">wsgi_version</td><td style="vertical-align:top;">:</td><td><div><table><tr><td><div>1</div></td></tr><tr><td><div>0</div></td></tr></table></div></td></tr></table></div></td></tr><tr><td style="font-weight:bold;vertical-align:top;">extension</td><td style="vertical-align:top;">:</td><td><div>html</div></td></tr><tr><td style="font-weight:bold;vertical-align:top;">folder</td><td style="vertical-align:top;">:</td><td><div>C:\\WEB2PY\\EXE_RP\\web2py\\applications\\AddfinV4\\</div></td></tr><tr><td style="font-weight:bold;vertical-align:top;">function</td><td style="vertical-align:top;">:</td><td><div>list_crm_contacts</div></td></tr><tr><td style="font-weight:bold;vertical-align:top;">global_settings</td><td style="vertical-align:top;">:</td><td><div><table><tr><td style="font-weight:bold;vertical-align:top;">app_folders</td><td style="vertical-align:top;">:</td><td><div>set([&#x27;C:\\\\WEB2PY\\\\EXE_RP\\\\web2py\\\\applications\\\\admin\\\\&#x27;, &#x27;C:\\\\WEB2PY\\\\EXE_RP\\\\web2py\\\\applications\\\\AddfinV4\\\\&#x27;, &#x27;C:\\\\WEB2PY\\\\EXE_RP\\\\web2py\\\\applications\\\\welcome\\\\&#x27;])</div></td></tr><tr><td style="font-weight:bold;vertical-align:top;">applications_parent</td><td style="vertical-align:top;">:</td><td><div>C:\\WEB2PY\\EXE_RP\\web2py</div></td></tr><tr><td style="font-weight:bold;vertical-align:top;">cmd_args</td><td style="vertical-align:top;">:</td><td><div><table></table></div></td></tr><tr><td style="font-weight:bold;vertical-align:top;">cmd_options</td><td style="vertical-align:top;">:</td><td><div>&lt;Values at 0x314d7b0: {&#x27;verbose&#x27;: False, &#x27;ip&#x27;: &#x27;127.0.0.1&#x27;, &#x27;debuglevel&#x27;: 30, &#x27;with_scheduler&#x27;: False, &#x27;ips&#x27;: [], &#x27;shutdown_timeout&#x27;: 5, &#x27;taskbar&#x27;: False, &#x27;with_coverage&#x27;: False, &#x27;scheduler_groups&#x27;: None, &#x27;port&#x27;: 8000, &#x27;maxthreads&#x27;: None, &#x27;softcron&#x27;: False, &#x27;server_name&#x27;: &#x27;RPBASE1&#x27;, &#x27;bpython&#x27;: False, &#x27;nogui&#x27;: False, &#x27;pid_filename&#x27;: &#x27;httpserver.pid&#x27;, &#x27;print_errors&#x27;: False, &#x27;extcron&#x27;: False, &#x27;runcron&#x27;: False, &#x27;run_system_tests&#x27;: False, &#x27;test&#x27;: None, &#x27;folder&#x27;: &#x27;C:\\\\WEB2PY\\\\EXE_RP\\\\web2py&#x27;, &#x27;config&#x27;: &#x27;&#x27;, &#x27;minthreads&#x27;: None, &#x27;shell&#x27;: None, &#x27;run&#x27;: &#x27;&#x27;, &#x27;log_filename&#x27;: &#x27;httpserver.log&#x27;, &#x27;profiler_dir&#x27;: None, &#x27;args&#x27;: [&#x27;&#x27;], &#x27;socket_timeout&#x27;: 5, &#x27;ssl_ca_certificate&#x27;: None, &#x27;scheduler&#x27;: None, &#x27;interfaces&#x27;: None, &#x27;ssl_private_key&#x27;: &#x27;&#x27;, &#x27;gae&#x27;: None, &#x27;password&#x27;: &#x27;&lt;ask&gt;&#x27;, &#x27;request_queue_size&#x27;: 5, &#x27;ssl_certificate&#x27;: &#x27;&#x27;, &#x27;cronjob&#x27;: False, &#x27;numthreads&#x27;: None, &#x27;quiet&#x27;: False, &#x27;import_models&#x27;: False, &#x27;timeout&#x27;: 10, &#x27;plain&#x27;: False, &#x27;nobanner&#x27;: False}&gt;</div></td></tr><tr><td style="font-weight:bold;vertical-align:top;">db_sessions</td><td style="vertical-align:top;">:</td><td><div>set([])</div></td></tr><tr><td style="font-weight:bold;vertical-align:top;">debugging</td><td style="vertical-align:top;">:</td><td><div>False</div></td></tr><tr><td style="font-weight:bold;vertical-align:top;">gluon_parent</td><td style="vertical-align:top;">:</td><td><div>C:\\WEB2PY\\EXE_RP\\web2py</div></td></tr><tr><td style="font-weight:bold;vertical-align:top;">is_jython</td><td style="vertical-align:top;">:</td><td><div>False</div></td></tr><tr><td style="font-weight:bold;vertical-align:top;">is_pypy</td><td style="vertical-align:top;">:</td><td><div>False</div></td></tr><tr><td style="font-weight:bold;vertical-align:top;">is_source</td><td style="vertical-align:top;">:</td><td><div>False</div></td></tr><tr><td style="font-weight:bold;vertical-align:top;">local_hosts</td><td style="vertical-align:top;">:</td><td><div><table><tr><td><div>::ffff:127.0.0.1</div></td></tr><tr><td><div>::1</div></td></tr><tr><td><div>192.168.1.56</div></td></tr><tr><td><div>fe80::48d0:efaa:de27:62ec%10</div></td></tr><tr><td><div>RPBASE1</div></td></tr><tr><td><div>RPBASE1.office.actant.com</div></td></tr><tr><td><div>127.0.0.1</div></td></tr></table></div></td></tr><tr><td style="font-weight:bold;vertical-align:top;">web2py_version</td><td style="vertical-align:top;">:</td><td><div>2.13.4-stable+timestamp.2015.12.26.04.59.39</div></td></tr></table></div></td></tr><tr><td style="font-weight:bold;vertical-align:top;">is_https</td><td style="vertical-align:top;">:</td><td><div>False</div></td></tr><tr><td style="font-weight:bold;vertical-align:top;">is_local</td><td style="vertical-align:top;">:</td><td><div>True</div></td></tr><tr><td style="font-weight:bold;vertical-align:top;">is_restful</td><td style="vertical-align:top;">:</td><td><div>False</div></td></tr><tr><td style="font-weight:bold;vertical-align:top;">is_scheduler</td><td style="vertical-align:top;">:</td><td><div>False</div></td></tr><tr><td style="font-weight:bold;vertical-align:top;">is_shell</td><td style="vertical-align:top;">:</td><td><div>False</div></td></tr><tr><td style="font-weight:bold;vertical-align:top;">now</td><td style="vertical-align:top;">:</td><td><div>datetime.datetime(2016, 5, 20, 22, 13, 11, 117000)</div></td></tr><tr><td style="font-weight:bold;vertical-align:top;">raw_args</td><td style="vertical-align:top;">:</td><td><div></div></td></tr><tr><td style="font-weight:bold;vertical-align:top;">raw_extension</td><td style="vertical-align:top;">:</td><td><div>None</div></td></tr><tr><td style="font-weight:bold;vertical-align:top;">url</td><td style="vertical-align:top;">:</td><td><div>/AddfinV4/default/list_crm_contacts</div></td></tr><tr><td style="font-weight:bold;vertical-align:top;">utcnow</td><td style="vertical-align:top;">:</td><td><div>datetime.datetime(2016, 5, 20, 20, 13, 11, 117000)</div></td></tr><tr><td style="font-weight:bold;vertical-align:top;">wsgi</td><td style="vertical-align:top;">:</td><td><div>&lt;gluon.main.LazyWSGI object at 0x08A36F70&gt;</div></td></tr></table></div>'
tRp58
sS'frames'
p59
(lp60
(dp61
S'file'
p62
S'C:\\WEB2PY\\EXE_RP\\web2py\\gluon\\restricted.py'
p63
sS'dump'
p64
(dp65
S'environment'
p66
S"{'A': <class 'gluon.html.A'>, 'ANY_OF': <class 'gluon.validators.ANY_OF'>, 'ASSIGNJS': <function ASSIGNJS>, 'Auth': <class 'gluon.tools.Auth'>, 'B': <class 'gluon.html.B'>, 'BEAUTIFY': <class 'gluon.html.BEAUTIFY'>, 'BODY': <class 'gluon.html.BODY'>, 'BR': <class 'gluon.html.BR'>, 'BUTTON': <class 'gluon.html.BUTTON'>, 'CAT': <class 'gluon.html.CAT'>, ...}"
p67
sS'ccode'
p68
S'<code object <module> at 049A3BF0, file "C:\\WEB2...V4\\views\\default/list_crm_contacts.html", line 1>'
p69
ssS'lnum'
p70
I227
sS'lines'
p71
(dp72
I224
S'            ccode = code'
p73
sI225
S'        else:'
p74
sI226
S'            ccode = compile2(code, layer)'
p75
sI227
S'        exec ccode in environment'
p76
sI228
S'    except HTTP:'
p77
sI229
S'        raise'
p78
sI230
S'    except RestrictedError:'
p79
sI231
S'        # do not encapsulate (obfuscate) the original RestrictedError'
p80
sI222
S'    try:'
p81
sI223
S'        if isinstance(code, types.CodeType):'
p82
ssS'call'
p83
S'(code=r"response.files.append(URL(r=request,c=\'static\',f...p>\\n  </div>\\n </body>\\n</html>\\n\', escape=False)", environment={\'A\': <class \'gluon.html.A\'>, \'ANY_OF\': <class \'gluon.validators.ANY_OF\'>, \'ASSIGNJS\': <function ASSIGNJS>, \'Auth\': <class \'gluon.tools.Auth\'>, \'B\': <class \'gluon.html.B\'>, \'BEAUTIFY\': <class \'gluon.html.BEAUTIFY\'>, \'BODY\': <class \'gluon.html.BODY\'>, \'BR\': <class \'gluon.html.BR\'>, \'BUTTON\': <class \'gluon.html.BUTTON\'>, \'CAT\': <class \'gluon.html.CAT\'>, ...}, layer=r\'C:\\WEB2PY\\EXE_RP\\web2py\\applications\\AddfinV4\\views\\default/list_crm_contacts.html\')'
p84
sS'func'
p85
S'restricted'
p86
sa(dp87
g62
S'C:\\WEB2PY\\EXE_RP\\web2py\\applications\\AddfinV4\\views\\default\\list_crm_contacts.html'
p88
sg64
(dp89
S'br'
p90
S'undefined'
p91
ssg70
I66
sg71
(dp92
I64
S'response.write(form)'
p93
sI65
S'response.write(\'\\r\\n\\r\\n\\r\\n\\r\\n</div>\\r\\n\\r\\n\\r\\n\\r\\n\\r\\n\\r\\n\\r\\n\\r\\n<br /><br />\\r\\n\\r\\n\\r\\n\\r\\n<table class="smarttable">\\r\\n\\r\\n\\r\\n\\r\\n<thead>\\r\\n\\r\\n\\r\\n\\r\\n    <tr>\\r\\n\\r\\n\\r\\n\\r\\n      <th>Name</th><th>Actions</th>\\r\\n\\r\\n\\r\\n\\r\\n    </tr>    \\r\\n\\r\\n\\r\\n\\r\\n</thead>\\r\\n\\r\\n\\r\\n\\r\\n<tbody>\\r\\n\\r\\n\\r\\n\\r\\n\', escape=False)'
p94
sI66
S'for address_booki in address_book:'
p95
sI67
S"    response.write('\\r\\n\\r\\n\\r\\n\\r\\n    <tr>\\r\\n\\r\\n\\r\\n\\r\\n       <td>', escape=False)"
p96
sI68
S'    response.write(link_address_book(address_booki))'
p97
sI69
S"    response.write('</td>   \\r\\n\\r\\n\\r\\n\\r\\n       <td>', escape=False)"
p98
sI70
S"    response.write(button('address_book','list_address_book',address_booki.id))"
p99
sI71
S"    response.write('\\r\\n\\r\\n\\r\\n\\r\\n       ', escape=False)"
p100
sI72
S"    response.write(button('edit','edit_address_book',address_booki.id))"
p101
sI73
S"    response.write('</td>\\r\\n\\r\\n\\r\\n\\r\\n    </tr>\\r\\n\\r\\n\\r\\n\\r\\n', escape=False)"
p102
sI74
S'    pass'
p103
sI75
S"response.write('\\r\\n\\r\\n\\r\\n\\r\\n</tbody>\\r\\n\\r\\n\\r\\n\\r\\n</table>\\r\\n\\r\\n\\r\\n\\r\\n', escape=False)"
p104
sI76
S"response.write('\\n     </div>\\n   </div>\\n   <!-- end content -->\\n   <!-- ', escape=False)"
p105
sI57
S"response.write(response.flash or '')"
p106
sI58
S"response.write('</div> \\n       ', escape=False)"
p107
sI59
S'response.write("\\r\\n\\r\\n\\r\\n\\r\\n<script>\\r\\n\\r\\n\\r\\n\\r\\n$(document).ready(function() { \\r\\n\\r\\n\\r\\n\\r\\n   jQuery(\'.smarttable\').dataTable(); \\r\\n\\r\\n\\r\\n\\r\\n   ", escape=False)'
p108
sI60
S'if not form.errors:'
p109
sI61
S'    response.write("jQuery(\'#form\').hide();", escape=False)'
p110
sI62
S'    pass'
p111
sI63
S'response.write(\'\\r\\n\\r\\n\\r\\n\\r\\n});\\r\\n\\r\\n\\r\\n\\r\\n</script>\\r\\n\\r\\n\\r\\n\\r\\n<h1>List address_books</h1>\\r\\n\\r\\n\\r\\n\\r\\n\\r\\n\\r\\n\\r\\n\\r\\n[<a href="#nil" onclick="jQuery(\\\'#form\\\').slideToggle();">toggle</a>]\\r\\n\\r\\n\\r\\n\\r\\n<div id="form">\\r\\n\\r\\n\\r\\n\\r\\n<h2>New address_book</h2>\\r\\n\\r\\n\\r\\n\\r\\n\', escape=False)'
p112
ssg83
S'()'
p113
sg85
S'<module>'
p114
sasS'pyver'
p115
S'Python 2.7.9: C:\\WEB2PY\\EXE_RP\\web2py\\web2py.exe (prefix: C:\\Python27)'
p116
sS'session'
p117
g57
(S's\xf1\x02\x00\x00<div><table><tr><td style="font-weight:bold;vertical-align:top;">flash</td><td style="vertical-align:top;">:</td><td><div></div></td></tr><tr><td style="font-weight:bold;vertical-align:top;">recent_accounts</td><td style="vertical-align:top;">:</td><td><div><table></table></div></td></tr><tr><td style="font-weight:bold;vertical-align:top;">recent_companies</td><td style="vertical-align:top;">:</td><td><div><table></table></div></td></tr><tr><td style="font-weight:bold;vertical-align:top;">recent_persons</td><td style="vertical-align:top;">:</td><td><div><table></table></div></td></tr><tr><td style="font-weight:bold;vertical-align:top;">recent_tasks</td><td style="vertical-align:top;">:</td><td><div><table></table></div></td></tr></table></div>'
tRp118
sS'etype'
p119
S"<type 'exceptions.NameError'>"
p120
sS'date'
p121
S'Fri May 20 22:13:12 2016'
p122
sS'response'
p123
g57
(S's\xe5;\x00\x00<div><table><tr><td style="font-weight:bold;vertical-align:top;">body</td><td style="vertical-align:top;">:</td><td><div>&lt;cStringIO.StringO object at 0x08A27C20&gt;</div></td></tr><tr><td style="font-weight:bold;vertical-align:top;">cookies</td><td style="vertical-align:top;">:</td><td><div><table><tr><td style="font-weight:bold;vertical-align:top;">session_id_addfinv4</td><td style="vertical-align:top;">:</td><td><div>127.0.0.1-23d38975-3e81-4d02-ab76-80195e6b0ee5<table><tr><td style="font-weight:bold;vertical-align:top;">comment</td><td style="vertical-align:top;">:</td><td><div></div></td></tr><tr><td style="font-weight:bold;vertical-align:top;">domain</td><td style="vertical-align:top;">:</td><td><div></div></td></tr><tr><td style="font-weight:bold;vertical-align:top;">expires</td><td style="vertical-align:top;">:</td><td><div></div></td></tr><tr><td style="font-weight:bold;vertical-align:top;">httponly</td><td style="vertical-align:top;">:</td><td><div></div></td></tr><tr><td style="font-weight:bold;vertical-align:top;">max-age</td><td style="vertical-align:top;">:</td><td><div></div></td></tr><tr><td style="font-weight:bold;vertical-align:top;">path</td><td style="vertical-align:top;">:</td><td><div>/</div></td></tr><tr><td style="font-weight:bold;vertical-align:top;">secure</td><td style="vertical-align:top;">:</td><td><div></div></td></tr><tr><td style="font-weight:bold;vertical-align:top;">version</td><td style="vertical-align:top;">:</td><td><div></div></td></tr></table></div></td></tr></table></div></td></tr><tr><td style="font-weight:bold;vertical-align:top;">delimiters</td><td style="vertical-align:top;">:</td><td><div><table><tr><td><div>{{</div></td></tr><tr><td><div>}}</div></td></tr></table></div></td></tr><tr><td style="font-weight:bold;vertical-align:top;">files</td><td style="vertical-align:top;">:</td><td><div><table><tr><td><div>/AddfinV4/static/jquery.js</div></td></tr><tr><td><div>/AddfinV4/static/calendar.css</div></td></tr><tr><td><div>/AddfinV4/static/calendar.js</div></td></tr><tr><td><div>/AddfinV4/static/jquery.dataTables.min.js</div></td></tr><tr><td><div>/AddfinV4/static/demo_table.css</div></td></tr><tr><td><div>/AddfinV4/static/Oxidation/style.css</div></td></tr></table></div></td></tr><tr><td style="font-weight:bold;vertical-align:top;">flash</td><td style="vertical-align:top;">:</td><td><div></div></td></tr><tr><td style="font-weight:bold;vertical-align:top;">form_label_separator</td><td style="vertical-align:top;">:</td><td><div>: </div></td></tr><tr><td style="font-weight:bold;vertical-align:top;">formstyle</td><td style="vertical-align:top;">:</td><td><div>table3cols</div></td></tr><tr><td style="font-weight:bold;vertical-align:top;">generic_patterns</td><td style="vertical-align:top;">:</td><td><div><table><tr><td><div>*</div></td></tr></table></div></td></tr><tr><td style="font-weight:bold;vertical-align:top;">headers</td><td style="vertical-align:top;">:</td><td><div><table><tr><td style="font-weight:bold;vertical-align:top;">X-Powered-By</td><td style="vertical-align:top;">:</td><td><div>web2py</div></td></tr></table></div></td></tr><tr><td style="font-weight:bold;vertical-align:top;">menu</td><td style="vertical-align:top;">:</td><td><div><table><tr><td><div><table><tr><td><div>organizations</div></td></tr><tr><td><div>False</div></td></tr><tr><td><div>/AddfinV4/default/list_organizations</div></td></tr></table></div></td></tr><tr><td><div><table><tr><td><div>crm_compliance</div></td></tr><tr><td><div>False</div></td></tr><tr><td><div>/AddfinV4/default/list_crm_compliance</div></td></tr></table></div></td></tr><tr><td><div><table><tr><td><div>address_book</div></td></tr><tr><td><div>False</div></td></tr><tr><td><div>/AddfinV4/default/list_address_book</div></td></tr></table></div></td></tr><tr><td><div><table><tr><td><div>calls</div></td></tr><tr><td><div>False</div></td></tr><tr><td><div>/AddfinV4/default/list_calls</div></td></tr></table></div></td></tr><tr><td><div><table><tr><td><div>cases</div></td></tr><tr><td><div>False</div></td></tr><tr><td><div>/AddfinV4/default/list_cases</div></td></tr></table></div></td></tr><tr><td><div><table><tr><td><div>client_roles</div></td></tr><tr><td><div>False</div></td></tr><tr><td><div>/AddfinV4/default/list_client_roles</div></td></tr></table></div></td></tr><tr><td><div><table><tr><td><div>crm_contacts</div></td></tr><tr><td><div>False</div></td></tr><tr><td><div>/AddfinV4/default/list_crm_contacts</div></td></tr></table></div></td></tr><tr><td><div><table><tr><td><div>portfolios</div></td></tr><tr><td><div>False</div></td></tr><tr><td><div>/AddfinV4/default/list_portfolios</div></td></tr></table></div></td></tr><tr><td><div><table><tr><td><div>currencies</div></td></tr><tr><td><div>False</div></td></tr><tr><td><div>/AddfinV4/default/list_currencies</div></td></tr></table></div></td></tr><tr><td><div><table><tr><td><div>custom_fields</div></td></tr><tr><td><div>False</div></td></tr><tr><td><div>/AddfinV4/default/list_custom_fields</div></td></tr></table></div></td></tr><tr><td><div><table><tr><td><div>database_fundinfo</div></td></tr><tr><td><div>False</div></td></tr><tr><td><div>/AddfinV4/default/list_database_fundinfo</div></td></tr></table></div></td></tr><tr><td><div><table><tr><td><div>fdata__products</div></td></tr><tr><td><div>False</div></td></tr><tr><td><div>/AddfinV4/default/list_fdata__products</div></td></tr></table></div></td></tr><tr><td><div><table><tr><td><div>documents</div></td></tr><tr><td><div>False</div></td></tr><tr><td><div>/AddfinV4/default/list_documents</div></td></tr></table></div></td></tr><tr><td><div><table><tr><td><div>emails</div></td></tr><tr><td><div>False</div></td></tr><tr><td><div>/AddfinV4/default/list_emails</div></td></tr></table></div></td></tr><tr><td><div><table><tr><td><div>fields_meta_data</div></td></tr><tr><td><div>False</div></td></tr><tr><td><div>/AddfinV4/default/list_fields_meta_data</div></td></tr></table></div></td></tr><tr><td><div><table><tr><td><div>gii</div></td></tr><tr><td><div>False</div></td></tr><tr><td><div>/AddfinV4/default/list_gii</div></td></tr></table></div></td></tr><tr><td><div><table><tr><td><div>crm_custRelation</div></td></tr><tr><td><div>False</div></td></tr><tr><td><div>/AddfinV4/default/list_crm_custRelation</div></td></tr></table></div></td></tr><tr><td><div><table><tr><td><div>kreports</div></td></tr><tr><td><div>False</div></td></tr><tr><td><div>/AddfinV4/default/list_kreports</div></td></tr></table></div></td></tr><tr><td><div><table><tr><td><div>leads</div></td></tr><tr><td><div>False</div></td></tr><tr><td><div>/AddfinV4/default/list_leads</div></td></tr></table></div></td></tr><tr><td><div><table><tr><td><div>fundinfo_docs</div></td></tr><tr><td><div>False</div></td></tr><tr><td><div>/AddfinV4/default/list_fundinfo_docs</div></td></tr></table></div></td></tr><tr><td><div><table><tr><td><div>fdata_vdf</div></td></tr><tr><td><div>False</div></td></tr><tr><td><div>/AddfinV4/default/list_fdata_vdf</div></td></tr></table></div></td></tr><tr><td><div><table><tr><td><div>fdata_rolotec</div></td></tr><tr><td><div>False</div></td></tr><tr><td><div>/AddfinV4/default/list_fdata_rolotec</div></td></tr></table></div></td></tr><tr><td><div><table><tr><td><div>mandate_bands</div></td></tr><tr><td><div>False</div></td></tr><tr><td><div>/AddfinV4/default/list_mandate_bands</div></td></tr></table></div></td></tr><tr><td><div><table><tr><td><div>tasks</div></td></tr><tr><td><div>False</div></td></tr><tr><td><div>/AddfinV4/default/list_tasks</div></td></tr></table></div></td></tr><tr><td><div><table><tr><td><div>meetings</div></td></tr><tr><td><div>False</div></td></tr><tr><td><div>/AddfinV4/default/list_meetings</div></td></tr></table></div></td></tr><tr><td><div><table><tr><td><div>fdata_transactions</div></td></tr><tr><td><div>False</div></td></tr><tr><td><div>/AddfinV4/default/list_fdata_transactions</div></td></tr></table></div></td></tr><tr><td><div><table><tr><td><div>portfolio</div></td></tr><tr><td><div>False</div></td></tr><tr><td><div>/AddfinV4/default/list_portfolio</div></td></tr></table></div></td></tr><tr><td><div><table><tr><td><div>allocationModel</div></td></tr><tr><td><div>False</div></td></tr><tr><td><div>/AddfinV4/default/list_allocationModel</div></td></tr></table></div></td></tr><tr><td><div><table><tr><td><div>pii</div></td></tr><tr><td><div>False</div></td></tr><tr><td><div>/AddfinV4/default/list_pii</div></td></tr></table></div></td></tr><tr><td><div><table><tr><td><div>rules_n_bands</div></td></tr><tr><td><div>False</div></td></tr><tr><td><div>/AddfinV4/default/list_rules_n_bands</div></td></tr></table></div></td></tr><tr><td><div><table><tr><td><div>stamm_acct</div></td></tr><tr><td><div>False</div></td></tr><tr><td><div>/AddfinV4/default/list_stamm_acct</div></td></tr></table></div></td></tr><tr><td><div><table><tr><td><div>sub_acct</div></td></tr><tr><td><div>False</div></td></tr><tr><td><div>/AddfinV4/default/list_sub_acct</div></td></tr></table></div></td></tr><tr><td><div><table><tr><td><div>depot_banks</div></td></tr><tr><td><div>False</div></td></tr><tr><td><div>/AddfinV4/default/list_depot_banks</div></td></tr></table></div></td></tr><tr><td><div><table><tr><td><div>benchmarks</div></td></tr><tr><td><div>False</div></td></tr><tr><td><div>/AddfinV4/default/list_benchmarks</div></td></tr></table></div></td></tr></table></div></td></tr><tr><td style="font-weight:bold;vertical-align:top;">menu_auth</td><td style="vertical-align:top;">:</td><td><div><table><tr><td><div><table><tr><td><div>Login</div></td></tr><tr><td><div>False</div></td></tr><tr><td><div>/AddfinV4/default/user/login</div></td></tr><tr><td><div><table><tr><td><div><table><tr><td><div>Register</div></td></tr><tr><td><div>False</div></td></tr><tr><td><div>/AddfinV4/default/user/register</div></td></tr></table></div></td></tr><tr><td><div><table><tr><td><div>Lost Password</div></td></tr><tr><td><div>False</div></td></tr><tr><td><div>/AddfinV4/default/user/retrieve_password</div></td></tr></table></div></td></tr></table></div></td></tr></table></div></td></tr></table></div></td></tr><tr><td style="font-weight:bold;vertical-align:top;">menu_edit</td><td style="vertical-align:top;">:</td><td><div><table><tr><td><div><table><tr><td><div>Edit</div></td></tr><tr><td><div>False</div></td></tr><tr><td><div>/admin/default/design/AddfinV4</div></td></tr><tr><td><div><table><tr><td><div><table><tr><td><div>Controller</div></td></tr><tr><td><div>False</div></td></tr><tr><td><div>/admin/default/edit/AddfinV4/controllers/default.py</div></td></tr></table></div></td></tr><tr><td><div><table><tr><td><div>View</div></td></tr><tr><td><div>False</div></td></tr><tr><td><div>/admin/default/edit/AddfinV4/views/default/list_crm_contacts.html</div></td></tr></table></div></td></tr><tr><td><div><table><tr><td><div>Layout</div></td></tr><tr><td><div>False</div></td></tr><tr><td><div>/admin/default/edit/AddfinV4/views/layout.html</div></td></tr></table></div></td></tr><tr><td><div><table><tr><td><div>Stylesheet</div></td></tr><tr><td><div>False</div></td></tr><tr><td><div>/admin/default/edit/AddfinV4/static/base.css</div></td></tr></table></div></td></tr><tr><td><div><table><tr><td><div>DB Model</div></td></tr><tr><td><div>False</div></td></tr><tr><td><div>/admin/default/edit/AddfinV4/models/db.py</div></td></tr></table></div></td></tr><tr><td><div><table><tr><td><div>Menu Model</div></td></tr><tr><td><div>False</div></td></tr><tr><td><div>/admin/default/edit/AddfinV4/models/menu.py</div></td></tr></table></div></td></tr><tr><td><div><table><tr><td><div>Database</div></td></tr><tr><td><div>False</div></td></tr><tr><td><div>/AddfinV4/appadmin/index</div></td></tr></table></div></td></tr></table></div></td></tr></table></div></td></tr></table></div></td></tr><tr><td style="font-weight:bold;vertical-align:top;">meta</td><td style="vertical-align:top;">:</td><td><div><table></table></div></td></tr><tr><td style="font-weight:bold;vertical-align:top;">models_to_run</td><td style="vertical-align:top;">:</td><td><div><table><tr><td><div>^\\w+\\.py$</div></td></tr><tr><td><div>^default/\\w+\\.py$</div></td></tr><tr><td><div>^default/list_crm_contacts/\\w+\\.py$</div></td></tr></table></div></td></tr><tr><td style="font-weight:bold;vertical-align:top;">postprocessing</td><td style="vertical-align:top;">:</td><td><div><table></table></div></td></tr><tr><td style="font-weight:bold;vertical-align:top;">session_client</td><td style="vertical-align:top;">:</td><td><div>127.0.0.1</div></td></tr><tr><td style="font-weight:bold;vertical-align:top;">session_cookie_compression_level</td><td style="vertical-align:top;">:</td><td><div>None</div></td></tr><tr><td style="font-weight:bold;vertical-align:top;">session_cookie_expires</td><td style="vertical-align:top;">:</td><td><div>None</div></td></tr><tr><td style="font-weight:bold;vertical-align:top;">session_cookie_key</td><td style="vertical-align:top;">:</td><td><div>None</div></td></tr><tr><td style="font-weight:bold;vertical-align:top;">session_data_name</td><td style="vertical-align:top;">:</td><td><div>session_data_addfinv4</div></td></tr><tr><td style="font-weight:bold;vertical-align:top;">session_file</td><td style="vertical-align:top;">:</td><td><div>&lt;open file &#x27;C:\\\\WEB2PY\\\\EXE_RP\\\\web2py\\\\applications\\\\AddfinV4\\\\sessions\\\\078\\\\1f5\\\\127.0.0.1-23d38975-3e81-4d02-ab76-80195e6b0ee5&#x27;, mode &#x27;rb+&#x27; at 0x08A18B78&gt;</div></td></tr><tr><td style="font-weight:bold;vertical-align:top;">session_filename</td><td style="vertical-align:top;">:</td><td><div>C:\\WEB2PY\\EXE_RP\\web2py\\applications\\AddfinV4\\sessions\\127.0.0.1-23d38975-3e81-4d02-ab76-80195e6b0ee5</div></td></tr><tr><td style="font-weight:bold;vertical-align:top;">session_hash</td><td style="vertical-align:top;">:</td><td><div>b1b4af104c5c8ab4511d0775eb321637</div></td></tr><tr><td style="font-weight:bold;vertical-align:top;">session_id</td><td style="vertical-align:top;">:</td><td><div>127.0.0.1-23d38975-3e81-4d02-ab76-80195e6b0ee5</div></td></tr><tr><td style="font-weight:bold;vertical-align:top;">session_id_name</td><td style="vertical-align:top;">:</td><td><div>session_id_addfinv4</div></td></tr><tr><td style="font-weight:bold;vertical-align:top;">session_locked</td><td style="vertical-align:top;">:</td><td><div>True</div></td></tr><tr><td style="font-weight:bold;vertical-align:top;">session_masterapp</td><td style="vertical-align:top;">:</td><td><div>AddfinV4</div></td></tr><tr><td style="font-weight:bold;vertical-align:top;">session_new</td><td style="vertical-align:top;">:</td><td><div>False</div></td></tr><tr><td style="font-weight:bold;vertical-align:top;">session_storage_type</td><td style="vertical-align:top;">:</td><td><div>file</div></td></tr><tr><td style="font-weight:bold;vertical-align:top;">status</td><td style="vertical-align:top;">:</td><td><div>200</div></td></tr><tr><td style="font-weight:bold;vertical-align:top;">subtitle</td><td style="vertical-align:top;">:</td><td><div>customize me!</div></td></tr><tr><td style="font-weight:bold;vertical-align:top;">title</td><td style="vertical-align:top;">:</td><td><div>AddfinV4</div></td></tr><tr><td style="font-weight:bold;vertical-align:top;">view</td><td style="vertical-align:top;">:</td><td><div>default/list_crm_contacts.html</div></td></tr></table></div>'
tRp124
sS'locals'
p125
(dp126
S'Service'
p127
S"<class 'gluon.tools.Service'>"
p128
sS'IFRAME'
p129
S"<class 'gluon.html.IFRAME'>"
p130
sS'Crud'
p131
S"<class 'gluon.tools.Crud'>"
p132
sS'link_address_book'
p133
S'<function link_address_book>'
p134
sS'OBJECT'
p135
S"<class 'gluon.html.OBJECT'>"
p136
sS'_file'
p137
S"'/AddfinV4/static/Oxidation/style.css'"
p138
sS'SQLDB'
p139
S"<class 'pydal.base.DAL'>"
p140
sS'link_rules_n_bands'
p141
S'<function link_rules_n_bands>'
p142
sg117
S"<Storage {'_formkey[address_book/None]': ['a773a...4edb-8439-0d3091d0d93c'], 'recent_accounts': []}>"
p143
sS'reverse_geocode'
p144
S'<function reverse_geocode>'
p145
sS'BR'
p146
S"<class 'gluon.html.BR'>"
p147
sS'local_import'
p148
S'<function <lambda>>'
p149
sS'OPTGROUP'
p150
S"<class 'gluon.html.OPTGROUP'>"
p151
sS'__package__'
p152
S'None'
p153
sS'link_cases'
p154
S'<function link_cases>'
p155
sS'IS_INT_IN_RANGE'
p156
S"<class 'gluon.validators.IS_INT_IN_RANGE'>"
p157
sS'link_custom_fields'
p158
S'<function link_custom_fields>'
p159
sS'IS_LOWER'
p160
S"<class 'gluon.validators.IS_LOWER'>"
p161
sS'IS_STRONG'
p162
S"<class 'gluon.validators.IS_STRONG'>"
p163
sS'Recaptcha'
p164
S"<class 'gluon.tools.Recaptcha'>"
p165
sS'cache'
p166
S'<gluon.cache.Cache object>'
p167
sS'link_meetings'
p168
S'<function link_meetings>'
p169
sS'IS_IN_DB'
p170
S"<class 'gluon.validators.IS_IN_DB'>"
p171
sS'TAG'
p172
S'<gluon.html.__TAG__ object>'
p173
sS'_k'
p174
S'5'
sS'SQLField'
p175
S"<class 'pydal.objects.Field'>"
p176
sS'link_tasks'
p177
S'<function link_tasks>'
p178
sS'BODY'
p179
S"<class 'gluon.html.BODY'>"
p180
sS'IS_DATE_IN_RANGE'
p181
S"<class 'gluon.validators.IS_DATE_IN_RANGE'>"
p182
sS'link_organizations'
p183
S'<function link_organizations>'
p184
sS'link_kreports'
p185
S'<function link_kreports>'
p186
sS'URL'
p187
S'<function URL>'
p188
sS'__file__'
p189
S"r'C:\\WEB2PY\\EXE_RP\\web2py\\applications\\AddfinV4\\views\\default/list_crm_contacts.html'"
p190
sS'db'
p191
S'<DAL uri="sqlite://storage.sqlite">'
p192
sS'auth'
p193
S'<gluon.tools.Auth object>'
p194
sS'P'
S"<class 'gluon.html.P'>"
p195
sS'T'
S'<gluon.languages.translator object>'
p196
sS'XHTML'
p197
S"<class 'gluon.html.XHTML'>"
p198
sS'link_currencies'
p199
S'<function link_currencies>'
p200
sS'ON'
p201
S'True'
p202
sS'OL'
p203
S"<class 'gluon.html.OL'>"
p204
sS'link_gii'
p205
S'<function link_gii>'
p206
sS'TEXTAREA'
p207
S"<class 'gluon.html.TEXTAREA'>"
p208
sS'MENU'
p209
S"<class 'gluon.html.MENU'>"
p210
sS'button'
p211
S'<function button>'
p212
sS'link_calls'
p213
S'<function link_calls>'
p214
sS'LINK'
p215
S"<class 'gluon.html.LINK'>"
p216
sS'link_sub_acct'
p217
S'<function link_sub_acct>'
p218
sS'link_documents'
p219
S'<function link_documents>'
p220
sS'link_crm_compliance'
p221
S'<function link_crm_compliance>'
p222
sS'CODE'
p223
S"<class 'gluon.html.CODE'>"
p224
sS'HTTP'
p225
S"<class 'gluon.http.HTTP'>"
p226
sS'HR'
p227
S"<class 'gluon.html.HR'>"
p228
sS'IS_DATETIME'
p229
S"<class 'gluon.validators.IS_DATETIME'>"
p230
sS'STYLE'
p231
S"<class 'gluon.html.STYLE'>"
p232
sS'link_leads'
p233
S'<function link_leads>'
p234
sS'LABEL'
p235
S"<class 'gluon.html.LABEL'>"
p236
sS'CLEANUP'
p237
S"<class 'gluon.validators.CLEANUP'>"
p238
sS'link_fdata_rolotec'
p239
S'<function link_fdata_rolotec>'
p240
sS'SELECT'
p241
S"<class 'gluon.html.SELECT'>"
p242
sS'CENTER'
p243
S"<class 'gluon.html.CENTER'>"
p244
sS'prettydate'
p245
S'<function prettydate>'
p246
sS'link_emails'
p247
S'<function link_emails>'
p248
sS'link_crm_custRelation'
p249
S'<function link_crm_custRelation>'
p250
sS'Auth'
p251
S"<class 'gluon.tools.Auth'>"
p252
sS'__builtins__'
p253
S"{'ArithmeticError': <type 'exceptions.ArithmeticError'>, 'AssertionError': <type 'exceptions.AssertionError'>, 'AttributeError': <type 'exceptions.AttributeError'>, 'BaseException': <type 'exceptions.BaseException'>, 'BufferError': <type 'exceptions.BufferError'>, 'BytesWarning': <type 'exceptions.BytesWarning'>, 'DeprecationWarning': <type 'exceptions.DeprecationWarning'>, 'EOFError': <type 'exceptions.EOFError'>, 'Ellipsis': Ellipsis, 'EnvironmentError': <type 'exceptions.EnvironmentError'>, ...}"
p254
sS'link_fdata_transactions'
p255
S'<function link_fdata_transactions>'
p256
sS'HTML'
p257
S"<class 'gluon.html.HTML'>"
p258
sS'link_stamm_acct'
p259
S'<function link_stamm_acct>'
p260
sS'SQLFORM'
p261
S"<class 'gluon.sqlhtml.SQLFORM'>"
p262
sS'link_pii'
p263
S'<function link_pii>'
p264
sS'LOAD'
p265
S'<function LOAD>'
p266
sS'redirect'
p267
S'<function redirect>'
p268
sS'FIELDSET'
p269
S"<class 'gluon.html.FIELDSET'>"
p270
sS'IS_EQUAL_TO'
p271
S"<class 'gluon.validators.IS_EQUAL_TO'>"
p272
sS'embed64'
p273
S'<function embed64>'
p274
sS'IS_LIST_OF'
p275
S"<class 'gluon.validators.IS_LIST_OF'>"
p276
sS'INPUT'
p277
S"<class 'gluon.html.INPUT'>"
p278
sS'EMBED'
p279
S"<class 'gluon.html.EMBED'>"
p280
sS'FORM'
p281
S"<class 'gluon.html.FORM'>"
p282
sS'H2'
p283
S"<class 'gluon.html.H2'>"
p284
sS'H3'
p285
S"<class 'gluon.html.H3'>"
p286
sS'BUTTON'
p287
S"<class 'gluon.html.BUTTON'>"
p288
sS'H1'
p289
S"<class 'gluon.html.H1'>"
p290
sS'H6'
p291
S"<class 'gluon.html.H6'>"
p292
sS'H4'
p293
S"<class 'gluon.html.H4'>"
p294
sS'H5'
p295
S"<class 'gluon.html.H5'>"
p296
sS'UL'
p297
S"<class 'gluon.html.UL'>"
p298
sS'IS_UPPER'
p299
S"<class 'gluon.validators.IS_UPPER'>"
p300
sS'xmlescape'
p301
S'<function xmlescape>'
p302
sS'IS_TIME'
p303
S"<class 'gluon.validators.IS_TIME'>"
p304
sS'OPTION'
p305
S"<class 'gluon.html.OPTION'>"
p306
sS'link_fields_meta_data'
p307
S'<function link_fields_meta_data>'
p308
sS'TITLE'
p309
S"<class 'gluon.html.TITLE'>"
p310
sS'crm_contacts'
p311
S'<Rows (0)>'
p312
sS'CRYPT'
p313
S"<class 'gluon.validators.CRYPT'>"
p314
sS'IS_EMPTY_OR'
p315
S"<class 'gluon.validators.IS_EMPTY_OR'>"
p316
sS'MARKMIN'
p317
S"<class 'gluon.html.MARKMIN'>"
p318
sS'Recaptcha2'
p319
S"<class 'gluon.tools.Recaptcha2'>"
p320
sS'__name__'
p321
S"'__restricted__'"
p322
sS'STRONG'
p323
S"<class 'gluon.html.STRONG'>"
p324
sS'EM'
p325
S"<class 'gluon.html.EM'>"
p326
sS'COL'
p327
S"<class 'gluon.html.COL'>"
p328
sS'link_allocationModel'
p329
S'<function link_allocationModel>'
p330
sS'service'
p331
S'<gluon.tools.Service object>'
p332
sS'SCRIPT'
p333
S"<class 'gluon.html.SCRIPT'>"
p334
sS'link_benchmarks'
p335
S'<function link_benchmarks>'
p336
sS'is_phone'
p337
S'<gluon.validators.IS_MATCH object>'
p338
sS'geocode'
p339
S'<function geocode>'
p340
sS'link_database_fundinfo'
p341
S'<function link_database_fundinfo>'
p342
sS'TABLE'
p343
S"<class 'gluon.html.TABLE'>"
p344
sS'IS_IPV4'
p345
S"<class 'gluon.validators.IS_IPV4'>"
p346
sS'IS_LENGTH'
p347
S"<class 'gluon.validators.IS_LENGTH'>"
p348
sS'IS_IPV6'
p349
S"<class 'gluon.validators.IS_IPV6'>"
p350
sS'XML'
p351
S"<class 'gluon.html.XML'>"
p352
sS'Wiki'
p353
S"<class 'gluon.tools.Wiki'>"
p354
sS'B'
S"<class 'gluon.html.B'>"
p355
sS'IMG'
p356
S"<class 'gluon.html.IMG'>"
p357
sS'SQLTABLE'
p358
S"<class 'gluon.sqlhtml.SQLTABLE'>"
p359
sS'IS_MATCH'
p360
S"<class 'gluon.validators.IS_MATCH'>"
p361
sS'link_client_roles'
p362
S'<function link_client_roles>'
p363
sS'me'
p364
S'None'
p365
sS'SPAN'
p366
S"<class 'gluon.html.SPAN'>"
p367
sS'IS_JSON'
p368
S"<class 'gluon.validators.IS_JSON'>"
p369
sS'IS_IPADDRESS'
p370
S"<class 'gluon.validators.IS_IPADDRESS'>"
p371
sS'link_depot_banks'
p372
S'<function link_depot_banks>'
p373
sS'IS_SLUG'
p374
S"<class 'gluon.validators.IS_SLUG'>"
p375
sS'BEAUTIFY'
p376
S"<class 'gluon.html.BEAUTIFY'>"
p377
sS'META'
p378
S"<class 'gluon.html.META'>"
p379
sS'link_portfolios'
p380
S'<function link_portfolios>'
p381
sS'fetch'
p382
S'<function fetch>'
p383
sS'IS_DATE'
p384
S"<class 'gluon.validators.IS_DATE'>"
p385
sS'IS_EMAIL'
p386
S"<class 'gluon.validators.IS_EMAIL'>"
p387
sS'IS_NOT_EMPTY'
p388
S"<class 'gluon.validators.IS_NOT_EMPTY'>"
p389
sg56
S"<Storage {'_vars': <Storage {}>, 'function': 'li...B2PY\\\\EXE_RP\\\\web2py\\\\applications\\\\AddfinV4\\\\'}>"
p390
sS'TBODY'
p391
S"<class 'gluon.html.TBODY'>"
p392
sS'link_crm_contacts'
p393
S'<function link_crm_contacts>'
p394
sS'CAT'
p395
S"<class 'gluon.html.CAT'>"
p396
sS'Field'
p397
S"<class 'pydal.objects.Field'>"
p398
sS'tag'
p399
S'<function tag>'
p400
sS'IS_LIST_OF_EMAILS'
p401
S"<class 'gluon.validators.IS_LIST_OF_EMAILS'>"
p402
sS'link_portfolio'
p403
S'<function link_portfolio>'
p404
sS'Mail'
p405
S"<class 'gluon.tools.Mail'>"
p406
sS'DIV'
p407
S"<class 'gluon.html.DIV'>"
p408
sS'LEGEND'
p409
S"<class 'gluon.html.LEGEND'>"
p410
sS'link_fundinfo_docs'
p411
S'<function link_fundinfo_docs>'
p412
sS'form'
p413
S'<gluon.sqlhtml.SQLFORM object>'
p414
sS'COLGROUP'
p415
S"<class 'gluon.html.COLGROUP'>"
p416
sS'DAL'
p417
S"<class 'pydal.base.DAL'>"
p418
sS'TT'
p419
S"<class 'gluon.html.TT'>"
p420
sS'TR'
p421
S"<class 'gluon.html.TR'>"
p422
sS'LI'
p423
S"<class 'gluon.html.LI'>"
p424
sS'link_mandate_bands'
p425
S'<function link_mandate_bands>'
p426
sS'TH'
p427
S"<class 'gluon.html.TH'>"
p428
sS'TD'
p429
S"<class 'gluon.html.TD'>"
p430
sS'PluginManager'
p431
S"<class 'gluon.tools.PluginManager'>"
p432
sS'IS_URL'
p433
S"<class 'gluon.validators.IS_URL'>"
p434
sS'A'
S"<class 'gluon.html.A'>"
p435
sS'HEAD'
p436
S"<class 'gluon.html.HEAD'>"
p437
sS'IS_DATETIME_IN_RANGE'
p438
S"<class 'gluon.validators.IS_DATETIME_IN_RANGE'>"
p439
sS'IS_IMAGE'
p440
S"<class 'gluon.validators.IS_IMAGE'>"
p441
sS'I'
S"<class 'gluon.html.I'>"
p442
sS'crud'
p443
S'<gluon.tools.Crud object>'
p444
sS'tag_cloud'
p445
S'<function tag_cloud>'
p446
sS'IS_ALPHANUMERIC'
p447
S"<class 'gluon.validators.IS_ALPHANUMERIC'>"
p448
sS'IS_NOT_IN_DB'
p449
S"<class 'gluon.validators.IS_NOT_IN_DB'>"
p450
sS'PRE'
p451
S"<class 'gluon.html.PRE'>"
p452
sS'link_fdata_vdf'
p453
S'<function link_fdata_vdf>'
p454
sg123
S"<Storage {'body': <cStringIO.StringO object at 0...5FB0>, 'view': 'default/list_crm_contacts.html'}>"
p455
sS'THEAD'
p456
S"<class 'gluon.html.THEAD'>"
p457
sS'ANY_OF'
p458
S"<class 'gluon.validators.ANY_OF'>"
p459
sS'IS_NULL_OR'
p460
S"<class 'gluon.validators.IS_EMPTY_OR'>"
p461
sS'TASK_TYPES'
p462
S"('Phone', 'Fax', 'Mail', 'Meet')"
p463
sS'url'
p464
S'<function url>'
p465
sS'TFOOT'
p466
S"<class 'gluon.html.TFOOT'>"
p467
sS'link_fdata_products'
p468
S'<function link_fdata_products>'
p469
sS'IS_FLOAT_IN_RANGE'
p470
S"<class 'gluon.validators.IS_FLOAT_IN_RANGE'>"
p471
sS'IS_EXPR'
p472
S"<class 'gluon.validators.IS_EXPR'>"
p473
sS'IS_IN_SET'
p474
S"<class 'gluon.validators.IS_IN_SET'>"
p475
sS'IS_UPLOAD_FILENAME'
p476
S"<class 'gluon.validators.IS_UPLOAD_FILENAME'>"
p477
sS'ASSIGNJS'
p478
S'<function ASSIGNJS>'
p479
sS'IS_DECIMAL_IN_RANGE'
p480
S"<class 'gluon.validators.IS_DECIMAL_IN_RANGE'>"
p481
sssS'traceback'
p482
S'Traceback (most recent call last):\n  File "C:\\WEB2PY\\EXE_RP\\web2py\\gluon\\restricted.py", line 227, in restricted\n    exec ccode in environment\n  File "C:\\WEB2PY\\EXE_RP\\web2py\\applications\\AddfinV4\\views\\default/list_crm_contacts.html", line 66, in <module>\nNameError: name \'address_book\' is not defined\n'
p483
s.