(dp1
S'output'
p2
S"<type 'exceptions.SyntaxError'> invalid syntax (rp_newest.py, line 54)"
p3
sS'layer'
p4
S'C:\\WEB2PY\\EXE_RP\\web2py\\applications\\AddfinV5simple\\models\\rp_newest.py'
p5
sS'code'
p6
S"TASK_TYPES = ('Phone', 'Fax', 'Mail', 'Meet')\n\nif auth.is_logged_in():\n   me=auth.user.id\nelse:\n   me=None\n\ndb.define_table('organizations',\n         Field('id', 'string', length=150,default=None, required=False),\n         Field('name', 'string', length=150,default=None, required=False),\n         Field('org_type', 'string', length=100,default=None, required=False),\n         Field('industry', 'string', length=50,default=None, required=False),\n         Field('annual_revenue', 'string', length=100,default=None, required=False),\n         Field('website', 'string', length=255,default=None, required=False),\n         Field('ownership', 'string', length=100,default=None, required=False),\n         Field('employees', 'string', length=10,default=None, required=False),\n         Field('ticker_symbol', 'string', length=10,default=None, required=False),                \n         Field('sic_code', 'string', length=10,default=None, required=False),\n                \ndb.define_table('crm_phones',  # these are attached to cons&Orgs\n         Field('phone_type', 'string', length=100,default=None, required=False), ## pulldown list office,home,mobile,mobile2,other,other2\n         Field('conorg_type', 'string', length=100,default=None, required=False), ## pulldown list contacts,organizations\n         Field('phone_number', 'string', length=100,default=None, required=False), ## prefix info?\n         Field('contacts_id', 'string', length=36,default=None, required=False), # can user conorg_id instead?\n         Field('organization_id', 'string', length=36,default=None, required=False),\n                \ndb.define_table('crm_addresses',         # these are attached to cons&Orgs\n         Field('address_type', 'string', length=100,default=None, required=False), ## pulldown list primary,alt,billing,shipping,mailing,home,office,other,other2\n         Field('conorg_type', 'string', length=100,default=None, required=False), ## pulldown list contacts,organizations,korr_thirdparty[CRs?]\n         Field('contacts_id', 'string', length=36,default=None, required=False), # can user conorg_id instead?\n         Field('organization_id', 'string', length=36,default=None, required=False),\n         Field('address_street', 'string', length=150,default=None, required=False),\n         Field('address_city', 'string', length=100,default=None, required=False),\n         Field('address_state', 'string', length=100,default=None, required=False),\n         Field('address_postalcode', 'string', length=20,default=None, required=False),\n         Field('address_country', 'string', length=255,default=None, required=False),\n                \tField('accounts_accounts_1accounts_ida', 'string', length=36,default=None, required=False),\n    Field('contact_id', 'string', length=36,default=None, required=False),\n\tField('account_id', 'string', length=36,default=None, required=False),\n\n\tField('id_c', 'string', length=36,default=None, required=False),\n\tField('language_c', 'string', length=100,default= 'english', required=False),\n\tField('skype_c', 'string', length=255,default=None, required=False),\n\tField('facebook_c', 'string', length=255,default=None, required=False),\n\tField('linkein_c', 'string', length=255,default=None, required=False),\n\tField('company_type_c', 'string', length=100,default= 'limited_corporation', required=False),\n\tField('relationship_c', 'string', length=100,default= 'partner', required=False),\n\n\tField('bean', 'string', length=50,default=None, required=False),\n\tField('bean_id', 'string', length=36,default=None, required=False))\n                #####################\n      \n         # standard system\n         Field('date_entered', 'datetime',default=None, required=False),\n         Field('date_modified', 'datetime',default=None, required=False),\n         Field('modified_user_id', 'string', length=36,default=None, required=False),\n         Field('created_by', 'string', length=36,default=None, required=False),\n         Field('assigned_user_id', 'string', length=36,default=None, required=False),\n         Field('parent_id', 'string', length=36,default=None, required=False),\n         Field('campaign_id', 'string', length=36,default=None, required=False),\n         Field('filename', 'string', length=255,default=None, required=False),\n         Field('deleted', 'integer',default= '0', required=False),\n         Field('data_type', 'string', length=100,default=None, required=False),\n         Field('before_value_string', 'string', length=255,default=None, required=False),\n         Field('after_value_string', 'string', length=255,default=None, required=False), ### only for audit tables....                \n         Field('before_value_text', 'date',default=None, required=False),\n         Field('after_value_text', 'date',default=None, required=False))\n               \ndb.define_table('crm_compliance', ## these are attached to CRs\n         Field('nxcfile_pepdoc', 'string', length=255,default=None, required=False),\n         Field('pepcheckstatus', 'string', length=255,default= '2', required=False),\n         Field('taxt_status', 'string', length=255,default=None, required=False),\n          \n         Field('client_profile', 'string', length=255,default=None, required=False),\n         Field('suitability', 'string', length=255,default=None, required=False),\n         Field('knowledge', 'string', length=255,default=None, required=False),\n         Field('experience', 'string', length=255,default=None, required=False),\n         Field('appropriateness', 'string', length=255,default=None, required=False),\n         Field('risk_capability', 'string', length=255,default=None, required=False),\n         Field('risk_capacity', 'string', length=255,default=None, required=False),\n         Field('investment_objective', 'string', length=255,default=None, required=False),\n         Field('investment_horizont', 'string', length=255,default=None, required=False),\n         Field('diversification', 'string', length=255,default=None, required=False),\n         Field('nxcfile_photo', 'string', length=255,default=None, required=False),\n         Field('cid_doc_number', 'string', length=255,default=None, required=False),\n         Field('document_id1_c', 'string', length=36,default=None, required=False),\n         Field('cid_date_of_isue', 'datetime',default=None, required=False),\n         Field('cid_issuer_location', 'string', length=255,default=None, required=False),\n         Field('contact_id_c', 'string', length=36,default=None, required=False),\n         Field('pep_check_status', 'integer',default= '2', required=False),\n         Field('pep_document', 'string', length=255,default=None, required=False),\n         Field('document_id_c', 'string', length=36,default=None, required=False),\n         Field('authorization_doc', 'date',default=None, required=False),                \n         Field('cid_doc_number', 'string', length=255,default=None, required=False),\n         Field('document_id1_c', 'string', length=36,default=None, required=False),\n         Field('cid_date_of_isue', 'datetime',default=None, required=False),\n         Field('cid_issuer_location', 'string', length=255,default=None, required=False),\n\n         Field('kube_role_signatory_r', 'string', length=100,default= 'IndividualSignature', required=False),\n\n         Field('created_doc_date', 'datetime',default=None, required=False),\n         Field('expiry_date', 'datetime',default=None, required=False),\n         Field('document_id_c', 'string', length=36,default=None, required=False),\n         Field('authorization_doc', 'date',default=None, required=False),\n         Field('increasedrisk', 'integer',default= '0', required=False),\n         Field('document_id_c', 'string', length=36,default=None, required=False),\n         Field('id_issuerauth', 'string', length=255,default=None, required=False),\n         Field('id_number', 'string', length=255,default=None, required=False),\n         Field('id_place_of_issue', 'string', length=255,default=None, required=False),\n         Field('id_valididy_period', 'string', length=255,default=None, required=False),\n         Field('cid_doc_number', 'string', length=255,default=None, required=False),\n         Field('document_id1_c', 'string', length=36,default=None, required=False),\n         Field('cid_date_of_isue', 'string', length=255,default=None, required=False),\n         Field('cid_issuer_location', 'string', length=255,default=None, required=False),\n         Field('contact_id_c', 'string', length=36,default=None, required=False),\n         Field('korr_tocustomer', 'integer',default= '0', required=False),\n         Field('korr_storedatbank', 'integer',default= '0', required=False),\n         Field('korr_tomember', 'integer',default= '0', required=False),\n\n         Field('korr_thirdparty_add', 'string', length=255,default=None, required=False),\n         Field('id_valididyperiod_date', 'date',default=None, required=False),\n         Field('cid_dateofissue', 'date',default=None, required=False),\n         Field('vqf_risk_1', 'string', length=100,default= '0_Low', required=False),\n         Field('vqf_lang', 'date',default=None, required=False),\n         Field('vqf_additional_lang', 'string', length=36,default=None, required=False),\n         Field('vqf_comments', 'date',default=None, required=False),\n         Field('casual_customers', 'date',default=None, required=False),\n         Field('vqf_casual_explanation', 'date',default=None, required=False),\n         Field('vqf_risk_po_pep', 'string', length=100,default= 'No', required=False),\n         Field('document_id2_c', 'string', length=36,default=None, required=False),\n         Field('vqf_risk_2_2', 'date',default=None, required=False),\n         Field('text_crisk10', 'date',default=None, required=False),\n         Field('text_crisk11', 'date',default=None, required=False),\n         Field('text_crisk12', 'date',default=None, required=False),\n         Field('text_crisk13', 'date',default=None, required=False),\n         Field('vqf_lr_2_3', 'date',default=None, required=False),\n         Field('vqf_comment_crisk3', 'date',default=None, required=False),\n         Field('vqf_comment_risk_2_5', 'date',default=None, required=False),\n         Field('vqf_branchenrisiko_2_5', 'string', length=100,default= '0', required=False),\n         Field('lbl_text_crisk10', 'integer',default= '0', required=False),\n         Field('lbl_text_crisk11', 'integer',default= '0', required=False),\n         Field('lbl_text_crisk12', 'integer',default= '0', required=False),\n         Field('kontaktrisiko_comment', 'string', length=255,default=None, required=False),\n         Field('kontaktrisiko', 'string', length=100,default=None, required=False),\n         Field('comment_prodrisk', 'string', length=255,default=None, required=False),\n         Field('prodrisk', 'string', length=100,default=None, required=False),\n         Field('text_own_crieteria1', 'string', length=255,default=None, required=False),\n         Field('text_own_crieteria2', 'string', length=255,default=None, required=False),\n         Field('text_explanation', 'string', length=255,default=None, required=False),\n         Field('text_other_comment', 'string', length=255,default=None, required=False),\n         Field('text_further_criteria', 'string', length=255,default=None, required=False),\n         Field('later_additions', 'string', length=255,default=None, required=False),\n         Field('alfdocs_identification', 'string', length=255,default=None, required=False),\n         Field('document_idx_c', 'string', length=36,default=None, required=False),\n         Field('risk_document', 'string', length=255,default=None, required=False),\n         Field('nationality_1', 'string', length=255,default=None, required=False),\n         Field('nationality_2', 'string', length=255,default=None, required=False),\n         Field('nationality_3', 'string', length=255,default=None, required=False),\n         Field('risk_profile', 'string', length=255,default=None, required=False),\n         Field('suitability', 'string', length=255,default=None, required=False),\n         Field('appropiateness', 'string', length=255,default=None, required=False),\n         Field('domicile', 'string', length=255,default=None, required=False),\n         Field('taxt_status', 'string', length=255,default=None, required=False),\n         Field('resident', 'string', length=255,default=None, required=False),\n         Field('client_profile', 'string', length=255,default=None, required=False),\n         Field('check_status', 'integer',default= '0', required=False),\n         Field('memberships', 'date',default=None, required=False),\n         Field('business_exist_customer', 'string', length=255,default=None, required=False),\n         Field('business_exist_owner', 'string', length=255,default=None, required=False),\n         Field('business_former_customer', 'string', length=255,default=None, required=False),\n         Field('business_former_owner', 'string', length=255,default=None, required=False),\n         Field('business_planned_customer', 'string', length=255,default=None, required=False),\n         Field('business_planned_owner', 'string', length=255,default=None, required=False),\n         Field('third_party_customer', 'string', length=255,default=None, required=False),\n         Field('third_party_owner', 'string', length=255,default=None, required=False),\n         Field('bank_account', 'date',default=None, required=False),\n         Field('bank_authorized', 'date',default=None, required=False),\n         Field('bank_cards', 'date',default=None, required=False),\n         Field('bank_connections', 'date',default=None, required=False),\n         Field('assets_currency', 'date',default=None, required=False),\n         Field('assets_relations', 'date',default=None, required=False),\n         Field('assets_details', 'date',default=None, required=False),\n         Field('info_docs', 'date',default=None, required=False),\n         Field('info_owner', 'date',default=None, required=False),\n         Field('info_family', 'date',default=None, required=False),\n         Field('info_amla', 'date',default=None, required=False),\n         Field('info_members', 'date',default=None, required=False),\n         Field('customer_photo', 'string', length=255,default=None, required=False),\n         Field('client_classification', 'string', length=255,default=None, required=False),\n         Field('service', 'string', length=255,default=None, required=False),\n         Field('general_services', 'string', length=255,default=None, required=False),\n         Field('income', 'string', length=255,default=None, required=False),\n         Field('financial_assets', 'string', length=255,default=None, required=False),\n         Field('surroundings', 'string', length=255,default=None, required=False),\n         Field('surroundings_comment', 'string', length=255,default=None, required=False),\n         Field('liquidity', 'string', length=255,default=None, required=False),\n         Field('target_return', 'string', length=255,default=None, required=False),\n         Field('risk_volatility', 'string', length=255,default=None, required=False),\n         Field('other_restrictions', 'date',default=None, required=False),\n         Field('investment_objectives', 'string', length=255,default=None, required=False),\n                #### some of these need to separated into suitability table, other table is regulatory and moneylaundering ALL need to be attached to CRs\n         Field('knowledge', 'string', length=255,default=None, required=False),\n         Field('knowledge_comment', 'string', length=255,default=None, required=False),\n         Field('investment_horizon', 'string', length=255,default=None, required=False),\n         Field('rate_security', 'string', length=255,default=None, required=False),\n         Field('budgeted_expenses', 'string', length=255,default=None, required=False),\n         Field('assets_proportion', 'string', length=255,default=None, required=False),\n         Field('liability', 'string', length=255,default=None, required=False),\n         Field('bankable_assets', 'string', length=255,default=None, required=False),\n         Field('planned_investment', 'string', length=255,default=None, required=False),\n         Field('planned_investment_specs', 'string', length=255,default=None, required=False),\n         Field('risk_evaluation', 'string', length=255,default=None, required=False),\n         Field('willingness', 'string', length=255,default=None, required=False),\n         Field('investment_loss', 'string', length=255,default=None, required=False),\n         Field('tolerance_level', 'string', length=255,default=None, required=False),\n         Field('fixed_interest', 'string', length=255,default=None, required=False),\n         Field('investment_strategy_income', 'string', length=255,default=None, required=False),\n         Field('balanced', 'string', length=255,default=None, required=False),\n         Field('growth', 'string', length=255,default=None, required=False),\n         Field('capital_gains', 'string', length=255,default=None, required=False),\n         Field('primary_investment', 'string', length=255,default=None, required=False),\n         Field('general_risk', 'string', length=255,default=None, required=False),\n         Field('additional_investment', 'string', length=255,default=None, required=False),\n         Field('investment_strategy', 'string', length=255,default=None, required=False),\n         Field('conact_type_to_asset_manager_c', 'string', length=100,default= 'discretionary', required=False),\n         Field('taxt_status_c', 'string', length=100,default= 'unknown', required=False),\n         Field('client_profile_c', 'string', length=100,default= 'professional', required=False),\n         Field('suitability_c', 'string', length=100,default= 'none', required=False),\n         Field('knowledge_c', 'string', length=100,default= 'none', required=False),\n         Field('experience_c', 'string', length=100,default= 'none', required=False),\n         Field('appropriateness_c', 'string', length=100,default= 'none', required=False),\n         Field('risk_capability_c', 'string', length=100,default= 'none', required=False),\n         Field('risk_capacity_c', 'string', length=100,default= 'none', required=False),\n         Field('investment_objective_c', 'string', length=100,default= 'none', required=False),\n         Field('investment_horizont_c', 'string', length=100,default= 'none', required=False),\n         Field('diversification_c', 'string', length=100,default= 'none', required=False),\n             \n         Field('name2_c', 'string', length=255,default=None, required=False),\n         Field('memberships_c', 'date',default=None, required=False))\n### crm still needs calls,tasks,\n\ndb.define_table('client_roles',\n\tField('clientrole', 'string', length=100,default= 'ContractingParty', required=False),\n\tField('client_role_signatory_r', 'string', length=100,default= 'IndividualSignature', required=False))\n\ndb.define_table('crm_contacts',\n         Field('clientroles_accountsclientroles_ida', 'string', length=36,default=None, required=False),\n         Field('clientroles_accountsaccounts_idb', 'string', length=36,default=None, required=False),\n\n         Field('clientroles_contactsclientroles_ida', 'string', length=36,default=None, required=False),\n         Field('clientroles_contactscontacts_idb', 'string', length=36,default=None, required=False),\n         Field('category', 'string', length=32,default=None, required=False),\n         Field('name', 'string', length=32,default=None, required=False),\n         Field('salutation', 'string', length=255,default=None, required=False),\n                \n         Field('first_name', 'string', length=100,default=None, required=False),\n         Field('last_name', 'string', length=100,default=None, required=False),\n         Field('title', 'string', length=100,default=None, required=False),\n                \n         Field('department', 'string', length=255,default=None, required=False),\n         Field('do_not_call', 'integer',default= '0', required=False),\n                \n         Field('assistant', 'string', length=75,default=None, required=False),\n         Field('assistant_phone', 'string', length=100,default=None, required=False),\n         Field('lead_source', 'string', length=255,default=None, required=False),\n         Field('reports_to_id', 'string', length=36,default=None, required=False),\n                \n         Field('birthdate', 'datetime',default=None, required=False),\n         Field('campaign_id', 'string', length=36,default=None, required=False),\n         Field('occupation_c', 'string', length=255,default=None, required=False),\n         Field('nickname', 'string', length=255,default=None, required=False),\n         Field('skype', 'string', length=255,default=None, required=False),\n         Field('facebook', 'string', length=255,default=None, required=False),\n         Field('linkedin', 'string', length=255,default=None, required=False),\n         Field('source', 'string', length=255,default=None, required=False),\n\n         Field('wealth_size', 'string', length=255,default=None, required=False),\n         Field('investment_size', 'string', length=255,default=None, required=False),\n                \n         Field('protect', 'string', length=255,default=None, required=False),\n         Field('mantain', 'string', length=255,default=None, required=False),\n         Field('improve', 'string', length=255,default=None, required=False),\n         Field('partner', 'string', length=255,default=None, required=False),\n                \n         Field('middle_name', 'string', length=255,default=None, required=False),\n                \n         Field('memberships', 'date',default=None, required=False),                \n         Field('type', 'string', length=255,default=None, required=False),\n                \n         Field('contact_language', 'string', length=255,default=None, required=False),\n                \n         Field('home_currency', 'string', length=255,default=None, required=False), ##might need for fee billing?\n                \n         Field('investment_currency', 'string', length=255,default=None, required=False),\n                \n         Field('married_status', 'string', length=255,default=None, required=False),\n         Field('children', 'string', length=255,default=None, required=False),\n         Field('nationality1', 'string', length=255,default=None, required=False),\n         Field('nationality2', 'string', length=255,default=None, required=False),\n         Field('nationality3', 'string', length=255,default=None, required=False),\n         Field('domicile', 'string', length=255,default=None, required=False),\n         Field('resident', 'string', length=255,default=None, required=False),\n\n         Field('photo_field_c', 'string', length=255,default=None, required=False),\n         Field('occupation', 'string', length=255,default=None, required=False),\n         Field('interests', 'date',default=None, required=False),\n                \n         Field('assistant_id', 'string', length=36,default=None, required=False), ## could this lead to a contact id?\n         Field('social_links', 'date',default=None, required=False))\n\ndb.define_table('portfolios',\n\tField('contacts__1contacts_ida', 'string', length=36,default=None, required=False),\n\tField('contacts_nx_idb', 'string', length=36,default=None, required=False))\n                \ndb.define_table('currencies',\n\tField('name', 'string', length=36,default=None, required=False),\n\tField('symbol', 'string', length=36,default=None, required=False),\n\tField('iso4217', 'string', length=3,default=None, required=False),\n\tField('conversion_rate', 'double',default= '0', required=False),\n\tField('status', 'string', length=100,default=None, required=False),\n\tField('currencies',default=None, required=False),\n\tField('currency_code', 'string', length=255,default=None, required=False),\n\tField('isin', 'string', length=255,default=None, required=False),\n\tField('rolotec_id', 'string', length=255,default=None, required=False))\n                \ndb.define_table('custom_fields',\n\tField('bean_id', 'string', length=36,default=None, required=False),\n\tField('set_num', 'integer',default= '0', required=False))\n\ndb.define_table('database_fundinfo',\n\tField('rolotec_id', 'string', length=255,default=None, required=False),\n\tField('history_date', 'date',default=None, required=False),\n\tField('close_price', 'decimal(16,2)',default=None, required=False),\n\tField('name', 'string', length=255,default=None, required=False),\n\tField('isin', 'string', length=32,default=None, required=False),\n\tField('document_type', 'string', length=4,default=None, required=False),\n\tField('document_country', 'string', length=2,default=None, required=False),\n\tField('document_language', 'string', length=2,default=None, required=False),\n\tField('document_url', 'string', length=255,default=None, required=False),\n\tField('document_idd', 'integer',default=None, required=False),\n\tField('document_record_date', 'date',default=None, required=False),\n\tField('document_modified_date', 'date',default=None, required=False),\n\tField('document_constraint', 'string', length=3,default=None, required=False),\n\tField('document_file', 'string', length=255,default=None, required=False),\n\tField('document_node', 'string', length=255,default=None, required=False))\n                \ndb.define_table('fdata_products',\n\tField('name', 'string', length=255,default=None, required=False),\n\n\tField('rolotec_id', 'string', length=255,default=None, required=False),\n\tField('isin', 'string', length=32,default=None, required=False),\n\tField('full_name', 'string', length=255,default=None, required=False),\n\tField('short_name', 'string', length=255,default=None, required=False),\n\tField('symbol', 'string', length=32,default=None, required=False),\n\tField('currency', 'string', length=16,default=None, required=False),\n\tField('market', 'string', length=16,default=None, required=False),\n\tField('volume_average', 'decimal(16,2)',default=None, required=False),\n\tField('volume_average_last_month', 'decimal(16,2)',default=None, required=False),\n\tField('price_52w_low', 'decimal(16,2)',default=None, required=False),\n\tField('price_52w_low_date', 'datetime',default=None, required=False),\n\tField('price_52w_high', 'decimal(16,2)',default=None, required=False),\n\tField('price_52w_high_date', 'datetime',default=None, required=False),\n\tField('valor', 'string', length=128,default=None, required=False),\n\tField('most_liquid_market', 'string', length=32,default=None, required=False),\n\tField('open', 'decimal(16,2)',default=None, required=False),\n\tField('open_date', 'datetime',default=None, required=False),\n\tField('performance_1w', 'decimal(16,2)',default=None, required=False),\n\tField('performance_1w_percent', 'decimal(16,2)',default=None, required=False),\n\tField('traded_currency', 'string', length=16,default=None, required=False),\n\tField('closing_price', 'decimal(16,2)',default=None, required=False),\n\tField('closing_price_date', 'datetime',default=None, required=False),\n\tField('mostliquid_market', 'string', length=32,default=None, required=False),\n\tField('bid_price', 'decimal(16,2)',default=None, required=False),\n\tField('bid_price_date', 'datetime',default=None, required=False),\n\tField('ask_price', 'decimal(16,2)',default=None, required=False),\n\tField('ask_price_date', 'datetime',default=None, required=False),\n\tField('opening_price', 'decimal(16,2)',default=None, required=False),\n\tField('opening_price_date', 'datetime',default=None, required=False),\n\tField('type', 'string', length=32,default=None, required=False),\n\tField('exchange_name', 'string', length=128,default=None, required=False),\n\tField('addfin_name', 'string', length=128,default=None, required=False),\n\tField('addfin_id', 'string', length=128,default=None, required=False),\n\tField('cusip', 'string', length=128,default=None, required=False),\n\tField('sedol', 'string', length=128,default=None, required=False),\n\tField('wkn', 'string', length=128,default=None, required=False),\n\tField('ticker', 'string', length=128,default=None, required=False),\n\tField('trader_symbol', 'string', length=128,default=None, required=False),\n\tField('yahoo_symbol', 'string', length=128,default=None, required=False),\n\tField('exchange_id', 'string', length=128,default=None, required=False),\n\tField('exchange_domicile', 'string', length=128,default=None, required=False),\n\tField('exchange_shortcut', 'string', length=128,default=None, required=False),\n\tField('exchange_url', 'string', length=128,default=None, required=False),\n\tField('exchange_code', 'string', length=128,default=None, required=False),\n\tField('issuer_name', 'string', length=128,default=None, required=False),\n\tField('addfin_instrument_type', 'string', length=128,default=None, required=False),\n\tField('addfin_reference_index', 'string', length=128,default=None, required=False),\n\tField('asset_class', 'string', length=128,default=None, required=False),\n\tField('geography', 'string', length=128,default=None, required=False),\n\tField('sector', 'string', length=128,default=None, required=False),\n\tField('style', 'string', length=128,default=None, required=False),\n\tField('alternative', 'string', length=128,default=None, required=False),\n\tField('investment_style', 'string', length=128,default=None, required=False),\n\tField('instrument_type', 'string', length=128,default=None, required=False),\n\tField('distribution_method', 'string', length=128,default=None, required=False),\n\tField('domicile', 'string', length=128,default=None, required=False),\n\tField('fund_assets', 'string', length=128,default=None, required=False),\n\tField('inception_date', 'datetime',default=None, required=False),\n\tField('maturity_date', 'datetime',default=None, required=False),\n\tField('launch_date', 'datetime',default=None, required=False),\n\tField('nav_calculation_frequency', 'string', length=128,default=None, required=False),\n\tField('dividends', 'string', length=128,default=None, required=False),\n\tField('bid_ask_spread', 'string', length=128,default=None, required=False),\n\tField('addfin_fit_id', 'string', length=128,default=None, required=False),\n\tField('minimum_subscription_amount', 'string', length=128,default=None, required=False),\n\tField('minimum_subsequent_subscription', 'string', length=128,default=None, required=False),\n\tField('subscription_notice', 'string', length=128,default=None, required=False),\n\tField('redemption_amount', 'string', length=128,default=None, required=False),\n\tField('market_capitalization', 'string', length=128,default=None, required=False),\n\tField('coupon', 'string', length=128,default=None, required=False),\n\tField('liquidity', 'string', length=128,default=None, required=False),\n\tField('average_daily_volume_current_month', 'string', length=128,default=None, required=False),\n\tField('average_daily_volume_last_month', 'string', length=128,default=None, required=False),\n\tField('date_price', 'string', length=128,default=None, required=False),\n\tField('price_high_current_year', 'decimal(16,2)',default=None, required=False),\n\tField('price_low_current_year', 'decimal(16,2)',default=None, required=False),\n\tField('nav_current', 'string', length=128,default=None, required=False),\n\tField('nav_previous_day', 'string', length=128,default=None, required=False),\n\tField('performance_1day', 'string', length=128,default=None, required=False),\n\tField('performance_last_month', 'string', length=128,default=None, required=False),\n\tField('performance_ytd', 'string', length=128,default=None, required=False),\n\tField('yield_to_maturity', 'string', length=128,default=None, required=False),\n\tField('accrued_interest', 'string', length=128,default=None, required=False),\n\tField('dividend_yield', 'string', length=128,default=None, required=False),\n\tField('zero_coupon_yield', 'string', length=128,default=None, required=False),\n\tField('volatility_30_days', 'string', length=128,default=None, required=False),\n\tField('volatility_90_days', 'string', length=128,default=None, required=False),\n\tField('volatility_180_days', 'string', length=128,default=None, required=False),\n\tField('volatility_250_days', 'string', length=128,default=None, required=False),\n\tField('tracking_error', 'string', length=128,default=None, required=False),\n\tField('var', 'string', length=128,default=None, required=False),\n\tField('cvar', 'string', length=128,default=None, required=False),\n\tField('beta_factor_1year', 'string', length=128,default=None, required=False),\n\tField('jensen_alpha_1_year', 'date',default=None, required=False),\n\tField('sharpe_ratio_1_year', 'string', length=128,default=None, required=False),\n\tField('sortino_ratio', 'string', length=128,default=None, required=False),\n\tField('prospect', 'string', length=128,default=None, required=False),\n\tField('kiid', 'string', length=128,default=None, required=False),\n\tField('factsheet', 'string', length=128,default=None, required=False),\n\tField('reports', 'string', length=128,default=None, required=False),\n\tField('research', 'string', length=128,default=None, required=False),\n\tField('prip', 'string', length=128,default=None, required=False),\n\tField('sales_prospectus', 'string', length=128,default=None, required=False),\n\tField('seminanual_report', 'string', length=128,default=None, required=False),\n\tField('fund_portrait', 'string', length=128,default=None, required=False),\n\tField('instrument_rating', 'string', length=128,default=None, required=False),\n\tField('restriction', 'string', length=128,default=None, required=False),\n\tField('asset_allocation_by_holding', 'string', length=128,default=None, required=False),\n\tField('asset_allocation_by_region', 'string', length=128,default=None, required=False),\n\tField('asset_allocation_by_types', 'string', length=128,default=None, required=False),\n\tField('nav_prev_day', 'string', length=128,default=None, required=False),\n\tField('bid_ask_spread_current', 'string', length=128,default=None, required=False),                \n\tField('duration', 'string', length=128,default=None, required=False),\n                \n\tField('average_daily_volume_month_to_date', 'datetime',default=None, required=False),\n\tField('morningstar_3y', 'string', length=128,default=None, required=False),\n\tField('morningstar', 'string', length=128,default=None, required=False),\n\tField('sp_rating', 'string', length=128,default=None, required=False),\n\tField('moody_rating', 'string', length=128,default=None, required=False),\n\tField('fitch_rating', 'string', length=128,default=None, required=False),\n\tField('management_fee', 'string', length=128,default=None, required=False),\n\tField('performance_fee', 'string', length=128,default=None, required=False),\n\tField('high_watermark', 'string', length=128,default=None, required=False),\n\tField('beta_factor_1_year', 'string', length=128,default=None, required=False),\n\tField('bid_ask_spread_1_day', 'string', length=128,default=None, required=False),\n\tField('telekurs_id', 'string', length=128,default=None, required=False),\n\tField('fee_level', 'string', length=128,default=None, required=False),\n\tField('min_fee', 'string', length=128,default=None, required=False),\n\tField('max_fee', 'string', length=128,default=None, required=False),\n\tField('frequency', 'string', length=128,default=None, required=False),\n\tField('free_of_charge', 'string', length=128,default=None, required=False),\n\tField('chart', 'string', length=128,default=None, required=False),\n\tField('product_related_headlines', 'string', length=128,default=None, required=False),\n\tField('bloomberg', 'string', length=128,default=None, required=False),\n\tField('impaqt_categ', 'string', length=128,default=None, required=False),\n\tField('aum', 'string', length=128,default=None, required=False),\n\tField('exchange_logo', 'string', length=128,default=None, required=False),\n\tField('issuer_logo', 'string', length=128,default=None, required=False),\n\tField('issuer_url', 'string', length=128,default=None, required=False),\n\tField('issuer_contact_mail', 'string', length=128,default=None, required=False),\n\tField('highest_number_of_ticks_name_exchange', 'string', length=128,default=None, required=False),\n\tField('issuer_contact_address', 'date',default=None, required=False),\n\tField('issuer_contact_phone', 'string', length=128,default=None, required=False),\n\tField('issuer_description', 'date',default=None, required=False),\n\tField('vehicle', 'date',default=None, required=False),\n\tField('legal_structure', 'date',default=None, required=False),\n\tField('replication_style', 'string', length=128,default=None, required=False),\n\tField('original_currency', 'string', length=128,default=None, required=False),\n\tField('currency_hedging', 'string', length=128,default=None, required=False),\n\tField('subscription_type', 'string', length=128,default=None, required=False),\n\tField('market_capitalization_updated', 'string', length=128,default=None, required=False),\n\tField('date_of_market_capitalization', 'datetime',default=None, required=False),\n\tField('replication_method', 'string', length=128,default=None, required=False),\n\tField('instrument_type_group', 'string', length=128,default=None, required=False),\n\tField('investment_type', 'string', length=128,default=None, required=False),\n\tField('given_reference_index', 'string', length=128,default=None, required=False),\n\tField('investment_policy', 'string', length=128,default=None, required=False),\n\tField('instrument_classification', 'string', length=128,default=None, required=False),\n\tField('special_funds_classification', 'string', length=128,default=None, required=False),\n\tField('asset_allocation_by_sector', 'string', length=128,default=None, required=False),\n\tField('asset_allocation_by_style', 'string', length=128,default=None, required=False),\n\tField('asset_allocation_by_asset_class', 'string', length=128,default=None, required=False),\n\tField('asset_allocation_by_maturities', 'string', length=128,default=None, required=False),\n\tField('asset_allocation_by_rating', 'string', length=128,default=None, required=False),\n\tField('number_of_holdings', 'string', length=128,default=None, required=False),\n\tField('mifid', 'string', length=128,default=None, required=False),\n\tField('svsp_risk_rating', 'string', length=128,default=None, required=False),\n\tField('svsp_var', 'string', length=128,default=None, required=False),\n\tField('kiid_risk_rating', 'string', length=128,default=None, required=False),\n\tField('kiid_date', 'string', length=128,default=None, required=False),\n\tField('pib_rating', 'string', length=128,default=None, required=False),\n\tField('distribution_country_1', 'string', length=128,default=None, required=False),\n\tField('tax_registration', 'string', length=128,default=None, required=False),\n\tField('monthly_average_price', 'string', length=128,default=None, required=False),\n\tField('bid_ask_spread_this_month', 'string', length=128,default=None, required=False),\n\tField('bid_ask_spread_last_month', 'string', length=128,default=None, required=False),\n\tField('nav_max', 'string', length=128,default=None, required=False),\n\tField('nav_ytd', 'string', length=128,default=None, required=False),\n\tField('other_charts', 'string', length=128,default=None, required=False),\n\tField('latest_market_data_id', 'string', length=32,default=None, required=False),\n\tField('reuters', 'date',default=None, required=False),\n\tField('rating_company', 'string', length=64,default=None, required=False),\n\tField('rating_level', 'string', length=64,default=None, required=False),\n\tField('kiid_ongoing_charges_figures', 'date',default=None, required=False),\n\tField('subscription_fee', 'date',default=None, required=False),\n\tField('redemption_fee', 'date',default=None, required=False),\n\tField('best_volume_per_currency_name_exchange', 'string', length=64,default=None, required=False),\n\tField('best_spread_per_currency_name_exchange', 'string', length=128,default=None, required=False),\n\tField('best_spread_over_all_name_exchange', 'date',default=None, required=False),\n\tField('best_volume_over_all_name_exchange', 'string', length=128,default=None, required=False),\n\tField('category', 'date',default=None, required=False),\n\tField('is_custom_index', 'string', length=64,default=None, required=False),\n\tField('issuer_given_name', 'string', length=128,default=None, required=False),\n\tField('telekurs_kname', 'string', length=128,default=None, required=False),\n\tField('datasource', 'date',default=None, required=False),\n\tField('hedged_currency', 'string', length=64,default=None, required=False),\n\tField('aum_size', 'string', length=64,default=None, required=False),\n\tField('issuer_given_index', 'string', length=64,default=None, required=False),\n\tField('issuing_size', 'string', length=64,default=None, required=False),\n\tField('performance_chart_last_12_months', 'string', length=64,default=None, required=False),\n\tField('average_daily_volume_chart_last_12_months', 'string', length=64,default=None, required=False))\n### check these vs rolotec and vwd mapping tables                \ndb.define_table('documents',\n\n\tField('description', 'date',default=None, required=False),\n\tField('assigned_user_id', 'string', length=36,default=None, required=False),\n\tField('rolotec_id', 'string', length=255,default=None, required=False),\n\n\tField('parent_id', 'string', length=36,default=None, required=False),\n\n\tField('data_type', 'string', length=100,default=None, required=False),\n\t\n\tField('change_log', 'string', length=255,default=None, required=False),\n\tField('document_id', 'string', length=36,default=None, required=False),\n\tField('doc_id', 'string', length=100,default=None, required=False),\n\tField('doc_type', 'string', length=100,default= 'Sugar', required=False),\n\tField('doc_url', 'string', length=255,default=None, required=False),\n   \n\tField('filename', 'string', length=255,default=None, required=False),\n\tField('file_ext', 'string', length=100,default=None, required=False),\n\tField('file_mime_type', 'string', length=100,default=None, required=False),\n\tField('revision', 'string', length=100,default=None, required=False),\n\tField('deleted', 'integer',default= '0', required=False),\n\n\tField('id', 'string', length=36,default=None, required=False),\n\n\n\tField('active_date', 'date',default=None, required=False),\n\tField('exp_date', 'date',default=None, required=False),\n\tField('category_id', 'string', length=100,default=None, required=False),\n\tField('subcategory_id', 'string', length=100,default=None, required=False),\n\tField('status_id', 'string', length=100,default=None, required=False),\n\tField('document_revision_id', 'string', length=36,default=None, required=False),\n                \n\tField('related_doc_id', 'string', length=36,default=None, required=False),\n\tField('related_doc_rev_id', 'string', length=36,default=None, required=False),\n\tField('is_template', 'integer',default= '0', required=False),\n\tField('template_type', 'string', length=100,default=None, required=False))\n                \ndb.define_table('emails',\n\tField('password', 'string', length=255,default=None, required=False),\n\tField('url', 'string', length=255,default=None, required=False),\n\tField('application', 'string', length=100,default= 'webex', required=False),\n\tField('api_data', 'date',default=None, required=False),\n\tField('consumer_key', 'string', length=255,default=None, required=False),\n\tField('consumer_secret', 'string', length=255,default=None, required=False),\n\tField('oauth_token', 'string', length=255,default=None, required=False),\n\tField('oauth_secret', 'string', length=255,default=None, required=False),\n\tField('validated', 'integer',default=None, required=False),\n\tField('id', 'string', length=36,default=None, required=False),\n\tField('email_address_id', 'string', length=36,default=None, required=False),\n\tField('bean_id', 'string', length=36,default=None, required=False),\n\tField('bean_module', 'string', length=100,default=None, required=False),\n\tField('primary_address', 'integer',default= '0', required=False),\n\tField('reply_to_address', 'integer',default= '0', required=False),\n\tField('email_address', 'string', length=255,default=None, required=False),\n\tField('email_address_caps', 'string', length=255,default=None, required=False),\n\tField('invalid_email', 'integer',default= '0', required=False),\n\tField('opt_out', 'integer',default= '0', required=False))\n\ndb.define_table('email_fields_meta_data',\n\tField('ie_id', 'string', length=36,default=None, required=False),\n\tField('mbox', 'string', length=60,default=None, required=False),\n\tField('subject', 'string', length=255,default=None, required=False),\n\tField('fromaddr', 'string', length=100,default=None, required=False),\n\tField('toaddr', 'string', length=255,default=None, required=False),\n\tField('senddate', 'datetime',default=None, required=False),\n\tField('message_id', 'string', length=255,default=None, required=False),\n\tField('mailsize', 'integer',default=None, required=False),\n\tField('imap_uid', 'integer',default=None, required=False),\n\tField('msgno', 'integer',default=None, required=False),\n\tField('recent', 'integer',default=None, required=False),\n\tField('flagged', 'integer',default=None, required=False),\n\tField('answered', 'integer',default=None, required=False),\n\tField('deleted', 'integer',default= '0', required=False),\n\tField('seen', 'integer',default=None, required=False),\n\tField('draft', 'integer',default=None, required=False),\n\tField('deleted', 'integer',default= '0', required=False),\n\tField('date_entered', 'datetime',default=None, required=False),\n\tField('date_modified', 'datetime',default=None, required=False),\n\tField('modified_user_id', 'string', length=36,default=None, required=False),\n\tField('created_by', 'string', length=36,default=None, required=False),\n\tField('name', 'string', length=255,default=None, required=False),\n\tField('from_name', 'string', length=100,default=None, required=False),\n\tField('from_addr', 'string', length=255,default=None, required=False),\n\tField('reply_to_name', 'string', length=100,default=None, required=False),\n\tField('reply_to_addr', 'string', length=255,default=None, required=False),\n\tField('inbound_email_id', 'string', length=36,default=None, required=False),\n\tField('date_start', 'datetime',default=None, required=False),\n\tField('template_id', 'string', length=36,default=None, required=False),\n\tField('status', 'string', length=100,default=None, required=False),\n\tField('campaign_id', 'string', length=36,default=None, required=False),\n\tField('all_prospect_lists', 'integer',default= '0', required=False),\n\tField('id', 'string', length=255,default=None, required=False),\n\tField('prospect_list_id', 'string', length=36,default=None, required=False),\n\tField('email_marketing_id', 'string', length=36,default=None, required=False),\n\tField('id', 'string', length=255,default=None, required=False),\n\tField('published', 'string', length=3,default=None, required=False),\n\tField('name', 'string', length=255,default=None, required=False),\n\tField('description', 'date',default=None, required=False),\n\n\tField('subject', 'string', length=255,default=None, required=False),\n\tField('body', 'date',default=None, required=False),\n\tField('body_html', 'date',default=None, required=False),\n\n\tField('text_only', 'integer',default=None, required=False),\n\tField('type', 'string', length=255,default=None, required=False),\n\tField('date_entered', 'datetime',default=None, required=False),\n\tField('date_modified', 'datetime',default=None, required=False),\n\n\tField('list_id', 'string', length=36,default=None, required=False),\n\tField('send_date_time', 'datetime',default=None, required=False),\n\tField('in_queue', 'integer',default= '0', required=False),\n\tField('in_queue_date', 'datetime',default=None, required=False),\n\tField('send_attempts', 'integer',default= '0', required=False),\n        Field('status', 'string', length=100,default=None, required=False),\n\tField('flagged', 'integer',default=None, required=False),\n\tField('reply_to_status', 'integer',default=None, required=False),\n\tField('intent', 'string', length=100,default= 'pick', required=False),\n\tField('mailbox_id', 'string', length=36,default=None, required=False),\n\tField('parent_type', 'string', length=100,default=None, required=False),\n\tField('parent_id', 'string', length=36,default=None, required=False),\n\n\tField('email_id', 'string', length=36,default=None, required=False),\n\tField('bean_id', 'string', length=36,default=None, required=False),\n\tField('bean_module', 'string', length=100,default=None, required=False),\n\tField('campaign_data', 'date',default=None, required=False),\n                \n\n\tField('email_id', 'string', length=36,default=None, required=False),\n\n\tField('from_addr', 'string', length=255,default=None, required=False),\n\tField('reply_to_addr', 'string', length=255,default=None, required=False),\n\tField('to_addrs', 'date',default=None, required=False),\n\tField('cc_addrs', 'date',default=None, required=False),\n\tField('bcc_addrs', 'date',default=None, required=False),\n\n\tField('description', 'date',default=None, required=False),\n\tField('description_html', 'date',default=None, required=False),\n\tField('raw_source', 'date',default=None, required=False),\n\n\n\tField('filter_type', 'string', length=100,default=None, required=False),\n\tField('filter_code', 'string', length=255,default=None, required=False),\n\tField('filter_parent', 'string', length=100,default= '0', required=False),\n\n\tField('created_by', 'string', length=36,default=None, required=False),\n\n\tField('topic_status', 'string', length=100,default= 'Select', required=False),\n\tField('topic_parent', 'string', length=100,default= 'Parent', required=False),\n\n\tField('vname', 'string', length=255,default=None, required=False),\n\tField('comments', 'string', length=255,default=None, required=False),\n\tField('help', 'string', length=255,default=None, required=False),\n\tField('custom_module', 'string', length=255,default=None, required=False),\n\tField('type', 'string', length=255,default=None, required=False),\n\tField('len', 'integer',default=None, required=False),\n\n\tField('audited', 'integer',default= '0', required=False),\n\tField('massupdate', 'integer',default= '0', required=False),\n\tField('duplicate_merge', 'integer',default= '0', required=False),\n\tField('reportable', 'integer',default= '1', required=False),\n\tField('importable', 'string', length=255,default=None, required=False))\n\ndb.define_table('gii',\n\tField('id', 'string', length=36,default=None, required=False),\n\tField('name', 'string', length=255,default=None, required=False),\n\tField('folder_type', 'string', length=25,default=None, required=False),\n\tField('parent_folder', 'string', length=36,default=None, required=False),\n\tField('has_child', 'integer',default= '0', required=False),\n\tField('is_group', 'integer',default= '0', required=False),\n\tField('is_dynamic', 'integer',default= '0', required=False),\n\tField('dynamic_query', 'date',default=None, required=False),\n\n\n\tField('folder_id', 'string', length=36,default=None, required=False),\n\tField('polymorphic_module', 'string', length=25,default=None, required=False),\n\tField('polymorphic_id', 'string', length=36,default=None, required=False),\n\n\tField('kbe_kube_id_c', 'string', length=36,default=None, required=False),\n\tField('risk_profile', 'string', length=255,default=None, required=False),\n\tField('suitability', 'string', length=255,default=None, required=False),\n\tField('appropiateness', 'string', length=255,default=None, required=False),\n\tField('general_services', 'string', length=255,default=None, required=False),\n\tField('income', 'string', length=255,default=None, required=False),\n\tField('financial_assets', 'string', length=255,default=None, required=False),\n\tField('surroundings', 'string', length=255,default=None, required=False),\n\tField('surroundings_comment', 'string', length=255,default=None, required=False),\n\tField('liquidity', 'string', length=255,default=None, required=False),\n\tField('target_return', 'string', length=255,default=None, required=False),\n\tField('risk_volatility', 'string', length=255,default=None, required=False),\n\tField('other_restrictions', 'date',default=None, required=False),\n\tField('investment_objectives', 'string', length=255,default=None, required=False),\n\tField('knowledge', 'string', length=255,default=None, required=False),\n\tField('knowledge_comment', 'string', length=255,default=None, required=False),\n\tField('investment_horizon', 'string', length=255,default=None, required=False),\n\tField('rate_security', 'string', length=255,default=None, required=False),\n\n\tField('budgeted_expenses', 'string', length=255,default=None, required=False),\n\tField('assets_proportion', 'string', length=255,default=None, required=False),\n\tField('liability', 'string', length=255,default=None, required=False),\n\tField('bankable_assets', 'string', length=255,default=None, required=False),\n\tField('planned_investment', 'string', length=255,default=None, required=False),\n\tField('planned_investment_specs', 'string', length=255,default=None, required=False),\n\n\tField('risk_evaluation', 'string', length=255,default=None, required=False),\n\tField('willingness', 'string', length=255,default=None, required=False),\n\tField('investment_loss', 'string', length=255,default=None, required=False),\n\tField('tolerance_level', 'string', length=255,default=None, required=False),\n\tField('fixed_interest', 'string', length=255,default=None, required=False),\n\tField('investment_strategy_income', 'string', length=255,default=None, required=False),\n\tField('balanced', 'string', length=255,default=None, required=False),\n\tField('growth', 'string', length=255,default=None, required=False),\n\tField('capital_gains', 'string', length=255,default=None, required=False),\n\tField('primary_investment', 'string', length=255,default=None, required=False),\n\tField('general_risk', 'string', length=255,default=None, required=False),\n\tField('additional_investment', 'string', length=255,default=None, required=False),\n\tField('investment_strategy', 'string', length=255,default=None, required=False))\ndb.define_table('crm_CustRelation',\n\tField('source', 'string', length=36,default=None, required=False),\n\tField('enclosure', 'string', length=1,default= ' ', required=False),\n\tField('delimiter', 'string', length=1,default= '', required=False),\n\tField('module', 'string', length=36,default=None, required=False),\n\tField('content', 'date',default=None, required=False),\n\tField('default_values', 'date',default=None, required=False),\n\tField('has_header', 'integer',default= '1', required=False),\n\n\tField('is_published', 'string', length=3,default= 'no', required=False),\n\n\tField('status', 'string', length=20,default=None, required=False),\n\n\tField('ie_timestamp', 'integer',default=None, required=False),\n\n\tField('alias', 'string', length=255,default=None, required=False),\n\tField('vqf', 'integer',default= '1', required=False),\n\tField('bvv', 'integer',default= '0', required=False),\n\tField('vsv', 'integer',default= '0', required=False),\n\tField('bovv', 'integer',default= '0', required=False),\n\tField('mifid2', 'integer',default= '0', required=False),\n\tField('kubetype', 'string', length=100,default= 'privateindividual', required=False),\n\tField('kubenp', 'string', length=100,default= 'other', required=False),\n\tField('kubele', 'string', length=100,default= 'contractingparty', required=False),\n\tField('amla_file_no', 'integer',default=None, required=False),\n\tField('kbe_vqf_id_c', 'string', length=36,default=None, required=False),\n\tField('kube_lang_other', 'string', length=255,default=None, required=False),\n\tField('kube_sprache', 'date',default=None, required=False),\n\tField('contract_date', 'date',default=None, required=False),\n\tField('geschaeftsbez_aufnahme', 'date',default=None, required=False),\n\tField('finma', 'integer',default= '0', required=False),\n\tField('fma', 'integer',default= '0', required=False),\n\tField('bafin', 'integer',default= '0', required=False),\n\n\tField('employee_id_c', 'string', length=36,default=None, required=False),\n\tField('client_currency', 'string', length=10,default=None, required=False),\n\n\tField('contract_document', 'string', length=255,default=None, required=False))\t\ndb.define_table('kreports',\n\tField('report_module', 'string', length=25,default=None, required=False),\n\tField('report_status', 'string', length=1,default=None, required=False),\n\tField('union_modules', 'date',default=None, required=False),\n\tField('reportoptions', 'date',default=None, required=False),\n\tField('listtype', 'string', length=10,default=None, required=False),\n\tField('listtypeproperties', 'date',default=None, required=False),\n\tField('selectionlimit', 'string', length=25,default=None, required=False),\n\tField('presentation_params', 'date',default=None, required=False),\n\tField('visualization_params', 'date',default=None, required=False),\n\tField('integration_params', 'date',default=None, required=False),\n\tField('wheregroups', 'date',default=None, required=False),\n\tField('whereconditions', 'date',default=None, required=False),\n\tField('listfields', 'date',default=None, required=False),\n\tField('unionlistfields', 'date',default=None, required=False),\n\tField('advancedoptions', 'date',default=None, required=False))\ndb.define_table('leads', ## use same as contacts except less fields\n\n\tField('converted', 'integer',default= '0', required=False),\n\tField('refered_by', 'string', length=100,default=None, required=False),\n\tField('lead_source', 'string', length=100,default=None, required=False),\n\tField('lead_source_description', 'date',default=None, required=False),\n\tField('status', 'string', length=100,default=None, required=False),\n\tField('status_description', 'date',default=None, required=False),\n\n\tField('opportunity_id', 'string', length=36,default=None, required=False),\n\tField('campaign_id', 'string', length=36,default=None, required=False),\n\n\tField('birthdate', 'date',default=None, required=False),\n\tField('portal_name', 'string', length=255,default=None, required=False),\n\tField('portal_app', 'string', length=255,default=None, required=False),\n\tField('website', 'string', length=255,default=None, required=False),\n\n\tField('middle_name', 'string', length=255,default=None, required=False))\n\ndb.define_table('fundinfo_docs',\n\tField('name', 'string', length=36,default=None, required=False))\n                \ndb.define_table('fdata_vdf',\n\tField('name', 'string', length=36,default=None, required=False))\n                \ndb.define_table('fdata_rolotec',\n\tField('name', 'string', length=36,default=None, required=False))\n                \ndb.define_table('portf_mandate_bands',\n\tField('name', 'string', length=36,default=None, required=False))\n                \ndb.define_table('portf_rulesets',\n         Field('rule_type', 'string', length=255,default=None, required=False), ## ExcludedName,ExcludedSector,Percentage\n         Field('rule_target', 'string', length=255,default=None, required=False), ## Names,Sectors,Perc_concentration,Perc_Absolute\n         Field('monitor_freq', 'string', length=255,default=None, required=False), ## real,simulated,other\n         Field('name', 'string', length=36,default=None, required=False))\n                                \ndb.define_table('crm_tasks',\n\tField('name', 'string', length=36,default=None, required=False))\n                \ndb.define_table('crm_meetings',\n\tField('name', 'string', length=36,default=None, required=False))\n                \ndb.define_table('fdata_transactions',\n         Field('name', 'string', length=36,default=None, required=False))\n                \ndb.define_table('portf_portfolio',\n         Field('portfolio_type', 'string', length=255,default=None, required=False), ## real,simulated,other\n         Field('name', 'string', length=36,default=None, required=False))\n\ndb.define_table('portf_allocationModel',\n         Field('website', 'string', length=255,default=None, required=False),\n         Field('name', 'string', length=36,default=None, required=False))\n\ndb.define_table('comp_pii',\n\tField('name', 'string', length=36,default=None, required=False))\ndb.define_table('rules_n_bands',\n\tField('name', 'string', length=36,default=None, required=False))\ndb.define_table('portf_stamm_acct',\n\tField('name', 'string', length=36,default=None, required=False))\ndb.define_table('portf_sub_acct',\n\tField('name', 'string', length=36,default=None, required=False))\ndb.define_table('portf_depot_banks',\n\tField('name', 'string', length=36,default=None, required=False))\ndb.define_table('portf_benchmarks',\n\tField('name', 'string', length=36,default=None, required=False))\n"
p7
sS'snapshot'
p8
(dp9
S'exception'
p10
(dp11
S'__getslice__'
p12
S"<method-wrapper '__getslice__' of exceptions.SyntaxError object>"
p13
sS'text'
p14
S'"         Field(\'date_entered\', \'datetime\',default=None, required=False),\\n"'
p15
sS'__str__'
p16
S"<method-wrapper '__str__' of exceptions.SyntaxError object>"
p17
sS'__reduce__'
p18
S'<built-in method __reduce__ of exceptions.SyntaxError object>'
p19
sS'__dict__'
p20
S'{}'
p21
sS'__sizeof__'
p22
S'<built-in method __sizeof__ of exceptions.SyntaxError object>'
p23
sS'__init__'
p24
S"<method-wrapper '__init__' of exceptions.SyntaxError object>"
p25
sS'__setattr__'
p26
S"<method-wrapper '__setattr__' of exceptions.SyntaxError object>"
p27
sS'__reduce_ex__'
p28
S'<built-in method __reduce_ex__ of exceptions.SyntaxError object>'
p29
sS'__new__'
p30
S'<built-in method __new__ of type object>'
p31
sS'__format__'
p32
S'<built-in method __format__ of exceptions.SyntaxError object>'
p33
sS'__class__'
p34
S"<type 'exceptions.SyntaxError'>"
p35
sS'filename'
p36
S"r'C:\\WEB2PY\\EXE_RP\\web2py\\applications\\AddfinV5simple\\models\\rp_newest.py'"
p37
sS'lineno'
p38
S'54'
p39
sS'msg'
p40
S"'invalid syntax'"
p41
sS'__doc__'
p42
S"'Invalid syntax.'"
p43
sS'__getitem__'
p44
S"<method-wrapper '__getitem__' of exceptions.SyntaxError object>"
p45
sS'__setstate__'
p46
S'<built-in method __setstate__ of exceptions.SyntaxError object>'
p47
sS'__getattribute__'
p48
S"<method-wrapper '__getattribute__' of exceptions.SyntaxError object>"
p49
sS'print_file_and_line'
p50
S'None'
p51
sS'args'
p52
S'(\'invalid syntax\', (r\'C:\\WEB2PY\\EXE_RP\\web2py\\applications\\AddfinV5simple\\models\\rp_newest.py\', 54, 14, "         Field(\'date_entered\', \'datetime\',default=None, required=False),\\n"))'
p53
sS'__subclasshook__'
p54
S'<built-in method __subclasshook__ of type object>'
p55
sS'offset'
p56
S'14'
p57
sS'__unicode__'
p58
S'<built-in method __unicode__ of exceptions.SyntaxError object>'
p59
sS'__delattr__'
p60
S"<method-wrapper '__delattr__' of exceptions.SyntaxError object>"
p61
sS'__repr__'
p62
S"<method-wrapper '__repr__' of exceptions.SyntaxError object>"
p63
sS'__hash__'
p64
S"<method-wrapper '__hash__' of exceptions.SyntaxError object>"
p65
ssS'evalue'
p66
S'invalid syntax (rp_newest.py, line 54)'
p67
sS'request'
p68
cgluon.html
XML_unpickle
p69
(S's\x9eg\x00\x00<div><table><tr><td style="font-weight:bold;vertical-align:top;">ajax</td><td style="vertical-align:top;">:</td><td><div>False</div></td></tr><tr><td style="font-weight:bold;vertical-align:top;">application</td><td style="vertical-align:top;">:</td><td><div>AddfinV5simple</div></td></tr><tr><td style="font-weight:bold;vertical-align:top;">args</td><td style="vertical-align:top;">:</td><td><div><table></table></div></td></tr><tr><td style="font-weight:bold;vertical-align:top;">cid</td><td style="vertical-align:top;">:</td><td><div>None</div></td></tr><tr><td style="font-weight:bold;vertical-align:top;">client</td><td style="vertical-align:top;">:</td><td><div>127.0.0.1</div></td></tr><tr><td style="font-weight:bold;vertical-align:top;">controller</td><td style="vertical-align:top;">:</td><td><div>default</div></td></tr><tr><td style="font-weight:bold;vertical-align:top;">cookies</td><td style="vertical-align:top;">:</td><td><div><table><tr><td style="font-weight:bold;vertical-align:top;">session_id_addfinv3</td><td style="vertical-align:top;">:</td><td><div>127.0.0.1-fcdbc3a9-e9fc-4298-8f1e-f82c70e71d97<table><tr><td style="font-weight:bold;vertical-align:top;">comment</td><td style="vertical-align:top;">:</td><td><div></div></td></tr><tr><td style="font-weight:bold;vertical-align:top;">domain</td><td style="vertical-align:top;">:</td><td><div></div></td></tr><tr><td style="font-weight:bold;vertical-align:top;">expires</td><td style="vertical-align:top;">:</td><td><div></div></td></tr><tr><td style="font-weight:bold;vertical-align:top;">httponly</td><td style="vertical-align:top;">:</td><td><div></div></td></tr><tr><td style="font-weight:bold;vertical-align:top;">max-age</td><td style="vertical-align:top;">:</td><td><div></div></td></tr><tr><td style="font-weight:bold;vertical-align:top;">path</td><td style="vertical-align:top;">:</td><td><div></div></td></tr><tr><td style="font-weight:bold;vertical-align:top;">secure</td><td style="vertical-align:top;">:</td><td><div></div></td></tr><tr><td style="font-weight:bold;vertical-align:top;">version</td><td style="vertical-align:top;">:</td><td><div></div></td></tr></table></div></td></tr><tr><td style="font-weight:bold;vertical-align:top;">session_id_admin</td><td style="vertical-align:top;">:</td><td><div>127.0.0.1-d0fcc8ca-7a2d-4d1a-a916-b1079c9377d7<table><tr><td style="font-weight:bold;vertical-align:top;">comment</td><td style="vertical-align:top;">:</td><td><div></div></td></tr><tr><td style="font-weight:bold;vertical-align:top;">domain</td><td style="vertical-align:top;">:</td><td><div></div></td></tr><tr><td style="font-weight:bold;vertical-align:top;">expires</td><td style="vertical-align:top;">:</td><td><div></div></td></tr><tr><td style="font-weight:bold;vertical-align:top;">httponly</td><td style="vertical-align:top;">:</td><td><div></div></td></tr><tr><td style="font-weight:bold;vertical-align:top;">max-age</td><td style="vertical-align:top;">:</td><td><div></div></td></tr><tr><td style="font-weight:bold;vertical-align:top;">path</td><td style="vertical-align:top;">:</td><td><div></div></td></tr><tr><td style="font-weight:bold;vertical-align:top;">secure</td><td style="vertical-align:top;">:</td><td><div></div></td></tr><tr><td style="font-weight:bold;vertical-align:top;">version</td><td style="vertical-align:top;">:</td><td><div></div></td></tr></table></div></td></tr><tr><td style="font-weight:bold;vertical-align:top;">session_id_crmraw</td><td style="vertical-align:top;">:</td><td><div>127.0.0.1-c63ee9db-bf95-4c5c-9ba4-fb84ac052322<table><tr><td style="font-weight:bold;vertical-align:top;">comment</td><td style="vertical-align:top;">:</td><td><div></div></td></tr><tr><td style="font-weight:bold;vertical-align:top;">domain</td><td style="vertical-align:top;">:</td><td><div></div></td></tr><tr><td style="font-weight:bold;vertical-align:top;">expires</td><td style="vertical-align:top;">:</td><td><div></div></td></tr><tr><td style="font-weight:bold;vertical-align:top;">httponly</td><td style="vertical-align:top;">:</td><td><div></div></td></tr><tr><td style="font-weight:bold;vertical-align:top;">max-age</td><td style="vertical-align:top;">:</td><td><div></div></td></tr><tr><td style="font-weight:bold;vertical-align:top;">path</td><td style="vertical-align:top;">:</td><td><div></div></td></tr><tr><td style="font-weight:bold;vertical-align:top;">secure</td><td style="vertical-align:top;">:</td><td><div></div></td></tr><tr><td style="font-weight:bold;vertical-align:top;">version</td><td style="vertical-align:top;">:</td><td><div></div></td></tr></table></div></td></tr><tr><td style="font-weight:bold;vertical-align:top;">session_id_crmrawfullfields</td><td style="vertical-align:top;">:</td><td><div>127.0.0.1-d7a5baf1-f883-495c-9cff-631275da4bef<table><tr><td style="font-weight:bold;vertical-align:top;">comment</td><td style="vertical-align:top;">:</td><td><div></div></td></tr><tr><td style="font-weight:bold;vertical-align:top;">domain</td><td style="vertical-align:top;">:</td><td><div></div></td></tr><tr><td style="font-weight:bold;vertical-align:top;">expires</td><td style="vertical-align:top;">:</td><td><div></div></td></tr><tr><td style="font-weight:bold;vertical-align:top;">httponly</td><td style="vertical-align:top;">:</td><td><div></div></td></tr><tr><td style="font-weight:bold;vertical-align:top;">max-age</td><td style="vertical-align:top;">:</td><td><div></div></td></tr><tr><td style="font-weight:bold;vertical-align:top;">path</td><td style="vertical-align:top;">:</td><td><div></div></td></tr><tr><td style="font-weight:bold;vertical-align:top;">secure</td><td style="vertical-align:top;">:</td><td><div></div></td></tr><tr><td style="font-weight:bold;vertical-align:top;">version</td><td style="vertical-align:top;">:</td><td><div></div></td></tr></table></div></td></tr><tr><td style="font-weight:bold;vertical-align:top;">session_id_welcome</td><td style="vertical-align:top;">:</td><td><div>127.0.0.1-fdf68b91-11a2-49fc-b560-745d3fe25726<table><tr><td style="font-weight:bold;vertical-align:top;">comment</td><td style="vertical-align:top;">:</td><td><div></div></td></tr><tr><td style="font-weight:bold;vertical-align:top;">domain</td><td style="vertical-align:top;">:</td><td><div></div></td></tr><tr><td style="font-weight:bold;vertical-align:top;">expires</td><td style="vertical-align:top;">:</td><td><div></div></td></tr><tr><td style="font-weight:bold;vertical-align:top;">httponly</td><td style="vertical-align:top;">:</td><td><div></div></td></tr><tr><td style="font-weight:bold;vertical-align:top;">max-age</td><td style="vertical-align:top;">:</td><td><div></div></td></tr><tr><td style="font-weight:bold;vertical-align:top;">path</td><td style="vertical-align:top;">:</td><td><div></div></td></tr><tr><td style="font-weight:bold;vertical-align:top;">secure</td><td style="vertical-align:top;">:</td><td><div></div></td></tr><tr><td style="font-weight:bold;vertical-align:top;">version</td><td style="vertical-align:top;">:</td><td><div></div></td></tr></table></div></td></tr></table></div></td></tr><tr><td style="font-weight:bold;vertical-align:top;">env</td><td style="vertical-align:top;">:</td><td><div><table><tr><td style="font-weight:bold;vertical-align:top;">HTTP_ACCEPT</td><td style="vertical-align:top;">:</td><td><div>text/html,application/xhtml+xml,application/xml;q=0.9,image/webp,*/*;q=0.8</div></td></tr><tr><td style="font-weight:bold;vertical-align:top;">HTTP_ACCEPT_ENCODING</td><td style="vertical-align:top;">:</td><td><div>gzip, deflate, sdch</div></td></tr><tr><td style="font-weight:bold;vertical-align:top;">HTTP_ACCEPT_LANGUAGE</td><td style="vertical-align:top;">:</td><td><div>en-US,en;q=0.8,de-DE;q=0.6,de;q=0.4</div></td></tr><tr><td style="font-weight:bold;vertical-align:top;">HTTP_CONNECTION</td><td style="vertical-align:top;">:</td><td><div>keep-alive</div></td></tr><tr><td style="font-weight:bold;vertical-align:top;">HTTP_COOKIE</td><td style="vertical-align:top;">:</td><td><div>session_id_crmraw=127.0.0.1-c63ee9db-bf95-4c5c-9ba4-fb84ac052322; session_id_crmrawfullfields=127.0.0.1-d7a5baf1-f883-495c-9cff-631275da4bef; session_id_addfinv3=127.0.0.1-fcdbc3a9-e9fc-4298-8f1e-f82c70e71d97; session_id_welcome=127.0.0.1-fdf68b91-11a2-49fc-b560-745d3fe25726; session_id_admin=127.0.0.1-d0fcc8ca-7a2d-4d1a-a916-b1079c9377d7</div></td></tr><tr><td style="font-weight:bold;vertical-align:top;">HTTP_HOST</td><td style="vertical-align:top;">:</td><td><div>127.0.0.1:8000</div></td></tr><tr><td style="font-weight:bold;vertical-align:top;">HTTP_REFERER</td><td style="vertical-align:top;">:</td><td><div>http://127.0.0.1:8000/admin/default/site</div></td></tr><tr><td style="font-weight:bold;vertical-align:top;">HTTP_UPGRADE_INSECURE_REQUESTS</td><td style="vertical-align:top;">:</td><td><div>1</div></td></tr><tr><td style="font-weight:bold;vertical-align:top;">HTTP_USER_AGENT</td><td style="vertical-align:top;">:</td><td><div>Mozilla/5.0 (Windows NT 6.1; WOW64) AppleWebKit/537.36 (KHTML, like Gecko) Chrome/50.0.2661.102 Safari/537.36</div></td></tr><tr><td style="font-weight:bold;vertical-align:top;">PATH_INFO</td><td style="vertical-align:top;">:</td><td><div>/AddfinV5simple/default/index</div></td></tr><tr><td style="font-weight:bold;vertical-align:top;">QUERY_STRING</td><td style="vertical-align:top;">:</td><td><div></div></td></tr><tr><td style="font-weight:bold;vertical-align:top;">REMOTE_ADDR</td><td style="vertical-align:top;">:</td><td><div>127.0.0.1</div></td></tr><tr><td style="font-weight:bold;vertical-align:top;">REMOTE_PORT</td><td style="vertical-align:top;">:</td><td><div>53889</div></td></tr><tr><td style="font-weight:bold;vertical-align:top;">REQUEST_METHOD</td><td style="vertical-align:top;">:</td><td><div>GET</div></td></tr><tr><td style="font-weight:bold;vertical-align:top;">SCRIPT_NAME</td><td style="vertical-align:top;">:</td><td><div></div></td></tr><tr><td style="font-weight:bold;vertical-align:top;">SERVER_NAME</td><td style="vertical-align:top;">:</td><td><div>RPBASE1</div></td></tr><tr><td style="font-weight:bold;vertical-align:top;">SERVER_PORT</td><td style="vertical-align:top;">:</td><td><div>8000</div></td></tr><tr><td style="font-weight:bold;vertical-align:top;">SERVER_PROTOCOL</td><td style="vertical-align:top;">:</td><td><div>HTTP/1.1</div></td></tr><tr><td style="font-weight:bold;vertical-align:top;">SERVER_SOFTWARE</td><td style="vertical-align:top;">:</td><td><div>Rocket 1.2.6</div></td></tr><tr><td style="font-weight:bold;vertical-align:top;">app_folders</td><td style="vertical-align:top;">:</td><td><div>set([&#x27;C:\\\\WEB2PY\\\\EXE_RP\\\\web2py\\\\applications\\\\admin\\\\&#x27;, &#x27;C:\\\\WEB2PY\\\\EXE_RP\\\\web2py\\\\applications\\\\AddfinV5simple\\\\&#x27;, &#x27;C:\\\\WEB2PY\\\\EXE_RP\\\\web2py\\\\applications\\\\welcome\\\\&#x27;])</div></td></tr><tr><td style="font-weight:bold;vertical-align:top;">applications_parent</td><td style="vertical-align:top;">:</td><td><div>C:\\WEB2PY\\EXE_RP\\web2py</div></td></tr><tr><td style="font-weight:bold;vertical-align:top;">cmd_args</td><td style="vertical-align:top;">:</td><td><div><table></table></div></td></tr><tr><td style="font-weight:bold;vertical-align:top;">cmd_options</td><td style="vertical-align:top;">:</td><td><div>&lt;Values at 0x314d7b0: {&#x27;verbose&#x27;: False, &#x27;ip&#x27;: &#x27;127.0.0.1&#x27;, &#x27;debuglevel&#x27;: 30, &#x27;with_scheduler&#x27;: False, &#x27;ips&#x27;: [], &#x27;shutdown_timeout&#x27;: 5, &#x27;taskbar&#x27;: False, &#x27;with_coverage&#x27;: False, &#x27;scheduler_groups&#x27;: None, &#x27;port&#x27;: 8000, &#x27;maxthreads&#x27;: None, &#x27;softcron&#x27;: False, &#x27;server_name&#x27;: &#x27;RPBASE1&#x27;, &#x27;bpython&#x27;: False, &#x27;nogui&#x27;: False, &#x27;pid_filename&#x27;: &#x27;httpserver.pid&#x27;, &#x27;print_errors&#x27;: False, &#x27;extcron&#x27;: False, &#x27;runcron&#x27;: False, &#x27;run_system_tests&#x27;: False, &#x27;test&#x27;: None, &#x27;folder&#x27;: &#x27;C:\\\\WEB2PY\\\\EXE_RP\\\\web2py&#x27;, &#x27;config&#x27;: &#x27;&#x27;, &#x27;minthreads&#x27;: None, &#x27;shell&#x27;: None, &#x27;run&#x27;: &#x27;&#x27;, &#x27;log_filename&#x27;: &#x27;httpserver.log&#x27;, &#x27;profiler_dir&#x27;: None, &#x27;args&#x27;: [&#x27;&#x27;], &#x27;socket_timeout&#x27;: 5, &#x27;ssl_ca_certificate&#x27;: None, &#x27;scheduler&#x27;: None, &#x27;interfaces&#x27;: None, &#x27;ssl_private_key&#x27;: &#x27;&#x27;, &#x27;gae&#x27;: None, &#x27;password&#x27;: &#x27;&lt;ask&gt;&#x27;, &#x27;request_queue_size&#x27;: 5, &#x27;ssl_certificate&#x27;: &#x27;&#x27;, &#x27;cronjob&#x27;: False, &#x27;numthreads&#x27;: None, &#x27;quiet&#x27;: False, &#x27;import_models&#x27;: False, &#x27;timeout&#x27;: 10, &#x27;plain&#x27;: False, &#x27;nobanner&#x27;: False}&gt;</div></td></tr><tr><td style="font-weight:bold;vertical-align:top;">db_sessions</td><td style="vertical-align:top;">:</td><td><div>set([])</div></td></tr><tr><td style="font-weight:bold;vertical-align:top;">debugging</td><td style="vertical-align:top;">:</td><td><div>False</div></td></tr><tr><td style="font-weight:bold;vertical-align:top;">gluon_parent</td><td style="vertical-align:top;">:</td><td><div>C:\\WEB2PY\\EXE_RP\\web2py</div></td></tr><tr><td style="font-weight:bold;vertical-align:top;">http_accept</td><td style="vertical-align:top;">:</td><td><div>text/html,application/xhtml+xml,application/xml;q=0.9,image/webp,*/*;q=0.8</div></td></tr><tr><td style="font-weight:bold;vertical-align:top;">http_accept_encoding</td><td style="vertical-align:top;">:</td><td><div>gzip, deflate, sdch</div></td></tr><tr><td style="font-weight:bold;vertical-align:top;">http_accept_language</td><td style="vertical-align:top;">:</td><td><div>en-US,en;q=0.8,de-DE;q=0.6,de;q=0.4</div></td></tr><tr><td style="font-weight:bold;vertical-align:top;">http_connection</td><td style="vertical-align:top;">:</td><td><div>keep-alive</div></td></tr><tr><td style="font-weight:bold;vertical-align:top;">http_cookie</td><td style="vertical-align:top;">:</td><td><div>session_id_crmraw=127.0.0.1-c63ee9db-bf95-4c5c-9ba4-fb84ac052322; session_id_crmrawfullfields=127.0.0.1-d7a5baf1-f883-495c-9cff-631275da4bef; session_id_addfinv3=127.0.0.1-fcdbc3a9-e9fc-4298-8f1e-f82c70e71d97; session_id_welcome=127.0.0.1-fdf68b91-11a2-49fc-b560-745d3fe25726; session_id_admin=127.0.0.1-d0fcc8ca-7a2d-4d1a-a916-b1079c9377d7</div></td></tr><tr><td style="font-weight:bold;vertical-align:top;">http_host</td><td style="vertical-align:top;">:</td><td><div>127.0.0.1:8000</div></td></tr><tr><td style="font-weight:bold;vertical-align:top;">http_referer</td><td style="vertical-align:top;">:</td><td><div>http://127.0.0.1:8000/admin/default/site</div></td></tr><tr><td style="font-weight:bold;vertical-align:top;">http_upgrade_insecure_requests</td><td style="vertical-align:top;">:</td><td><div>1</div></td></tr><tr><td style="font-weight:bold;vertical-align:top;">http_user_agent</td><td style="vertical-align:top;">:</td><td><div>Mozilla/5.0 (Windows NT 6.1; WOW64) AppleWebKit/537.36 (KHTML, like Gecko) Chrome/50.0.2661.102 Safari/537.36</div></td></tr><tr><td style="font-weight:bold;vertical-align:top;">is_jython</td><td style="vertical-align:top;">:</td><td><div>False</div></td></tr><tr><td style="font-weight:bold;vertical-align:top;">is_pypy</td><td style="vertical-align:top;">:</td><td><div>False</div></td></tr><tr><td style="font-weight:bold;vertical-align:top;">is_source</td><td style="vertical-align:top;">:</td><td><div>False</div></td></tr><tr><td style="font-weight:bold;vertical-align:top;">local_hosts</td><td style="vertical-align:top;">:</td><td><div><table><tr><td><div>::ffff:127.0.0.1</div></td></tr><tr><td><div>::1</div></td></tr><tr><td><div>192.168.1.56</div></td></tr><tr><td><div>fe80::48d0:efaa:de27:62ec%10</div></td></tr><tr><td><div>RPBASE1</div></td></tr><tr><td><div>RPBASE1.office.actant.com</div></td></tr><tr><td><div>127.0.0.1</div></td></tr></table></div></td></tr><tr><td style="font-weight:bold;vertical-align:top;">path_info</td><td style="vertical-align:top;">:</td><td><div>/AddfinV5simple/default/index</div></td></tr><tr><td style="font-weight:bold;vertical-align:top;">query_string</td><td style="vertical-align:top;">:</td><td><div></div></td></tr><tr><td style="font-weight:bold;vertical-align:top;">remote_addr</td><td style="vertical-align:top;">:</td><td><div>127.0.0.1</div></td></tr><tr><td style="font-weight:bold;vertical-align:top;">remote_port</td><td style="vertical-align:top;">:</td><td><div>53889</div></td></tr><tr><td style="font-weight:bold;vertical-align:top;">request_method</td><td style="vertical-align:top;">:</td><td><div>GET</div></td></tr><tr><td style="font-weight:bold;vertical-align:top;">request_uri</td><td style="vertical-align:top;">:</td><td><div>/AddfinV5simple/default/index</div></td></tr><tr><td style="font-weight:bold;vertical-align:top;">script_name</td><td style="vertical-align:top;">:</td><td><div></div></td></tr><tr><td style="font-weight:bold;vertical-align:top;">server_name</td><td style="vertical-align:top;">:</td><td><div>RPBASE1</div></td></tr><tr><td style="font-weight:bold;vertical-align:top;">server_port</td><td style="vertical-align:top;">:</td><td><div>8000</div></td></tr><tr><td style="font-weight:bold;vertical-align:top;">server_protocol</td><td style="vertical-align:top;">:</td><td><div>HTTP/1.1</div></td></tr><tr><td style="font-weight:bold;vertical-align:top;">server_software</td><td style="vertical-align:top;">:</td><td><div>Rocket 1.2.6</div></td></tr><tr><td style="font-weight:bold;vertical-align:top;">web2py_path</td><td style="vertical-align:top;">:</td><td><div>C:\\WEB2PY\\EXE_RP\\web2py</div></td></tr><tr><td style="font-weight:bold;vertical-align:top;">web2py_version</td><td style="vertical-align:top;">:</td><td><div>2.13.4-stable+timestamp.2015.12.26.04.59.39</div></td></tr><tr><td style="font-weight:bold;vertical-align:top;">wsgi.errors</td><td style="vertical-align:top;">:</td><td><div>&lt;open file &#x27;&lt;stderr&gt;&#x27;, mode &#x27;w&#x27; at 0x0027D0D0&gt;</div></td></tr><tr><td style="font-weight:bold;vertical-align:top;">wsgi.file_wrapper</td><td style="vertical-align:top;">:</td><td><div>&lt;class wsgiref.util.FileWrapper at 0x03B2BC38&gt;</div></td></tr><tr><td style="font-weight:bold;vertical-align:top;">wsgi.input</td><td style="vertical-align:top;">:</td><td><div>&lt;socket._fileobject object at 0x032F27F0&gt;</div></td></tr><tr><td style="font-weight:bold;vertical-align:top;">wsgi.multiprocess</td><td style="vertical-align:top;">:</td><td><div>False</div></td></tr><tr><td style="font-weight:bold;vertical-align:top;">wsgi.multithread</td><td style="vertical-align:top;">:</td><td><div>True</div></td></tr><tr><td style="font-weight:bold;vertical-align:top;">wsgi.run_once</td><td style="vertical-align:top;">:</td><td><div>False</div></td></tr><tr><td style="font-weight:bold;vertical-align:top;">wsgi.url_scheme</td><td style="vertical-align:top;">:</td><td><div>http</div></td></tr><tr><td style="font-weight:bold;vertical-align:top;">wsgi.version</td><td style="vertical-align:top;">:</td><td><div><table><tr><td><div>1</div></td></tr><tr><td><div>0</div></td></tr></table></div></td></tr><tr><td style="font-weight:bold;vertical-align:top;">wsgi_errors</td><td style="vertical-align:top;">:</td><td><div>&lt;open file &#x27;&lt;stderr&gt;&#x27;, mode &#x27;w&#x27; at 0x0027D0D0&gt;</div></td></tr><tr><td style="font-weight:bold;vertical-align:top;">wsgi_file_wrapper</td><td style="vertical-align:top;">:</td><td><div>&lt;class wsgiref.util.FileWrapper at 0x03B2BC38&gt;</div></td></tr><tr><td style="font-weight:bold;vertical-align:top;">wsgi_input</td><td style="vertical-align:top;">:</td><td><div>&lt;socket._fileobject object at 0x032F27F0&gt;</div></td></tr><tr><td style="font-weight:bold;vertical-align:top;">wsgi_multiprocess</td><td style="vertical-align:top;">:</td><td><div>False</div></td></tr><tr><td style="font-weight:bold;vertical-align:top;">wsgi_multithread</td><td style="vertical-align:top;">:</td><td><div>True</div></td></tr><tr><td style="font-weight:bold;vertical-align:top;">wsgi_run_once</td><td style="vertical-align:top;">:</td><td><div>False</div></td></tr><tr><td style="font-weight:bold;vertical-align:top;">wsgi_url_scheme</td><td style="vertical-align:top;">:</td><td><div>http</div></td></tr><tr><td style="font-weight:bold;vertical-align:top;">wsgi_version</td><td style="vertical-align:top;">:</td><td><div><table><tr><td><div>1</div></td></tr><tr><td><div>0</div></td></tr></table></div></td></tr></table></div></td></tr><tr><td style="font-weight:bold;vertical-align:top;">extension</td><td style="vertical-align:top;">:</td><td><div>html</div></td></tr><tr><td style="font-weight:bold;vertical-align:top;">folder</td><td style="vertical-align:top;">:</td><td><div>C:\\WEB2PY\\EXE_RP\\web2py\\applications\\AddfinV5simple\\</div></td></tr><tr><td style="font-weight:bold;vertical-align:top;">function</td><td style="vertical-align:top;">:</td><td><div>index</div></td></tr><tr><td style="font-weight:bold;vertical-align:top;">global_settings</td><td style="vertical-align:top;">:</td><td><div><table><tr><td style="font-weight:bold;vertical-align:top;">app_folders</td><td style="vertical-align:top;">:</td><td><div>set([&#x27;C:\\\\WEB2PY\\\\EXE_RP\\\\web2py\\\\applications\\\\admin\\\\&#x27;, &#x27;C:\\\\WEB2PY\\\\EXE_RP\\\\web2py\\\\applications\\\\AddfinV5simple\\\\&#x27;, &#x27;C:\\\\WEB2PY\\\\EXE_RP\\\\web2py\\\\applications\\\\welcome\\\\&#x27;])</div></td></tr><tr><td style="font-weight:bold;vertical-align:top;">applications_parent</td><td style="vertical-align:top;">:</td><td><div>C:\\WEB2PY\\EXE_RP\\web2py</div></td></tr><tr><td style="font-weight:bold;vertical-align:top;">cmd_args</td><td style="vertical-align:top;">:</td><td><div><table></table></div></td></tr><tr><td style="font-weight:bold;vertical-align:top;">cmd_options</td><td style="vertical-align:top;">:</td><td><div>&lt;Values at 0x314d7b0: {&#x27;verbose&#x27;: False, &#x27;ip&#x27;: &#x27;127.0.0.1&#x27;, &#x27;debuglevel&#x27;: 30, &#x27;with_scheduler&#x27;: False, &#x27;ips&#x27;: [], &#x27;shutdown_timeout&#x27;: 5, &#x27;taskbar&#x27;: False, &#x27;with_coverage&#x27;: False, &#x27;scheduler_groups&#x27;: None, &#x27;port&#x27;: 8000, &#x27;maxthreads&#x27;: None, &#x27;softcron&#x27;: False, &#x27;server_name&#x27;: &#x27;RPBASE1&#x27;, &#x27;bpython&#x27;: False, &#x27;nogui&#x27;: False, &#x27;pid_filename&#x27;: &#x27;httpserver.pid&#x27;, &#x27;print_errors&#x27;: False, &#x27;extcron&#x27;: False, &#x27;runcron&#x27;: False, &#x27;run_system_tests&#x27;: False, &#x27;test&#x27;: None, &#x27;folder&#x27;: &#x27;C:\\\\WEB2PY\\\\EXE_RP\\\\web2py&#x27;, &#x27;config&#x27;: &#x27;&#x27;, &#x27;minthreads&#x27;: None, &#x27;shell&#x27;: None, &#x27;run&#x27;: &#x27;&#x27;, &#x27;log_filename&#x27;: &#x27;httpserver.log&#x27;, &#x27;profiler_dir&#x27;: None, &#x27;args&#x27;: [&#x27;&#x27;], &#x27;socket_timeout&#x27;: 5, &#x27;ssl_ca_certificate&#x27;: None, &#x27;scheduler&#x27;: None, &#x27;interfaces&#x27;: None, &#x27;ssl_private_key&#x27;: &#x27;&#x27;, &#x27;gae&#x27;: None, &#x27;password&#x27;: &#x27;&lt;ask&gt;&#x27;, &#x27;request_queue_size&#x27;: 5, &#x27;ssl_certificate&#x27;: &#x27;&#x27;, &#x27;cronjob&#x27;: False, &#x27;numthreads&#x27;: None, &#x27;quiet&#x27;: False, &#x27;import_models&#x27;: False, &#x27;timeout&#x27;: 10, &#x27;plain&#x27;: False, &#x27;nobanner&#x27;: False}&gt;</div></td></tr><tr><td style="font-weight:bold;vertical-align:top;">db_sessions</td><td style="vertical-align:top;">:</td><td><div>set([])</div></td></tr><tr><td style="font-weight:bold;vertical-align:top;">debugging</td><td style="vertical-align:top;">:</td><td><div>False</div></td></tr><tr><td style="font-weight:bold;vertical-align:top;">gluon_parent</td><td style="vertical-align:top;">:</td><td><div>C:\\WEB2PY\\EXE_RP\\web2py</div></td></tr><tr><td style="font-weight:bold;vertical-align:top;">is_jython</td><td style="vertical-align:top;">:</td><td><div>False</div></td></tr><tr><td style="font-weight:bold;vertical-align:top;">is_pypy</td><td style="vertical-align:top;">:</td><td><div>False</div></td></tr><tr><td style="font-weight:bold;vertical-align:top;">is_source</td><td style="vertical-align:top;">:</td><td><div>False</div></td></tr><tr><td style="font-weight:bold;vertical-align:top;">local_hosts</td><td style="vertical-align:top;">:</td><td><div><table><tr><td><div>::ffff:127.0.0.1</div></td></tr><tr><td><div>::1</div></td></tr><tr><td><div>192.168.1.56</div></td></tr><tr><td><div>fe80::48d0:efaa:de27:62ec%10</div></td></tr><tr><td><div>RPBASE1</div></td></tr><tr><td><div>RPBASE1.office.actant.com</div></td></tr><tr><td><div>127.0.0.1</div></td></tr></table></div></td></tr><tr><td style="font-weight:bold;vertical-align:top;">web2py_version</td><td style="vertical-align:top;">:</td><td><div>2.13.4-stable+timestamp.2015.12.26.04.59.39</div></td></tr></table></div></td></tr><tr><td style="font-weight:bold;vertical-align:top;">is_https</td><td style="vertical-align:top;">:</td><td><div>False</div></td></tr><tr><td style="font-weight:bold;vertical-align:top;">is_local</td><td style="vertical-align:top;">:</td><td><div>True</div></td></tr><tr><td style="font-weight:bold;vertical-align:top;">is_restful</td><td style="vertical-align:top;">:</td><td><div>False</div></td></tr><tr><td style="font-weight:bold;vertical-align:top;">is_scheduler</td><td style="vertical-align:top;">:</td><td><div>False</div></td></tr><tr><td style="font-weight:bold;vertical-align:top;">is_shell</td><td style="vertical-align:top;">:</td><td><div>False</div></td></tr><tr><td style="font-weight:bold;vertical-align:top;">now</td><td style="vertical-align:top;">:</td><td><div>datetime.datetime(2016, 5, 30, 18, 4, 43, 18000)</div></td></tr><tr><td style="font-weight:bold;vertical-align:top;">raw_args</td><td style="vertical-align:top;">:</td><td><div></div></td></tr><tr><td style="font-weight:bold;vertical-align:top;">raw_extension</td><td style="vertical-align:top;">:</td><td><div>None</div></td></tr><tr><td style="font-weight:bold;vertical-align:top;">url</td><td style="vertical-align:top;">:</td><td><div>/AddfinV5simple/default/index</div></td></tr><tr><td style="font-weight:bold;vertical-align:top;">utcnow</td><td style="vertical-align:top;">:</td><td><div>datetime.datetime(2016, 5, 30, 16, 4, 43, 18000)</div></td></tr><tr><td style="font-weight:bold;vertical-align:top;">wsgi</td><td style="vertical-align:top;">:</td><td><div>&lt;gluon.main.LazyWSGI object at 0x03DFFF90&gt;</div></td></tr></table></div>'
tRp70
sS'frames'
p71
(lp72
(dp73
S'file'
p74
S'C:\\WEB2PY\\EXE_RP\\web2py\\gluon\\restricted.py'
p75
sS'dump'
p76
(dp77
S'code'
p78
S'"TASK_TYPES = (\'Phone\', \'Fax\', \'Mail\', \'Meet\')\\n\\ni...tring\', length=36,default=None, required=False))\\n"'
p79
sS'layer'
p80
S"r'C:\\WEB2PY\\EXE_RP\\web2py\\applications\\AddfinV5simple\\models\\rp_newest.py'"
p81
sS'global compile2'
p82
S'<function compile2>'
p83
sS'ccode'
p84
S'undefined'
p85
ssS'lnum'
p86
I226
sS'lines'
p87
(dp88
I224
S'            ccode = code'
p89
sI225
S'        else:'
p90
sI226
S'            ccode = compile2(code, layer)'
p91
sI227
S'        exec ccode in environment'
p92
sI228
S'    except HTTP:'
p93
sI229
S'        raise'
p94
sI230
S'    except RestrictedError:'
p95
sI221
S"    environment['__name__'] = '__restricted__'"
p96
sI222
S'    try:'
p97
sI223
S'        if isinstance(code, types.CodeType):'
p98
ssS'call'
p99
S'(code="TASK_TYPES = (\'Phone\', \'Fax\', \'Mail\', \'Meet\')\\n\\ni...tring\', length=36,default=None, required=False))\\n", environment={\'A\': <class \'gluon.html.A\'>, \'ANY_OF\': <class \'gluon.validators.ANY_OF\'>, \'ASSIGNJS\': <function ASSIGNJS>, \'Auth\': <class \'gluon.tools.Auth\'>, \'B\': <class \'gluon.html.B\'>, \'BEAUTIFY\': <class \'gluon.html.BEAUTIFY\'>, \'BODY\': <class \'gluon.html.BODY\'>, \'BR\': <class \'gluon.html.BR\'>, \'BUTTON\': <class \'gluon.html.BUTTON\'>, \'CAT\': <class \'gluon.html.CAT\'>, ...}, layer=r\'C:\\WEB2PY\\EXE_RP\\web2py\\applications\\AddfinV5simple\\models\\rp_newest.py\')'
p100
sS'func'
p101
S'restricted'
p102
sa(dp103
g74
S'C:\\WEB2PY\\EXE_RP\\web2py\\gluon\\restricted.py'
p104
sg76
(dp105
S'builtincompile'
p106
S'<built-in function compile>'
p107
sS'code'
p108
S'"TASK_TYPES = (\'Phone\', \'Fax\', \'Mail\', \'Meet\')\\n\\ni...tring\', length=36,default=None, required=False))\\n"'
p109
sS'code.rstrip'
p110
S'<built-in method rstrip of str object>'
p111
sS').replace'
p112
g85
sS'layer'
p113
S"r'C:\\WEB2PY\\EXE_RP\\web2py\\applications\\AddfinV5simple\\models\\rp_newest.py'"
p114
ssg86
I209
sg87
(dp115
I204
S'def compile2(code, layer):'
p116
sI205
S'    """'
p117
sI206
S"    The ``+'\\\\n'`` is necessary else compile fails when code ends in a comment."
p118
sI207
S'    """'
p119
sI208
S''
sI209
S"    return compile(code.rstrip().replace('\\r\\n', '\\n') + '\\n', layer, 'exec')"
p120
sI210
S''
sI211
S''
sI212
S"def restricted(code, environment=None, layer='Unknown'):"
p121
sI213
S'    """'
p122
ssg99
S'(code="TASK_TYPES = (\'Phone\', \'Fax\', \'Mail\', \'Meet\')\\n\\ni...tring\', length=36,default=None, required=False))\\n", layer=r\'C:\\WEB2PY\\EXE_RP\\web2py\\applications\\AddfinV5simple\\models\\rp_newest.py\')'
p123
sg101
S'compile2'
p124
sasS'pyver'
p125
S'Python 2.7.9: C:\\WEB2PY\\EXE_RP\\web2py\\web2py.exe (prefix: C:\\Python27)'
p126
sS'session'
p127
g69
(S's\x1a\x00\x00\x00<div><table></table></div>'
tRp128
sS'etype'
p129
S"<type 'exceptions.SyntaxError'>"
p130
sS'date'
p131
S'Mon May 30 18:04:43 2016'
p132
sS'response'
p133
g69
(S'sd"\x00\x00<div><table><tr><td style="font-weight:bold;vertical-align:top;">body</td><td style="vertical-align:top;">:</td><td><div>&lt;cStringIO.StringO object at 0x031087A0&gt;</div></td></tr><tr><td style="font-weight:bold;vertical-align:top;">cookies</td><td style="vertical-align:top;">:</td><td><div><table><tr><td style="font-weight:bold;vertical-align:top;">session_id_addfinv5simple</td><td style="vertical-align:top;">:</td><td><div>127.0.0.1-93922299-fc17-4fec-9af2-bb5d5385bf59<table><tr><td style="font-weight:bold;vertical-align:top;">comment</td><td style="vertical-align:top;">:</td><td><div></div></td></tr><tr><td style="font-weight:bold;vertical-align:top;">domain</td><td style="vertical-align:top;">:</td><td><div></div></td></tr><tr><td style="font-weight:bold;vertical-align:top;">expires</td><td style="vertical-align:top;">:</td><td><div></div></td></tr><tr><td style="font-weight:bold;vertical-align:top;">httponly</td><td style="vertical-align:top;">:</td><td><div></div></td></tr><tr><td style="font-weight:bold;vertical-align:top;">max-age</td><td style="vertical-align:top;">:</td><td><div></div></td></tr><tr><td style="font-weight:bold;vertical-align:top;">path</td><td style="vertical-align:top;">:</td><td><div>/</div></td></tr><tr><td style="font-weight:bold;vertical-align:top;">secure</td><td style="vertical-align:top;">:</td><td><div></div></td></tr><tr><td style="font-weight:bold;vertical-align:top;">version</td><td style="vertical-align:top;">:</td><td><div></div></td></tr></table></div></td></tr></table></div></td></tr><tr><td style="font-weight:bold;vertical-align:top;">delimiters</td><td style="vertical-align:top;">:</td><td><div><table><tr><td><div>{{</div></td></tr><tr><td><div>}}</div></td></tr></table></div></td></tr><tr><td style="font-weight:bold;vertical-align:top;">files</td><td style="vertical-align:top;">:</td><td><div><table></table></div></td></tr><tr><td style="font-weight:bold;vertical-align:top;">flash</td><td style="vertical-align:top;">:</td><td><div></div></td></tr><tr><td style="font-weight:bold;vertical-align:top;">form_label_separator</td><td style="vertical-align:top;">:</td><td><div>: </div></td></tr><tr><td style="font-weight:bold;vertical-align:top;">formstyle</td><td style="vertical-align:top;">:</td><td><div>table3cols</div></td></tr><tr><td style="font-weight:bold;vertical-align:top;">generic_patterns</td><td style="vertical-align:top;">:</td><td><div><table><tr><td><div>*</div></td></tr></table></div></td></tr><tr><td style="font-weight:bold;vertical-align:top;">headers</td><td style="vertical-align:top;">:</td><td><div><table><tr><td style="font-weight:bold;vertical-align:top;">X-Powered-By</td><td style="vertical-align:top;">:</td><td><div>web2py</div></td></tr></table></div></td></tr><tr><td style="font-weight:bold;vertical-align:top;">menu</td><td style="vertical-align:top;">:</td><td><div><table><tr><td><div><table><tr><td><div>Index</div></td></tr><tr><td><div>False</div></td></tr><tr><td><div>/AddfinV5simple/default/index</div></td></tr><tr><td><div><table></table></div></td></tr></table></div></td></tr></table></div></td></tr><tr><td style="font-weight:bold;vertical-align:top;">menu_auth</td><td style="vertical-align:top;">:</td><td><div><table><tr><td><div><table><tr><td><div>Login</div></td></tr><tr><td><div>False</div></td></tr><tr><td><div>/AddfinV5simple/default/user/login</div></td></tr><tr><td><div><table><tr><td><div><table><tr><td><div>Register</div></td></tr><tr><td><div>False</div></td></tr><tr><td><div>/AddfinV5simple/default/user/register</div></td></tr></table></div></td></tr><tr><td><div><table><tr><td><div>Lost Password</div></td></tr><tr><td><div>False</div></td></tr><tr><td><div>/AddfinV5simple/default/user/retrieve_password</div></td></tr></table></div></td></tr></table></div></td></tr></table></div></td></tr></table></div></td></tr><tr><td style="font-weight:bold;vertical-align:top;">menu_edit</td><td style="vertical-align:top;">:</td><td><div><table><tr><td><div><table><tr><td><div>Edit</div></td></tr><tr><td><div>False</div></td></tr><tr><td><div>/admin/default/design/AddfinV5simple</div></td></tr><tr><td><div><table><tr><td><div><table><tr><td><div>Controller</div></td></tr><tr><td><div>False</div></td></tr><tr><td><div>/admin/default/edit/AddfinV5simple/controllers/default.py</div></td></tr></table></div></td></tr><tr><td><div><table><tr><td><div>View</div></td></tr><tr><td><div>False</div></td></tr><tr><td><div>/admin/default/edit/AddfinV5simple/views/default/index.html</div></td></tr></table></div></td></tr><tr><td><div><table><tr><td><div>Layout</div></td></tr><tr><td><div>False</div></td></tr><tr><td><div>/admin/default/edit/AddfinV5simple/views/layout.html</div></td></tr></table></div></td></tr><tr><td><div><table><tr><td><div>Stylesheet</div></td></tr><tr><td><div>False</div></td></tr><tr><td><div>/admin/default/edit/AddfinV5simple/static/base.css</div></td></tr></table></div></td></tr><tr><td><div><table><tr><td><div>DB Model</div></td></tr><tr><td><div>False</div></td></tr><tr><td><div>/admin/default/edit/AddfinV5simple/models/db.py</div></td></tr></table></div></td></tr><tr><td><div><table><tr><td><div>Menu Model</div></td></tr><tr><td><div>False</div></td></tr><tr><td><div>/admin/default/edit/AddfinV5simple/models/menu.py</div></td></tr></table></div></td></tr><tr><td><div><table><tr><td><div>Database</div></td></tr><tr><td><div>False</div></td></tr><tr><td><div>/AddfinV5simple/appadmin/index</div></td></tr></table></div></td></tr></table></div></td></tr></table></div></td></tr></table></div></td></tr><tr><td style="font-weight:bold;vertical-align:top;">meta</td><td style="vertical-align:top;">:</td><td><div><table></table></div></td></tr><tr><td style="font-weight:bold;vertical-align:top;">models_to_run</td><td style="vertical-align:top;">:</td><td><div><table><tr><td><div>^\\w+\\.py$</div></td></tr><tr><td><div>^default/\\w+\\.py$</div></td></tr><tr><td><div>^default/index/\\w+\\.py$</div></td></tr></table></div></td></tr><tr><td style="font-weight:bold;vertical-align:top;">postprocessing</td><td style="vertical-align:top;">:</td><td><div><table></table></div></td></tr><tr><td style="font-weight:bold;vertical-align:top;">session_client</td><td style="vertical-align:top;">:</td><td><div>127.0.0.1</div></td></tr><tr><td style="font-weight:bold;vertical-align:top;">session_cookie_compression_level</td><td style="vertical-align:top;">:</td><td><div>None</div></td></tr><tr><td style="font-weight:bold;vertical-align:top;">session_cookie_expires</td><td style="vertical-align:top;">:</td><td><div>None</div></td></tr><tr><td style="font-weight:bold;vertical-align:top;">session_cookie_key</td><td style="vertical-align:top;">:</td><td><div>None</div></td></tr><tr><td style="font-weight:bold;vertical-align:top;">session_data_name</td><td style="vertical-align:top;">:</td><td><div>session_data_addfinv5simple</div></td></tr><tr><td style="font-weight:bold;vertical-align:top;">session_file</td><td style="vertical-align:top;">:</td><td><div>None</div></td></tr><tr><td style="font-weight:bold;vertical-align:top;">session_filename</td><td style="vertical-align:top;">:</td><td><div>C:\\WEB2PY\\EXE_RP\\web2py\\applications\\AddfinV5simple\\sessions\\127.0.0.1-93922299-fc17-4fec-9af2-bb5d5385bf59</div></td></tr><tr><td style="font-weight:bold;vertical-align:top;">session_hash</td><td style="vertical-align:top;">:</td><td><div>c0762cbf4baf7f9af97c051e7fcb8083</div></td></tr><tr><td style="font-weight:bold;vertical-align:top;">session_id</td><td style="vertical-align:top;">:</td><td><div>127.0.0.1-93922299-fc17-4fec-9af2-bb5d5385bf59</div></td></tr><tr><td style="font-weight:bold;vertical-align:top;">session_id_name</td><td style="vertical-align:top;">:</td><td><div>session_id_addfinv5simple</div></td></tr><tr><td style="font-weight:bold;vertical-align:top;">session_masterapp</td><td style="vertical-align:top;">:</td><td><div>AddfinV5simple</div></td></tr><tr><td style="font-weight:bold;vertical-align:top;">session_new</td><td style="vertical-align:top;">:</td><td><div>True</div></td></tr><tr><td style="font-weight:bold;vertical-align:top;">session_storage_type</td><td style="vertical-align:top;">:</td><td><div>file</div></td></tr><tr><td style="font-weight:bold;vertical-align:top;">status</td><td style="vertical-align:top;">:</td><td><div>200</div></td></tr><tr><td style="font-weight:bold;vertical-align:top;">subtitle</td><td style="vertical-align:top;">:</td><td><div>customize me!</div></td></tr><tr><td style="font-weight:bold;vertical-align:top;">title</td><td style="vertical-align:top;">:</td><td><div>AddfinV5simple</div></td></tr><tr><td style="font-weight:bold;vertical-align:top;">view</td><td style="vertical-align:top;">:</td><td><div>default/index.html</div></td></tr></table></div>'
tRp134
sS'locals'
p135
(dp136
g4
S"r'C:\\WEB2PY\\EXE_RP\\web2py\\applications\\AddfinV5simple\\models\\rp_newest.py'"
p137
sg6
S'"TASK_TYPES = (\'Phone\', \'Fax\', \'Mail\', \'Meet\')\\n\\ni...tring\', length=36,default=None, required=False))\\n"'
p138
sssS'traceback'
p139
S'Traceback (most recent call last):\n  File "C:\\WEB2PY\\EXE_RP\\web2py\\gluon\\restricted.py", line 226, in restricted\n    ccode = compile2(code, layer)\n  File "C:\\WEB2PY\\EXE_RP\\web2py\\gluon\\restricted.py", line 209, in compile2\n    return compile(code.rstrip().replace(\'\\r\\n\', \'\\n\') + \'\\n\', layer, \'exec\')\n  File "C:\\WEB2PY\\EXE_RP\\web2py\\applications\\AddfinV5simple\\models\\rp_newest.py", line 54\n    Field(\'date_entered\', \'datetime\',default=None, required=False),\n        ^\nSyntaxError: invalid syntax\n'
p140
s.