(dp1
S'output'
p2
S"<type 'exceptions.NameError'> name 'form' is not defined"
p3
sS'layer'
p4
S'C:\\WEBPYC\\WEBPY\\web2py\\applications\\AddfinV6\\views\\default/list_crm_contacts.html'
p5
sS'code'
p6
S'response.files.append(URL(r=request,c=\'static\',f=\'jquery.dataTables.min.js\'))\nresponse.write(\'\\r\\n\\r\\n\', escape=False)\nresponse.files.append(URL(r=request,c=\'static\',f=\'demo_table.css\'))\nresponse.write(\'\\r\\n\\r\\n\', escape=False)\nresponse.write(\'<!DOCTYPE html PUBLIC "-//W3C//DTD XHTML 1.0 Strict//EN" "http://www.w3.org/TR/xhtml1/DTD/xhtml1-strict.dtd">\\n<!--\\nDesign by Free CSS Templates\\nhttp://www.freecsstemplates.org\\nReleased for free under a Creative Commons Attribution 2.5 License\\n\\nName       : Oxidation\\nDescription: A two-column, fixed-width design for small websites and blogs.\\nVersion    : 1.0\\nReleased   : 20071229\\nlayout for main views dir\\n\\n-->\\n<html xmlns="http://www.w3.org/1999/xhtml">\\n\\n\\t<meta name="description" content="">\\n\\t<meta name="author" content="">\\n\\n\\t<meta name="HandheldFriendly" content="True">\\n\\t<meta name="MobileOptimized" content="320">\\n\\t<meta name="viewport" content="width=device-width, initial-scale=1.0, maximum-scale=1.0, user-scalable=no">\\n\\t    <link rel="stylesheet" href="\', escape=False)\nresponse.write(URL(\'static\',\'themes/AddfinV3/style.css\'))\nresponse.write(\'"/>\\n\\t    <link rel="stylesheet" type="text/css"  href="\', escape=False)\nresponse.write(URL(\'static\',\'themes/AddfinV3/jquery.ui.all.css\'))\nresponse.write(\'"/>\\n\\t    <link rel="stylesheet" href="\', escape=False)\nresponse.write(URL(\'static\',\'themes/AddfinV3/styles.css\'))\nresponse.write(\'"/>\\n\\t    <link rel="stylesheet" href="\', escape=False)\nresponse.write(URL(\'static\',\'themes/AddfinV3/deprecated.css\'))\nresponse.write(\'"/>\\n\\t    <link rel="stylesheet" href="\', escape=False)\nresponse.write(URL(\'static\',\'themes/AddfinV3/yui.css\'))\nresponse.write(\'"/>\\n\\t\\t\\n<!--\\t\\tfind: \\x91jquer*\\x92: No such file or directory\\n./include/javascript/jquery/markitup/sets/default/style.css\\n./include/javascript/jquery/markitup/skins/simple/style.css\\n./include/javascript/jquery/markitup/templates/preview.css -->\\n<link rel="stylesheet" href="\', escape=False)\nresponse.write(URL(\'static\',\'themes/AddfinV3/base/jquery.ui.accordion.css\'))\nresponse.write(\'"/>\\n<link rel="stylesheet" href="\', escape=False)\nresponse.write(URL(\'static\',\'themes/AddfinV3/base/jquery.ui.all.css\'))\nresponse.write(\'"/>\\n<link rel="stylesheet" href="\', escape=False)\nresponse.write(URL(\'static\',\'themes/AddfinV3/base/jquery.ui.autocomplete.css\'))\nresponse.write(\'"/>\\n<link rel="stylesheet" href="\', escape=False)\nresponse.write(URL(\'static\',\'themes/AddfinV3/base/jquery.ui.base.css\'))\nresponse.write(\'"/>\\n<link rel="stylesheet" href="\', escape=False)\nresponse.write(URL(\'static\',\'themes/AddfinV3/base/jquery.ui.button.css\'))\nresponse.write(\'"/>\\n<link rel="stylesheet" href="\', escape=False)\nresponse.write(URL(\'static\',\'themes/AddfinV3/base/jquery.ui.core.css\'))\nresponse.write(\'"/>\\n<link rel="stylesheet" href="\', escape=False)\nresponse.write(URL(\'static\',\'themes/AddfinV3/base/jquery.ui.datepicker.css\'))\nresponse.write(\'"/>\\n<link rel="stylesheet" href="\', escape=False)\nresponse.write(URL(\'static\',\'themes/AddfinV3/base/jquery.ui.dialog.css\'))\nresponse.write(\'"/>\\n<link rel="stylesheet" href="\', escape=False)\nresponse.write(URL(\'static\',\'themes/AddfinV3/base/jquery.ui.progressbar.css\'))\nresponse.write(\'"/>\\n<link rel="stylesheet" href="\', escape=False)\nresponse.write(URL(\'static\',\'themes/AddfinV3/base/jquery.ui.resizable.css\'))\nresponse.write(\'"/>\\n<link rel="stylesheet" href="\', escape=False)\nresponse.write(URL(\'static\',\'themes/AddfinV3/base/jquery.ui.selectable.css\'))\nresponse.write(\'"/>\\n<link rel="stylesheet" href="\', escape=False)\nresponse.write(URL(\'static\',\'themes/AddfinV3/base/jquery.ui.slider.css\'))\nresponse.write(\'"/>\\n<link rel="stylesheet" href="\', escape=False)\nresponse.write(URL(\'static\',\'themes/AddfinV3/base/jquery.ui.tabs.css\'))\nresponse.write(\'"/>\\n<link rel="stylesheet" href="\', escape=False)\nresponse.write(URL(\'static\',\'themes/AddfinV3/base/jquery.ui.theme.css\'))\nresponse.write(\'"/>\\n\\n<script type="text/javascript" src="cache/themes/AddfinV3/js/style.js\\n"></script>\\n    \\t\\n\\t<!-- For all browsers -->\\n    <!-- include stylesheets -->\\n    <link rel="stylesheet" href="\', escape=False)\nresponse.write(URL(\'static\',\'themes/AddfinV3/styles.css\'))\nresponse.write(\'"/>\\t\\n    <link rel="shortcut icon" href="\', escape=False)\nresponse.write(URL(\'static\',\'themes/AddfinV3/images/favicons/favicon.png\'))\nresponse.write(\'"/>\\n    <link rel="shortcut icon" type="image/x-icon" href="\', escape=False)\nresponse.write(URL(\'static\',\'images/favicon.ico\'))\nresponse.write(\'" />\\n    <link rel="apple-touch-icon" href="\', escape=False)\nresponse.write(URL(\'static\',\'images/favicon.png\'))\nresponse.write(\'"/>\\n    <!-- All JavaScript at the bottom, except for Modernizr which enables\\n         HTML5 elements & feature detects -->\\n    <script src="\', escape=False)\nresponse.write(URL(\'static\',\'js/modernizr-2.8.3.min.js\'))\nresponse.write(\'"></script>\\n\\t<!-- Webfonts -->\\n    <link rel="stylesheet" type=\\\'text/css\\\' href="\', escape=False)\nresponse.write(URL(\'static\',\'https://fonts.googleapis.com/css?family=Lato:300,400,700\'))\nresponse.write(\'"/>\\t\\n    <link rel="stylesheet"  type=\\\'text/css\\\' href="\', escape=False)\nresponse.write(URL(\'static\',\'https://fonts.googleapis.com/css?family=Oswald:400,700,300\'))\nresponse.write(\'"/>\\t\\n\\t<!-- JavaScript at bottom except for Modernizr -->\\n\\t<script src="themes/AddfinV3/js/libs/modernizr.custom.js"></script>\\n\\t<!-- For Modern Browsers -->\\n\\t<link rel="shortcut icon" href="AddfinV6/static/themes/AddfinV3/images/favicons/favicon.png">\\n\\t<!-- For everything else -->\\n\\t<link rel="shortcut icon" href="AddfinV6/static/themes/AddfinV3/images/favicons/favicon.ico">\\n\\t<!-- For retina screens -->\\n\\t<link rel="apple-touch-icon-precomposed" sizes="114x114" href="AddfinV6/static/themes/AddfinV3/images/favicons/apple-touch-icon-retina.png">\\n\\t<!-- For iPad 1-->\\n\\t<link rel="apple-touch-icon-precomposed" sizes="72x72" href="AddfinV6/static/themes/AddfinV3/images/favicons/apple-touch-icon-ipad.png">\\n\\t<!-- For iPhone 3G, iPod Touch and Android -->\\n\\t<link rel="apple-touch-icon-precomposed" href="AddfinV6/static/themes/AddfinV3/images/favicons/apple-touch-icon.png">\\n\\t<!-- iOS web-app metas -->\\n\\t<meta name="apple-mobile-web-app-capable" content="yes">\\n\\t<meta name="apple-mobile-web-app-status-bar-style" content="black">\\n\\t<!-- Startup image for web apps -->\\n\\t<link rel="apple-touch-startup-image" href="AddfinV6/static/themes/AddfinV3/images/splash/ipad-landscape.png" media="screen and (min-device-width: 481px) and (max-device-width: 1024px) and (orientation:landscape)">\\n\\t<link rel="apple-touch-startup-image" href="AddfinV6/static/themes/AddfinV3/images/splash/ipad-portrait.png" media="screen and (min-device-width: 481px) and (max-device-width: 1024px) and (orientation:portrait)">\\n\\t<link rel="apple-touch-startup-image" href="AddfinV6/static/themes/AddfinV3/images/splash/iphone.png" media="screen and (max-device-width: 320px)">\\n\\t<!-- Microsoft clear type rendering -->\\n\\t<meta http-equiv="cleartype" content="on">\\n <head>\\n  <title>\\xf0\\x9f\\x93\\x88Addfinwealth</title>\\n  <link rel="shortcut icon" href="company_logo.ico" type="image/x-icon" />\\n  \', escape=False)\nresponse.files.append(URL(request.application,\'static\',\'Oxidation/style.css\'))\nresponse.write(\'\\n\', escape=False)\nresponse.files.insert(0,URL(r=request,c=\'static\',f=\'jquery.js\'))\nresponse.files.insert(1,URL(r=request,c=\'static\',f=\'calendar.css\'))\nresponse.files.insert(2,URL(r=request,c=\'static\',f=\'calendar.js\'))\nfor _item in response.meta or []:\n    response.write(\'\\n     <meta name="\', escape=False)\n    response.write(_item)\n    response.write(\'" content="\', escape=False)\n    response.write(response.meta[_item])\n    response.write(\'" />\', escape=False)\n    pass\nfor _k,_file in enumerate(response.files or []):\n    if _file in response.files[:_k]:\n        continue\n    elif _file[-4:].lower()==\'.css\':\n        response.write(\'\\n     <link href="\', escape=False)\n        response.write(_file)\n        response.write(\'" rel="stylesheet" type="text/css" charset="utf-8" />\', escape=False)\n    elif _file[-3:].lower()==\'.js\':\n        response.write(\'\\n     <script src="\', escape=False)\n        response.write(_file)\n        response.write(\'" type="text/javascript"></script>\', escape=False)\n        pass\n    pass\nresponse.write(\'\\n<script type="text/javascript"><!--\\nfunction popup(url) {\\n  newwindow=window.open(url,\\\'name\\\',\\\'height=400,width=600\\\');\\n  if (window.focus) newwindow.focus();\\n  return false;\\n}\\nfunction collapse(id) { jQuery(\\\'#\\\'+id).slideToggle(); }\\nfunction fade(id,value) { if(value>0) jQuery(\\\'#\\\'+id).hide().fadeIn(\\\'slow\\\'); else jQuery(\\\'#\\\'+id).show().fadeOut(\\\'slow\\\'); }\\nfunction ajax(u,s,t) {\\n  var query="";\\n  for(i=0; i<s.length; i++) { \\n     if(i>0) query=query+"&";\\n     query=query+encodeURIComponent(s[i])+"="+encodeURIComponent(document.getElementById(s[i]).value);\\n  }\\n  jQuery.ajax({type: "POST", url: u, data: query, success: function(msg) { if(t==\\\':eval\\\') eval(msg); else document.getElementById(t).innerHTML=msg; } });  \\n}\\nString.prototype.reverse = function () { return this.split(\\\'\\\').reverse().join(\\\'\\\');};\\nfunction web2py_ajax_init() {\\n  jQuery(\\\'.hidden\\\').hide();\\n  jQuery(\\\'.error\\\').hide().slideDown(\\\'slow\\\');\\n  jQuery(\\\'.flash\\\').click(function() { jQuery(this).fadeOut(\\\'slow\\\'); return false; });\\n  jQuery(\\\'input.string\\\').attr(\\\'size\\\',50);\\n  jQuery(\\\'textarea.text\\\').attr(\\\'cols\\\',50).attr(\\\'rows\\\',10);\\n  jQuery(\\\'input.integer\\\').keyup(function(){this.value=this.value.reverse().replace(/[^0-9\\\\-]|\\\\-(?=.)/g,\\\'\\\').reverse();});\\n  jQuery(\\\'input.double\\\').keyup(function(){this.value=this.value.reverse().replace(/[^0-9\\\\-\\\\.]|[\\\\-](?=.)|[\\\\.](?=[0-9]*[\\\\.])/g,\\\'\\\').reverse();});\\n  jQuery(\\\'input.delete\\\').attr(\\\'onclick\\\',\\\'if(this.checked) if(!confirm("\', escape=False)\nresponse.write(T(\'Sure you want to delete this object?\'))\nresponse.write(\'")) this.checked=false;\\\');\\n  try {jQuery("input.date").focus( function() {Calendar.setup({\\n     inputField:this.id, ifFormat:"\', escape=False)\nresponse.write(T(\'%Y-%m-%d\'))\nresponse.write(\'", showsTime:false\\n  }); }); } catch(e) {};\\n  try { jQuery("input.datetime").focus( function() {Calendar.setup({\\n     inputField:this.id, ifFormat:"\', escape=False)\nresponse.write(T(\'%Y-%m-%d %H:%M:%S\'))\nresponse.write(\'", showsTime: true,timeFormat: "24"\\n  }); }); } catch(e) {};\\n  try { jQuery("input.time").clockpick({\\n      starthour:0, endhour:23, showminutes:true, military:true\\n  }); } catch(e) {};\\n};\\njQuery(document).ready(function(){\\n   jQuery(\\\'.flash\\\').hide();\\n   if(jQuery(\\\'.flash\\\').html()!=\\\'\\\') jQuery(\\\'.flash\\\').slideDown(\\\'slow\\\');\\n   web2py_ajax_init();});\\n\\nfunction web2py_trap_form(action,target) {\\n   jQuery(\\\'#\\\'+target+\\\' form\\\').each(function(i){\\n      var form=jQuery(this);\\n      jQuery(\\\'input[type="submit"]\\\',this).click(function(){\\n         jQuery(\\\'.flash\\\').hide().html(\\\'\\\');\\n         web2py_ajax_page(\\\'post\\\',action,form.serialize(),target);\\n         return false;\\n      });\\n   });\\n}\\nfunction web2py_ajax_page(method,action,data,target) {\\n  jQuery.ajax({\\\'type\\\':method,\\\'url\\\':action,\\\'data\\\':data,\\n    \\\'beforeSend\\\':function(xhr){\\n      xhr.setRequestHeader(\\\'web2py-component-location\\\',document.location);\\n      xhr.setRequestHeader(\\\'web2py-component-element\\\',target);},\\n    \\\'complete\\\':function(xhr,text){\\n      command=xhr.getResponseHeader(\\\'web2py-component-command\\\');\\n      if(command) eval(command);\\n      flash=xhr.getResponseHeader(\\\'web2py-component-flash\\\');\\n      if(flash) jQuery(\\\'.flash\\\').html(flash).slideDown();\\n      },\\n    \\\'success\\\': function(text) {\\n      jQuery(\\\'#\\\'+target).html(text);\\n      web2py_trap_form(action,target);\\n      web2py_ajax_init();\\n      }\\n    });\\n}\\nfunction web2py_component(action,target) {\\n    jQuery(document).ready(function(){ web2py_ajax_page(\\\'get\\\',action,null,target); });\\n}\\n//--></script>\\n\', escape=False)\nresponse.write(\'\\n </head>\\n <body>\\n  <div id="header">\\n\\n   <div id="search">\\n    <form id="searchform" method="get" action="">\\n     <fieldset>\\n       [\\n       \', escape=False)\nif not auth.user:\n    response.write(\'\\n       <a href="\', escape=False)\n    response.write(URL(\'user/login\'))\n    response.write(\'">login</a>\\n       \', escape=False)\nelse:\n    response.write(\'\\n       \', escape=False)\n    response.write(auth.user.first_name)\n    response.write(\' |\\n       <a href="\', escape=False)\n    response.write(URL(\'user/logout\'))\n    response.write(\'">logout</a> |\\n       <a href="\', escape=False)\n    response.write(URL(\'user/change_password\'))\n    response.write(\'">password</a> |\\n       <a href="\', escape=False)\n    response.write(URL(\'user/profile\'))\n    response.write(\'">profile</a>\\n       \', escape=False)\n    pass\nresponse.write(\' ]\\n      <input id="searchquery" type="text" size="25" name="s" value="" />\\n      <input id="searchsubmit" type="submit" value="Search" />\\n     </fieldset>\\n    </form>\\n   </div>\\n  </div>\\n  \\n  \\n  <!-- end #header -->\\n<!-- <div id="menu"> -->\\n   <!-- \', escape=False)\nresponse.write(MENU(response.menu))\nresponse.write(\' -->\\n  <!-- </div> -->\\n  <!-- end #menu -->\\n  \\n  <div id="page">\\n   <div id="content">\\n     <div id="main">\\n        <div class="flash">\', escape=False)\nresponse.write(response.flash or \'\')\nresponse.write(\'</div> \\n       \', escape=False)\nresponse.write("\\r\\n\\r\\n\\r\\n<script>\\r\\n\\r\\n\\r\\n$(document).ready(function() { \\r\\n   jQuery(\'.smarttable\').dataTable(); \\r\\n   ", escape=False)\nif not form.errors:\n    response.write("jQuery(\'#form\').hide();", escape=False)\n    pass\nresponse.write(\'\\r\\n});\\r\\n\\r\\n</script>\\r\\n\\r\\n<h1>List crm_contactss</h1>\\r\\n\\r\\n\\r\\n[<a href="#nil" onclick="jQuery(\\\'#form\\\').slideToggle();">toggle</a>]\\r\\n\\r\\n<div id="form">\\r\\n\\r\\n<h2>New crm_contacts</h2>\\r\\n\\r\\n\', escape=False)\nresponse.write(form)\nresponse.write(\'\\r\\n\\r\\n</div>\\r\\n\\r\\n<br /><br />\\r\\n\\r\\n<table class="smarttable">\\r\\n\\r\\n<thead>\\r\\n\\r\\n    <tr>\\r\\n\\r\\n\\r\\n\\r\\n      <th>Name</th><th>Actions</th>\\r\\n\\r\\n\\r\\n    </tr>    \\r\\n\\r\\n</thead>\\r\\n\\r\\n<tbody>\\r\\n\\r\\n\', escape=False)\nfor crm_contactsi in crm_contacts:\n    response.write(\'\\r\\n    <tr>\\r\\n       <td>\', escape=False)\n    response.write(link_crm_contacts(crm_contactsi))\n    response.write(\'</td>   \\r\\n\\r\\n       <td>\', escape=False)\n    response.write(button(\'crm_contacts\',\'list_crm_contacts\',crm_contactsi.id))\n    response.write(\'\\r\\n\\r\\n       \', escape=False)\n    response.write(button(\'edit\',\'edit_crm_contacts\',crm_contactsi.id))\n    response.write(\'</td>\\r\\n\\r\\n    </tr>\\r\\n\\r\\n\', escape=False)\n    pass\nresponse.write(\'\\r\\n\\r\\n</tbody>\\r\\n\\r\\n</table>\\r\\n\\r\\n\\r\\n\\r\\n\', escape=False)\nresponse.write(\'\\n     </div>\\n   </div>\\n   \\n   <!-- end content -->\\n   <!-- \', escape=False)\nleft_sidebar_enabled=True,right_sidebar_enabled=False,(\'message\' in globals())\nresponse.write(\' -->\\n<nav class="main">\\n     <!--<div class="ez-box" id="left_sidebar"> -->\\n            \', escape=False)\nresponse.write(\'\\n                \', escape=False)\nresponse.write(MENU(response.menu,_class=\'level1\'))\nresponse.write(\'\\n            \', escape=False)\nresponse.write(\'    \\n            <!--</div> -->\\n\\n</nav>\\t\\n\\t<section role="main" class="main row personal-open">\\n\\t\\t<div id="content" class="small-12 column">\\n\\t\\t\\t\\n\\t\\t\\t<iframe id=\\\'ajaxUI-history-iframe\\\' src=\\\'index.php?entryPoint=getImage&amp;imageName=blank.png\\\'  title=\\\'empty\\\' style=\\\'display:none\\\'></iframe>\\n\\t\\t\\t<input id=\\\'ajaxUI-history-field\\\' type=\\\'hidden\\\'>\\n\\t\\t\\t<script type=\\\'text/javascript\\\'>\\n\\n\\n\\n\\n<div class="current-date"><span>May</span><strong>26</strong></div>\\n\\n<div class="moduleTitle">\\n        <img id="company_logo_image" src=\\\'custom/themes/default/images/company_logo.png\\\' alt=\\\'\\\' class="left" />\\n    <div class="left">\\n        <h2>Dashboard</h2>\\n        <button id="add_dashlets" class="button icon icon-plus" title="Add Dashlets" onclick="return SUGAR.mySugar.showDashletsDialog();"></button>    </div>\\n    </div>\\n\\n<div id="pageContainer" class="yui-skin-sam">\\n    <div id="pageNum_0_div">\\n        <table class="span9" cellspacing="0" cellpadding="0" border="0">\\n            <tbody class="span9">\\n                <tr class="main-chart-row">\\n                    <td colspan="2">\\n                        <div class="chart">\\n\\t<div class="chart-map"></div>\\n\\t<ul class="chart-legend">\\n\\t\\t<li class="live">\\n\\t\\t\\t<span class="graf-color"></span>\\n\\t\\t\\t<span class="graf-name">Live Portfolios</span>\\n\\t\\t</li>\\n\\t\\t<li class="ben">\\n\\t\\t\\t<span class="graf-color"></span>\\n\\t\\t\\t<span class="graf-name">Benchmark Portfolios</span>\\n\\t\\t</li>\\n\\t\\t<li class="sim">\\n\\t\\t\\t<span class="graf-color"></span>\\n\\t\\t\\t<span class="graf-name">Simulation Portfolios</span>\\n\\t\\t</li>\\n\\t</ul>\\n</div>\\n<div class="chart-right-menu">\\n\\t<div class="menu-header">\\n\\t\\t<a class="icon-settings" href="javascript:void(0)"></a>\\n\\t\\t<a class="refreshIcon" href="javascript:void(0)"></a>\\n\\t</div>\\n\\t<table class="menu-entries">\\n\\t\\t<tbody>\\n\\t\\t\\t<tr>\\n\\t\\t\\t\\t<td class="icon icon-tasks"></td>\\n\\t\\t\\t\\t<td class="counter">6</td>\\n\\t\\t\\t\\t<td colspan="2" class="menu-title"><a href="index.php?module=Tasks&action=index">Open<br>Tasks</a></td>\\n\\t\\t\\t</tr>\\n\\t\\t\\t<tr>\\n\\t\\t\\t\\t<td class="icon icon-target"></td>\\n\\t\\t\\t\\t<td class="counter">8</td>\\n\\t\\t\\t\\t<td class="menu-title"><a href="index.php?module=Leads&action=index">New<br>Leads</a></td>\\n\\t\\t\\t\\t<td class="leads-progress">\\n\\t\\t\\t\\t\\t<div class="in-progress">\\n\\t\\t\\t\\t\\t\\t<span class="counter">1</span>\\n\\t\\t\\t\\t\\t\\t<span>in progress</span>\\n\\t\\t\\t\\t\\t</div>\\n\\t\\t\\t\\t\\t<div class="not-started">\\n\\t\\t\\t\\t\\t\\t<span class="counter">1</span>\\n\\t\\t\\t\\t\\t\\t<span>not started</span>\\n\\t\\t\\t\\t\\t</div>\\n\\t\\t\\t\\t</td>\\n\\t\\t\\t</tr>\\n\\t\\t\\t<tr>\\n\\t\\t\\t\\t<td class="icon icon-portfolios"></td>\\n\\t\\t\\t\\t<td class="counter">3</td>\\n\\t\\t\\t\\t<td colspan="2" class="menu-title">\\n\\t\\t\\t\\t\\t<a href="#">Portfolios</a>\\n\\t\\t\\t\\t\\t<span>under management</span>\\t\\n\\t\\t\\t\\t</td>\\n\\t\\t\\t</tr>\\n\\t\\t\\t<tr>\\n\\t\\t\\t\\t<td class="icon icon-office-management"></td>\\n\\t\\t\\t\\t<td class="counter">26</td>\\n\\t\\t\\t\\t<td class="menu-title">\\n\\t\\t\\t\\t\\t<a href="index.php?module=Contacts&action=index">Accounts</a>\\n\\t\\t\\t\\t\\t<span>under management</span>\\t\\n\\t\\t\\t\\t</td>\\n\\t\\t\\t\\t<td class="account-groups">\\n\\t\\t\\t\\t\\t<div>\\n\\t\\t\\t\\t\\t\\t<span class="counter">6</span>\\n\\t\\t\\t\\t\\t\\t<span>Clients</span>\\n\\t\\t\\t\\t\\t</div>\\n\\t\\t\\t\\t\\t<div>\\n\\t\\t\\t\\t\\t\\t<span class="counter">2</span>\\n\\t\\t\\t\\t\\t\\t<span>Prospects</span>\\n\\t\\t\\t\\t\\t</div\\n\\t\\t\\t\\t</td>\\n\\t\\t\\t</tr>\\n\\t\\t</tbody>\\n\\t</table>\\n</div>\\n\\n\\n\\t\\t\\t\\n\\t\\t\\t<body onMouseOut="closeMenus();" class="clearfix with-menu with-shortcuts menu-hidden">\\n\\n\\t\\t\\t<header role="banner" id="title-bar">\\n\\t\\t<div class="logo">\\n\\t\\t\\t<div class="quick-access">\\n\\t\\n\\t\\n<div class="quick-access-wrapper">\\n\\t<ul>\\n\\t\\t<li class="create-report disabled">\\n\\t\\t\\t<a href="javascript:void(0)" class="link-iframe">Create a Report</a>\\n\\t\\t</li> \\n\\t\\t\\n\\t\\t\\n\\n   <div style="clear: both;">\\n    &nbsp;\\n   </div>\\n  </div>\\n  <!-- end page -->\\n  <div id="footer">\\n   <p class="legal">\\n    &copy;2016 All Rights Reserved.\\n   </p>\\n   <p class="credit">\\n    Design by\\n    <a href="http://www.addfinwealth.com/">\\n     Addfin\\n    </a>\\n   </p>\\n  </div>\\n </body>\\n</html>\\n\\n<html xmlns="http://www.w3.org/1999/xhtml" lang="en" class="linen js-login" >\\n    <head>\\n        <title>ADDFIN &#8211; Central Authentication Service</title>\\n        \\n        \\n\\n        <meta http-equiv="Content-Type" content="text/html; charset=UTF-8" />\\n        <link rel="icon" href="/cas/favicon.ico" type="image/x-icon" />\\n        \\n    <!-- FROM LOGIN >>>> -->\\n        \\n    <meta name="HandheldFriendly" content="True">\\n    <meta name="MobileOptimized" content="320">\\n    <meta name="viewport" content="width=device-width, initial-scale=1.0, maximum-scale=1.0, user-scalable=no">\\n    \\n    <!-- For all browsers -->\\n    <link rel="stylesheet" href="css/reset.css?v=1">\\n    <link rel="stylesheet" href="css/style.css?v=1">\\n    <link rel="stylesheet" href="css/colors.css?v=1">\\n    <link rel="stylesheet" media="print" href="css/print.css?v=1">\\n    <!-- For progressively larger displays -->\\n    <link rel="stylesheet" media="only all and (min-width: 480px)" href="css/480.css?v=1">\\n    <link rel="stylesheet" media="only all and (min-width: 768px)" href="css/768.css?v=1">\\n    <link rel="stylesheet" media="only all and (min-width: 992px)" href="css/992.css?v=1">\\n    <link rel="stylesheet" media="only all and (min-width: 1200px)" href="css/1200.css?v=1">\\n    <!-- For Retina displays -->\\n    <link rel="stylesheet" media="only all and (-webkit-min-device-pixel-ratio: 1.5), only screen and (-o-min-device-pixel-ratio: 3/2), only screen and (min-device-pixel-ratio: 1.5)" href="css/2x.css?v=1">\\n\\n    <!-- Additional styles -->\\n    <link rel="stylesheet" href="css/styles/form.css?v=1">\\n\\n    <!-- Login pages styles -->\\n    <link rel="stylesheet" media="screen" href="css/login.css?v=1">\\n    \\n    \\n    <!-- JavaScript at bottom except for Modernizr -->\\n    <script src="js/libs/modernizr.custom.js"></script>\\n    </head>\\n    <body>\\n\\n<div id="container">\\n    <hgroup id="login-title" class="large-margin-bottom">\\n        <h1 class="login-title-image">Developr</h1>\\n    </hgroup>\\n\\n\\n  <div class="box fl-panel" id="login">\\n\\t\\t\\t<form id="fm1" class="fm-v clearfix" action="/cas/login?service=https%3A%2F%2Fmarketing.addfinwealth.com%2Findex.php%3Fmodule%3DDatabaseProducts%26action%3Dshow" method="post">\\n\\t\\t\\t\\n\\t\\t\\t\\t<!-- Displaying error messages -->\\n\\t\\t\\t\\t\\n\\t\\t\\t\\t        \\n\\t\\t\\t\\t\\n                    \\n                <ul class="inputs black-input large">\\n\\t\\t\\t\\t\\t<!-- The autocomplete="off" attributes is the only way to prevent webkit browsers from filling the inputs with yellow -->\\n                    \\n\\t\\t\\t\\t\\t\\t\\n\\n\\t\\t\\t\\t\\t\\t\\n\\t\\t\\t\\t\\t\\t\\n\\t\\t\\t\\t\\t\\t<li>\\n\\t\\t\\t\\t\\t\\t\\t<span class="icon-user mid-margin-right"></span>\\n\\t\\t\\t\\t\\t\\t\\t<input id="username" name="username" class="input-unstyled" tabindex="1" placeholder="Login" accesskey="u" type="text" value="" size="25" autocomplete="false"/>\\n\\t\\t\\t\\t\\t\\t</li>\\n\\t\\t\\t\\t\\t\\t\\n\\t\\t\\t\\t\\t\\t\\n\\t\\t\\t\\t\\t<li>\\n\\t\\t\\t\\t\\t\\n                        <span class="icon-lock mid-margin-right"></span>\\n\\t\\t\\t\\t\\t\\t\\n\\t\\t\\t\\t\\t\\t\\n\\t\\t\\t\\t\\t\\t<input id="password" name="password" class="input-unstyled" tabindex="2" placeholder="Password" class="input-unstyled" accesskey="p" type="password" value="" size="25" autocomplete="off"/>\\n                    \\n                    </li>\\n\\t\\t\\t\\t</ul>\\n                    \\n                    <div class="row btn-row">\\n\\t\\t\\t\\t\\t\\t<input type="hidden" name="lt" value="LT-2630-uSePFcA6dLdeitz1F601yp93mAooHx" />\\n\\t\\t\\t\\t\\t\\t<input type="hidden" name="execution" value="e1s1" />\\n\\t\\t\\t\\t\\t\\t<input type="hidden" name="_eventId" value="submit" />\\n\\n                        <input class="button glossy full-width huge" name="submit" accesskey="l" value="LOGIN" tabindex="4" type="submit" />\\n                        \\n            </form>\\n          </div>\\n          \\n</div><!-- end container -->\\n\\n\\t\\t\\n\\t\\t<script src="js/jquery/jquery-1.7.2.js"></script>\\n\\t\\t<script src="js/setup.js"></script>\\n\\t\\t\\t\\n        <!-- This script gives blue border around form on focus and needs setup.js, jquery-1.7.2.js and modernizr.custom.js -->\\n\\t\\t<script src="js/developr.input.js"></script>\\n\\t\\t\\n        <script type="text/javascript" src="/cas/js/cas.js"></script>\\n        \\n    </body>\\n</html>\\n\', escape=False)'
p7
sS'snapshot'
p8
(dp9
S'exception'
p10
(dp11
S'__hash__'
p12
S"<method-wrapper '__hash__' of exceptions.NameError object>"
p13
sS'__setattr__'
p14
S"<method-wrapper '__setattr__' of exceptions.NameError object>"
p15
sS'__reduce_ex__'
p16
S'<built-in method __reduce_ex__ of exceptions.NameError object>'
p17
sS'__getslice__'
p18
S"<method-wrapper '__getslice__' of exceptions.NameError object>"
p19
sS'__getitem__'
p20
S"<method-wrapper '__getitem__' of exceptions.NameError object>"
p21
sS'__setstate__'
p22
S'<built-in method __setstate__ of exceptions.NameError object>'
p23
sS'__reduce__'
p24
S'<built-in method __reduce__ of exceptions.NameError object>'
p25
sS'__str__'
p26
S"<method-wrapper '__str__' of exceptions.NameError object>"
p27
sS'__format__'
p28
S'<built-in method __format__ of exceptions.NameError object>'
p29
sS'__getattribute__'
p30
S"<method-wrapper '__getattribute__' of exceptions.NameError object>"
p31
sS'__class__'
p32
S"<type 'exceptions.NameError'>"
p33
sS'__unicode__'
p34
S'<built-in method __unicode__ of exceptions.NameError object>'
p35
sS'__delattr__'
p36
S"<method-wrapper '__delattr__' of exceptions.NameError object>"
p37
sS'__subclasshook__'
p38
S'<built-in method __subclasshook__ of type object>'
p39
sS'__repr__'
p40
S"<method-wrapper '__repr__' of exceptions.NameError object>"
p41
sS'args'
p42
S'("name \'form\' is not defined",)'
p43
sS'__dict__'
p44
S'{}'
p45
sS'__sizeof__'
p46
S'<built-in method __sizeof__ of exceptions.NameError object>'
p47
sS'__doc__'
p48
S"'Name not found globally.'"
p49
sS'__init__'
p50
S"<method-wrapper '__init__' of exceptions.NameError object>"
p51
sS'__new__'
p52
S'<built-in method __new__ of type object>'
p53
ssS'evalue'
p54
S"name 'form' is not defined"
p55
sS'request'
p56
cgluon.html
XML_unpickle
p57
(S'sjr\x00\x00<div><table><tr><td style="font-weight:bold;vertical-align:top;">ajax</td><td style="vertical-align:top;">:</td><td><div>False</div></td></tr><tr><td style="font-weight:bold;vertical-align:top;">application</td><td style="vertical-align:top;">:</td><td><div>AddfinV6</div></td></tr><tr><td style="font-weight:bold;vertical-align:top;">args</td><td style="vertical-align:top;">:</td><td><div><table></table></div></td></tr><tr><td style="font-weight:bold;vertical-align:top;">cid</td><td style="vertical-align:top;">:</td><td><div>None</div></td></tr><tr><td style="font-weight:bold;vertical-align:top;">client</td><td style="vertical-align:top;">:</td><td><div>127.0.0.1</div></td></tr><tr><td style="font-weight:bold;vertical-align:top;">controller</td><td style="vertical-align:top;">:</td><td><div>default</div></td></tr><tr><td style="font-weight:bold;vertical-align:top;">cookies</td><td style="vertical-align:top;">:</td><td><div><table><tr><td style="font-weight:bold;vertical-align:top;">session_id_addfinv3</td><td style="vertical-align:top;">:</td><td><div>127.0.0.1-fcdbc3a9-e9fc-4298-8f1e-f82c70e71d97<table><tr><td style="font-weight:bold;vertical-align:top;">comment</td><td style="vertical-align:top;">:</td><td><div></div></td></tr><tr><td style="font-weight:bold;vertical-align:top;">domain</td><td style="vertical-align:top;">:</td><td><div></div></td></tr><tr><td style="font-weight:bold;vertical-align:top;">expires</td><td style="vertical-align:top;">:</td><td><div></div></td></tr><tr><td style="font-weight:bold;vertical-align:top;">httponly</td><td style="vertical-align:top;">:</td><td><div></div></td></tr><tr><td style="font-weight:bold;vertical-align:top;">max-age</td><td style="vertical-align:top;">:</td><td><div></div></td></tr><tr><td style="font-weight:bold;vertical-align:top;">path</td><td style="vertical-align:top;">:</td><td><div></div></td></tr><tr><td style="font-weight:bold;vertical-align:top;">secure</td><td style="vertical-align:top;">:</td><td><div></div></td></tr><tr><td style="font-weight:bold;vertical-align:top;">version</td><td style="vertical-align:top;">:</td><td><div></div></td></tr></table></div></td></tr><tr><td style="font-weight:bold;vertical-align:top;">session_id_addfinv5simple</td><td style="vertical-align:top;">:</td><td><div>127.0.0.1-4b6016f3-ff73-42b4-a161-5db42caeca09<table><tr><td style="font-weight:bold;vertical-align:top;">comment</td><td style="vertical-align:top;">:</td><td><div></div></td></tr><tr><td style="font-weight:bold;vertical-align:top;">domain</td><td style="vertical-align:top;">:</td><td><div></div></td></tr><tr><td style="font-weight:bold;vertical-align:top;">expires</td><td style="vertical-align:top;">:</td><td><div></div></td></tr><tr><td style="font-weight:bold;vertical-align:top;">httponly</td><td style="vertical-align:top;">:</td><td><div></div></td></tr><tr><td style="font-weight:bold;vertical-align:top;">max-age</td><td style="vertical-align:top;">:</td><td><div></div></td></tr><tr><td style="font-weight:bold;vertical-align:top;">path</td><td style="vertical-align:top;">:</td><td><div></div></td></tr><tr><td style="font-weight:bold;vertical-align:top;">secure</td><td style="vertical-align:top;">:</td><td><div></div></td></tr><tr><td style="font-weight:bold;vertical-align:top;">version</td><td style="vertical-align:top;">:</td><td><div></div></td></tr></table></div></td></tr><tr><td style="font-weight:bold;vertical-align:top;">session_id_addfinv6</td><td style="vertical-align:top;">:</td><td><div>127.0.0.1-1c6c35e2-8d1f-4e25-a8a0-48ebc4287d86<table><tr><td style="font-weight:bold;vertical-align:top;">comment</td><td style="vertical-align:top;">:</td><td><div></div></td></tr><tr><td style="font-weight:bold;vertical-align:top;">domain</td><td style="vertical-align:top;">:</td><td><div></div></td></tr><tr><td style="font-weight:bold;vertical-align:top;">expires</td><td style="vertical-align:top;">:</td><td><div></div></td></tr><tr><td style="font-weight:bold;vertical-align:top;">httponly</td><td style="vertical-align:top;">:</td><td><div></div></td></tr><tr><td style="font-weight:bold;vertical-align:top;">max-age</td><td style="vertical-align:top;">:</td><td><div></div></td></tr><tr><td style="font-weight:bold;vertical-align:top;">path</td><td style="vertical-align:top;">:</td><td><div></div></td></tr><tr><td style="font-weight:bold;vertical-align:top;">secure</td><td style="vertical-align:top;">:</td><td><div></div></td></tr><tr><td style="font-weight:bold;vertical-align:top;">version</td><td style="vertical-align:top;">:</td><td><div></div></td></tr></table></div></td></tr><tr><td style="font-weight:bold;vertical-align:top;">session_id_admin</td><td style="vertical-align:top;">:</td><td><div>127.0.0.1-d0fcc8ca-7a2d-4d1a-a916-b1079c9377d7<table><tr><td style="font-weight:bold;vertical-align:top;">comment</td><td style="vertical-align:top;">:</td><td><div></div></td></tr><tr><td style="font-weight:bold;vertical-align:top;">domain</td><td style="vertical-align:top;">:</td><td><div></div></td></tr><tr><td style="font-weight:bold;vertical-align:top;">expires</td><td style="vertical-align:top;">:</td><td><div></div></td></tr><tr><td style="font-weight:bold;vertical-align:top;">httponly</td><td style="vertical-align:top;">:</td><td><div></div></td></tr><tr><td style="font-weight:bold;vertical-align:top;">max-age</td><td style="vertical-align:top;">:</td><td><div></div></td></tr><tr><td style="font-weight:bold;vertical-align:top;">path</td><td style="vertical-align:top;">:</td><td><div></div></td></tr><tr><td style="font-weight:bold;vertical-align:top;">secure</td><td style="vertical-align:top;">:</td><td><div></div></td></tr><tr><td style="font-weight:bold;vertical-align:top;">version</td><td style="vertical-align:top;">:</td><td><div></div></td></tr></table></div></td></tr><tr><td style="font-weight:bold;vertical-align:top;">session_id_crmraw</td><td style="vertical-align:top;">:</td><td><div>127.0.0.1-c63ee9db-bf95-4c5c-9ba4-fb84ac052322<table><tr><td style="font-weight:bold;vertical-align:top;">comment</td><td style="vertical-align:top;">:</td><td><div></div></td></tr><tr><td style="font-weight:bold;vertical-align:top;">domain</td><td style="vertical-align:top;">:</td><td><div></div></td></tr><tr><td style="font-weight:bold;vertical-align:top;">expires</td><td style="vertical-align:top;">:</td><td><div></div></td></tr><tr><td style="font-weight:bold;vertical-align:top;">httponly</td><td style="vertical-align:top;">:</td><td><div></div></td></tr><tr><td style="font-weight:bold;vertical-align:top;">max-age</td><td style="vertical-align:top;">:</td><td><div></div></td></tr><tr><td style="font-weight:bold;vertical-align:top;">path</td><td style="vertical-align:top;">:</td><td><div></div></td></tr><tr><td style="font-weight:bold;vertical-align:top;">secure</td><td style="vertical-align:top;">:</td><td><div></div></td></tr><tr><td style="font-weight:bold;vertical-align:top;">version</td><td style="vertical-align:top;">:</td><td><div></div></td></tr></table></div></td></tr><tr><td style="font-weight:bold;vertical-align:top;">session_id_crmrawfullfields</td><td style="vertical-align:top;">:</td><td><div>127.0.0.1-d7a5baf1-f883-495c-9cff-631275da4bef<table><tr><td style="font-weight:bold;vertical-align:top;">comment</td><td style="vertical-align:top;">:</td><td><div></div></td></tr><tr><td style="font-weight:bold;vertical-align:top;">domain</td><td style="vertical-align:top;">:</td><td><div></div></td></tr><tr><td style="font-weight:bold;vertical-align:top;">expires</td><td style="vertical-align:top;">:</td><td><div></div></td></tr><tr><td style="font-weight:bold;vertical-align:top;">httponly</td><td style="vertical-align:top;">:</td><td><div></div></td></tr><tr><td style="font-weight:bold;vertical-align:top;">max-age</td><td style="vertical-align:top;">:</td><td><div></div></td></tr><tr><td style="font-weight:bold;vertical-align:top;">path</td><td style="vertical-align:top;">:</td><td><div></div></td></tr><tr><td style="font-weight:bold;vertical-align:top;">secure</td><td style="vertical-align:top;">:</td><td><div></div></td></tr><tr><td style="font-weight:bold;vertical-align:top;">version</td><td style="vertical-align:top;">:</td><td><div></div></td></tr></table></div></td></tr><tr><td style="font-weight:bold;vertical-align:top;">session_id_welcome</td><td style="vertical-align:top;">:</td><td><div>127.0.0.1-6ced205c-0855-4170-86d5-a59e9acd04dd<table><tr><td style="font-weight:bold;vertical-align:top;">comment</td><td style="vertical-align:top;">:</td><td><div></div></td></tr><tr><td style="font-weight:bold;vertical-align:top;">domain</td><td style="vertical-align:top;">:</td><td><div></div></td></tr><tr><td style="font-weight:bold;vertical-align:top;">expires</td><td style="vertical-align:top;">:</td><td><div></div></td></tr><tr><td style="font-weight:bold;vertical-align:top;">httponly</td><td style="vertical-align:top;">:</td><td><div></div></td></tr><tr><td style="font-weight:bold;vertical-align:top;">max-age</td><td style="vertical-align:top;">:</td><td><div></div></td></tr><tr><td style="font-weight:bold;vertical-align:top;">path</td><td style="vertical-align:top;">:</td><td><div></div></td></tr><tr><td style="font-weight:bold;vertical-align:top;">secure</td><td style="vertical-align:top;">:</td><td><div></div></td></tr><tr><td style="font-weight:bold;vertical-align:top;">version</td><td style="vertical-align:top;">:</td><td><div></div></td></tr></table></div></td></tr></table></div></td></tr><tr><td style="font-weight:bold;vertical-align:top;">env</td><td style="vertical-align:top;">:</td><td><div><table><tr><td style="font-weight:bold;vertical-align:top;">HTTP_ACCEPT</td><td style="vertical-align:top;">:</td><td><div>text/html,application/xhtml+xml,application/xml;q=0.9,image/webp,*/*;q=0.8</div></td></tr><tr><td style="font-weight:bold;vertical-align:top;">HTTP_ACCEPT_ENCODING</td><td style="vertical-align:top;">:</td><td><div>gzip, deflate, sdch</div></td></tr><tr><td style="font-weight:bold;vertical-align:top;">HTTP_ACCEPT_LANGUAGE</td><td style="vertical-align:top;">:</td><td><div>en-US,en;q=0.8,de-DE;q=0.6,de;q=0.4</div></td></tr><tr><td style="font-weight:bold;vertical-align:top;">HTTP_CONNECTION</td><td style="vertical-align:top;">:</td><td><div>keep-alive</div></td></tr><tr><td style="font-weight:bold;vertical-align:top;">HTTP_COOKIE</td><td style="vertical-align:top;">:</td><td><div>session_id_crmraw=127.0.0.1-c63ee9db-bf95-4c5c-9ba4-fb84ac052322; session_id_crmrawfullfields=127.0.0.1-d7a5baf1-f883-495c-9cff-631275da4bef; session_id_addfinv3=127.0.0.1-fcdbc3a9-e9fc-4298-8f1e-f82c70e71d97; session_id_addfinv5simple=127.0.0.1-4b6016f3-ff73-42b4-a161-5db42caeca09; session_id_welcome=127.0.0.1-6ced205c-0855-4170-86d5-a59e9acd04dd; session_id_admin=127.0.0.1-d0fcc8ca-7a2d-4d1a-a916-b1079c9377d7; session_id_addfinv6=127.0.0.1-1c6c35e2-8d1f-4e25-a8a0-48ebc4287d86</div></td></tr><tr><td style="font-weight:bold;vertical-align:top;">HTTP_HOST</td><td style="vertical-align:top;">:</td><td><div>127.0.0.1:8000</div></td></tr><tr><td style="font-weight:bold;vertical-align:top;">HTTP_REFERER</td><td style="vertical-align:top;">:</td><td><div>http://127.0.0.1:8000/AddfinV6/default/list_organizations</div></td></tr><tr><td style="font-weight:bold;vertical-align:top;">HTTP_UPGRADE_INSECURE_REQUESTS</td><td style="vertical-align:top;">:</td><td><div>1</div></td></tr><tr><td style="font-weight:bold;vertical-align:top;">HTTP_USER_AGENT</td><td style="vertical-align:top;">:</td><td><div>Mozilla/5.0 (Windows NT 6.1; WOW64) AppleWebKit/537.36 (KHTML, like Gecko) Chrome/50.0.2661.102 Safari/537.36</div></td></tr><tr><td style="font-weight:bold;vertical-align:top;">PATH_INFO</td><td style="vertical-align:top;">:</td><td><div>/AddfinV6/default/list_crm_contacts</div></td></tr><tr><td style="font-weight:bold;vertical-align:top;">QUERY_STRING</td><td style="vertical-align:top;">:</td><td><div></div></td></tr><tr><td style="font-weight:bold;vertical-align:top;">REMOTE_ADDR</td><td style="vertical-align:top;">:</td><td><div>127.0.0.1</div></td></tr><tr><td style="font-weight:bold;vertical-align:top;">REMOTE_PORT</td><td style="vertical-align:top;">:</td><td><div>54493</div></td></tr><tr><td style="font-weight:bold;vertical-align:top;">REQUEST_METHOD</td><td style="vertical-align:top;">:</td><td><div>GET</div></td></tr><tr><td style="font-weight:bold;vertical-align:top;">SCRIPT_NAME</td><td style="vertical-align:top;">:</td><td><div></div></td></tr><tr><td style="font-weight:bold;vertical-align:top;">SERVER_NAME</td><td style="vertical-align:top;">:</td><td><div>RPBASE1</div></td></tr><tr><td style="font-weight:bold;vertical-align:top;">SERVER_PORT</td><td style="vertical-align:top;">:</td><td><div>8000</div></td></tr><tr><td style="font-weight:bold;vertical-align:top;">SERVER_PROTOCOL</td><td style="vertical-align:top;">:</td><td><div>HTTP/1.1</div></td></tr><tr><td style="font-weight:bold;vertical-align:top;">SERVER_SOFTWARE</td><td style="vertical-align:top;">:</td><td><div>Rocket 1.2.6</div></td></tr><tr><td style="font-weight:bold;vertical-align:top;">app_folders</td><td style="vertical-align:top;">:</td><td><div>set([&#x27;C:\\\\WEBPYC\\\\WEBPY\\\\web2py\\\\applications\\\\AddfinV6\\\\&#x27;, &#x27;C:\\\\WEBPYC\\\\WEBPY\\\\web2py\\\\applications\\\\welcome\\\\&#x27;, &#x27;C:\\\\WEBPYC\\\\WEBPY\\\\web2py\\\\applications\\\\admin\\\\&#x27;])</div></td></tr><tr><td style="font-weight:bold;vertical-align:top;">applications_parent</td><td style="vertical-align:top;">:</td><td><div>C:\\WEBPYC\\WEBPY\\web2py</div></td></tr><tr><td style="font-weight:bold;vertical-align:top;">cmd_args</td><td style="vertical-align:top;">:</td><td><div><table></table></div></td></tr><tr><td style="font-weight:bold;vertical-align:top;">cmd_options</td><td style="vertical-align:top;">:</td><td><div>&lt;Values at 0x3a027b0: {&#x27;verbose&#x27;: False, &#x27;ip&#x27;: &#x27;127.0.0.1&#x27;, &#x27;debuglevel&#x27;: 30, &#x27;with_scheduler&#x27;: False, &#x27;ips&#x27;: [], &#x27;shutdown_timeout&#x27;: 5, &#x27;taskbar&#x27;: False, &#x27;with_coverage&#x27;: False, &#x27;scheduler_groups&#x27;: None, &#x27;port&#x27;: 8000, &#x27;maxthreads&#x27;: None, &#x27;softcron&#x27;: False, &#x27;server_name&#x27;: &#x27;RPBASE1&#x27;, &#x27;bpython&#x27;: False, &#x27;nogui&#x27;: False, &#x27;pid_filename&#x27;: &#x27;httpserver.pid&#x27;, &#x27;print_errors&#x27;: False, &#x27;extcron&#x27;: False, &#x27;runcron&#x27;: False, &#x27;run_system_tests&#x27;: False, &#x27;test&#x27;: None, &#x27;folder&#x27;: &#x27;C:\\\\WEBPYC\\\\WEBPY\\\\web2py&#x27;, &#x27;config&#x27;: &#x27;&#x27;, &#x27;minthreads&#x27;: None, &#x27;shell&#x27;: None, &#x27;run&#x27;: &#x27;&#x27;, &#x27;log_filename&#x27;: &#x27;httpserver.log&#x27;, &#x27;profiler_dir&#x27;: None, &#x27;args&#x27;: [&#x27;&#x27;], &#x27;socket_timeout&#x27;: 5, &#x27;ssl_ca_certificate&#x27;: None, &#x27;scheduler&#x27;: None, &#x27;interfaces&#x27;: None, &#x27;ssl_private_key&#x27;: &#x27;&#x27;, &#x27;gae&#x27;: None, &#x27;password&#x27;: &#x27;&lt;ask&gt;&#x27;, &#x27;request_queue_size&#x27;: 5, &#x27;ssl_certificate&#x27;: &#x27;&#x27;, &#x27;cronjob&#x27;: False, &#x27;numthreads&#x27;: None, &#x27;quiet&#x27;: False, &#x27;import_models&#x27;: False, &#x27;timeout&#x27;: 10, &#x27;plain&#x27;: False, &#x27;nobanner&#x27;: False}&gt;</div></td></tr><tr><td style="font-weight:bold;vertical-align:top;">db_sessions</td><td style="vertical-align:top;">:</td><td><div>set([])</div></td></tr><tr><td style="font-weight:bold;vertical-align:top;">debugging</td><td style="vertical-align:top;">:</td><td><div>False</div></td></tr><tr><td style="font-weight:bold;vertical-align:top;">gluon_parent</td><td style="vertical-align:top;">:</td><td><div>C:\\WEBPYC\\WEBPY\\web2py</div></td></tr><tr><td style="font-weight:bold;vertical-align:top;">http_accept</td><td style="vertical-align:top;">:</td><td><div>text/html,application/xhtml+xml,application/xml;q=0.9,image/webp,*/*;q=0.8</div></td></tr><tr><td style="font-weight:bold;vertical-align:top;">http_accept_encoding</td><td style="vertical-align:top;">:</td><td><div>gzip, deflate, sdch</div></td></tr><tr><td style="font-weight:bold;vertical-align:top;">http_accept_language</td><td style="vertical-align:top;">:</td><td><div>en-US,en;q=0.8,de-DE;q=0.6,de;q=0.4</div></td></tr><tr><td style="font-weight:bold;vertical-align:top;">http_connection</td><td style="vertical-align:top;">:</td><td><div>keep-alive</div></td></tr><tr><td style="font-weight:bold;vertical-align:top;">http_cookie</td><td style="vertical-align:top;">:</td><td><div>session_id_crmraw=127.0.0.1-c63ee9db-bf95-4c5c-9ba4-fb84ac052322; session_id_crmrawfullfields=127.0.0.1-d7a5baf1-f883-495c-9cff-631275da4bef; session_id_addfinv3=127.0.0.1-fcdbc3a9-e9fc-4298-8f1e-f82c70e71d97; session_id_addfinv5simple=127.0.0.1-4b6016f3-ff73-42b4-a161-5db42caeca09; session_id_welcome=127.0.0.1-6ced205c-0855-4170-86d5-a59e9acd04dd; session_id_admin=127.0.0.1-d0fcc8ca-7a2d-4d1a-a916-b1079c9377d7; session_id_addfinv6=127.0.0.1-1c6c35e2-8d1f-4e25-a8a0-48ebc4287d86</div></td></tr><tr><td style="font-weight:bold;vertical-align:top;">http_host</td><td style="vertical-align:top;">:</td><td><div>127.0.0.1:8000</div></td></tr><tr><td style="font-weight:bold;vertical-align:top;">http_referer</td><td style="vertical-align:top;">:</td><td><div>http://127.0.0.1:8000/AddfinV6/default/list_organizations</div></td></tr><tr><td style="font-weight:bold;vertical-align:top;">http_upgrade_insecure_requests</td><td style="vertical-align:top;">:</td><td><div>1</div></td></tr><tr><td style="font-weight:bold;vertical-align:top;">http_user_agent</td><td style="vertical-align:top;">:</td><td><div>Mozilla/5.0 (Windows NT 6.1; WOW64) AppleWebKit/537.36 (KHTML, like Gecko) Chrome/50.0.2661.102 Safari/537.36</div></td></tr><tr><td style="font-weight:bold;vertical-align:top;">is_jython</td><td style="vertical-align:top;">:</td><td><div>False</div></td></tr><tr><td style="font-weight:bold;vertical-align:top;">is_pypy</td><td style="vertical-align:top;">:</td><td><div>False</div></td></tr><tr><td style="font-weight:bold;vertical-align:top;">is_source</td><td style="vertical-align:top;">:</td><td><div>False</div></td></tr><tr><td style="font-weight:bold;vertical-align:top;">local_hosts</td><td style="vertical-align:top;">:</td><td><div><table><tr><td><div>::ffff:127.0.0.1</div></td></tr><tr><td><div>::1</div></td></tr><tr><td><div>192.168.1.56</div></td></tr><tr><td><div>fe80::48d0:efaa:de27:62ec%10</div></td></tr><tr><td><div>RPBASE1</div></td></tr><tr><td><div>RPBASE1.office.actant.com</div></td></tr><tr><td><div>127.0.0.1</div></td></tr></table></div></td></tr><tr><td style="font-weight:bold;vertical-align:top;">path_info</td><td style="vertical-align:top;">:</td><td><div>/AddfinV6/default/list_crm_contacts</div></td></tr><tr><td style="font-weight:bold;vertical-align:top;">query_string</td><td style="vertical-align:top;">:</td><td><div></div></td></tr><tr><td style="font-weight:bold;vertical-align:top;">remote_addr</td><td style="vertical-align:top;">:</td><td><div>127.0.0.1</div></td></tr><tr><td style="font-weight:bold;vertical-align:top;">remote_port</td><td style="vertical-align:top;">:</td><td><div>54493</div></td></tr><tr><td style="font-weight:bold;vertical-align:top;">request_method</td><td style="vertical-align:top;">:</td><td><div>GET</div></td></tr><tr><td style="font-weight:bold;vertical-align:top;">request_uri</td><td style="vertical-align:top;">:</td><td><div>/AddfinV6/default/list_crm_contacts</div></td></tr><tr><td style="font-weight:bold;vertical-align:top;">script_name</td><td style="vertical-align:top;">:</td><td><div></div></td></tr><tr><td style="font-weight:bold;vertical-align:top;">server_name</td><td style="vertical-align:top;">:</td><td><div>RPBASE1</div></td></tr><tr><td style="font-weight:bold;vertical-align:top;">server_port</td><td style="vertical-align:top;">:</td><td><div>8000</div></td></tr><tr><td style="font-weight:bold;vertical-align:top;">server_protocol</td><td style="vertical-align:top;">:</td><td><div>HTTP/1.1</div></td></tr><tr><td style="font-weight:bold;vertical-align:top;">server_software</td><td style="vertical-align:top;">:</td><td><div>Rocket 1.2.6</div></td></tr><tr><td style="font-weight:bold;vertical-align:top;">web2py_path</td><td style="vertical-align:top;">:</td><td><div>C:\\WEBPYC\\WEBPY\\web2py</div></td></tr><tr><td style="font-weight:bold;vertical-align:top;">web2py_version</td><td style="vertical-align:top;">:</td><td><div>2.13.4-stable+timestamp.2015.12.26.04.59.39</div></td></tr><tr><td style="font-weight:bold;vertical-align:top;">wsgi.errors</td><td style="vertical-align:top;">:</td><td><div>&lt;open file &#x27;&lt;stderr&gt;&#x27;, mode &#x27;w&#x27; at 0x0045D0D0&gt;</div></td></tr><tr><td style="font-weight:bold;vertical-align:top;">wsgi.file_wrapper</td><td style="vertical-align:top;">:</td><td><div>&lt;class wsgiref.util.FileWrapper at 0x0302CED8&gt;</div></td></tr><tr><td style="font-weight:bold;vertical-align:top;">wsgi.input</td><td style="vertical-align:top;">:</td><td><div>&lt;socket._fileobject object at 0x0819CD30&gt;</div></td></tr><tr><td style="font-weight:bold;vertical-align:top;">wsgi.multiprocess</td><td style="vertical-align:top;">:</td><td><div>False</div></td></tr><tr><td style="font-weight:bold;vertical-align:top;">wsgi.multithread</td><td style="vertical-align:top;">:</td><td><div>True</div></td></tr><tr><td style="font-weight:bold;vertical-align:top;">wsgi.run_once</td><td style="vertical-align:top;">:</td><td><div>False</div></td></tr><tr><td style="font-weight:bold;vertical-align:top;">wsgi.url_scheme</td><td style="vertical-align:top;">:</td><td><div>http</div></td></tr><tr><td style="font-weight:bold;vertical-align:top;">wsgi.version</td><td style="vertical-align:top;">:</td><td><div><table><tr><td><div>1</div></td></tr><tr><td><div>0</div></td></tr></table></div></td></tr><tr><td style="font-weight:bold;vertical-align:top;">wsgi_errors</td><td style="vertical-align:top;">:</td><td><div>&lt;open file &#x27;&lt;stderr&gt;&#x27;, mode &#x27;w&#x27; at 0x0045D0D0&gt;</div></td></tr><tr><td style="font-weight:bold;vertical-align:top;">wsgi_file_wrapper</td><td style="vertical-align:top;">:</td><td><div>&lt;class wsgiref.util.FileWrapper at 0x0302CED8&gt;</div></td></tr><tr><td style="font-weight:bold;vertical-align:top;">wsgi_input</td><td style="vertical-align:top;">:</td><td><div>&lt;socket._fileobject object at 0x0819CD30&gt;</div></td></tr><tr><td style="font-weight:bold;vertical-align:top;">wsgi_multiprocess</td><td style="vertical-align:top;">:</td><td><div>False</div></td></tr><tr><td style="font-weight:bold;vertical-align:top;">wsgi_multithread</td><td style="vertical-align:top;">:</td><td><div>True</div></td></tr><tr><td style="font-weight:bold;vertical-align:top;">wsgi_run_once</td><td style="vertical-align:top;">:</td><td><div>False</div></td></tr><tr><td style="font-weight:bold;vertical-align:top;">wsgi_url_scheme</td><td style="vertical-align:top;">:</td><td><div>http</div></td></tr><tr><td style="font-weight:bold;vertical-align:top;">wsgi_version</td><td style="vertical-align:top;">:</td><td><div><table><tr><td><div>1</div></td></tr><tr><td><div>0</div></td></tr></table></div></td></tr></table></div></td></tr><tr><td style="font-weight:bold;vertical-align:top;">extension</td><td style="vertical-align:top;">:</td><td><div>html</div></td></tr><tr><td style="font-weight:bold;vertical-align:top;">folder</td><td style="vertical-align:top;">:</td><td><div>C:\\WEBPYC\\WEBPY\\web2py\\applications\\AddfinV6\\</div></td></tr><tr><td style="font-weight:bold;vertical-align:top;">function</td><td style="vertical-align:top;">:</td><td><div>list_crm_contacts</div></td></tr><tr><td style="font-weight:bold;vertical-align:top;">global_settings</td><td style="vertical-align:top;">:</td><td><div><table><tr><td style="font-weight:bold;vertical-align:top;">app_folders</td><td style="vertical-align:top;">:</td><td><div>set([&#x27;C:\\\\WEBPYC\\\\WEBPY\\\\web2py\\\\applications\\\\AddfinV6\\\\&#x27;, &#x27;C:\\\\WEBPYC\\\\WEBPY\\\\web2py\\\\applications\\\\welcome\\\\&#x27;, &#x27;C:\\\\WEBPYC\\\\WEBPY\\\\web2py\\\\applications\\\\admin\\\\&#x27;])</div></td></tr><tr><td style="font-weight:bold;vertical-align:top;">applications_parent</td><td style="vertical-align:top;">:</td><td><div>C:\\WEBPYC\\WEBPY\\web2py</div></td></tr><tr><td style="font-weight:bold;vertical-align:top;">cmd_args</td><td style="vertical-align:top;">:</td><td><div><table></table></div></td></tr><tr><td style="font-weight:bold;vertical-align:top;">cmd_options</td><td style="vertical-align:top;">:</td><td><div>&lt;Values at 0x3a027b0: {&#x27;verbose&#x27;: False, &#x27;ip&#x27;: &#x27;127.0.0.1&#x27;, &#x27;debuglevel&#x27;: 30, &#x27;with_scheduler&#x27;: False, &#x27;ips&#x27;: [], &#x27;shutdown_timeout&#x27;: 5, &#x27;taskbar&#x27;: False, &#x27;with_coverage&#x27;: False, &#x27;scheduler_groups&#x27;: None, &#x27;port&#x27;: 8000, &#x27;maxthreads&#x27;: None, &#x27;softcron&#x27;: False, &#x27;server_name&#x27;: &#x27;RPBASE1&#x27;, &#x27;bpython&#x27;: False, &#x27;nogui&#x27;: False, &#x27;pid_filename&#x27;: &#x27;httpserver.pid&#x27;, &#x27;print_errors&#x27;: False, &#x27;extcron&#x27;: False, &#x27;runcron&#x27;: False, &#x27;run_system_tests&#x27;: False, &#x27;test&#x27;: None, &#x27;folder&#x27;: &#x27;C:\\\\WEBPYC\\\\WEBPY\\\\web2py&#x27;, &#x27;config&#x27;: &#x27;&#x27;, &#x27;minthreads&#x27;: None, &#x27;shell&#x27;: None, &#x27;run&#x27;: &#x27;&#x27;, &#x27;log_filename&#x27;: &#x27;httpserver.log&#x27;, &#x27;profiler_dir&#x27;: None, &#x27;args&#x27;: [&#x27;&#x27;], &#x27;socket_timeout&#x27;: 5, &#x27;ssl_ca_certificate&#x27;: None, &#x27;scheduler&#x27;: None, &#x27;interfaces&#x27;: None, &#x27;ssl_private_key&#x27;: &#x27;&#x27;, &#x27;gae&#x27;: None, &#x27;password&#x27;: &#x27;&lt;ask&gt;&#x27;, &#x27;request_queue_size&#x27;: 5, &#x27;ssl_certificate&#x27;: &#x27;&#x27;, &#x27;cronjob&#x27;: False, &#x27;numthreads&#x27;: None, &#x27;quiet&#x27;: False, &#x27;import_models&#x27;: False, &#x27;timeout&#x27;: 10, &#x27;plain&#x27;: False, &#x27;nobanner&#x27;: False}&gt;</div></td></tr><tr><td style="font-weight:bold;vertical-align:top;">db_sessions</td><td style="vertical-align:top;">:</td><td><div>set([])</div></td></tr><tr><td style="font-weight:bold;vertical-align:top;">debugging</td><td style="vertical-align:top;">:</td><td><div>False</div></td></tr><tr><td style="font-weight:bold;vertical-align:top;">gluon_parent</td><td style="vertical-align:top;">:</td><td><div>C:\\WEBPYC\\WEBPY\\web2py</div></td></tr><tr><td style="font-weight:bold;vertical-align:top;">is_jython</td><td style="vertical-align:top;">:</td><td><div>False</div></td></tr><tr><td style="font-weight:bold;vertical-align:top;">is_pypy</td><td style="vertical-align:top;">:</td><td><div>False</div></td></tr><tr><td style="font-weight:bold;vertical-align:top;">is_source</td><td style="vertical-align:top;">:</td><td><div>False</div></td></tr><tr><td style="font-weight:bold;vertical-align:top;">local_hosts</td><td style="vertical-align:top;">:</td><td><div><table><tr><td><div>::ffff:127.0.0.1</div></td></tr><tr><td><div>::1</div></td></tr><tr><td><div>192.168.1.56</div></td></tr><tr><td><div>fe80::48d0:efaa:de27:62ec%10</div></td></tr><tr><td><div>RPBASE1</div></td></tr><tr><td><div>RPBASE1.office.actant.com</div></td></tr><tr><td><div>127.0.0.1</div></td></tr></table></div></td></tr><tr><td style="font-weight:bold;vertical-align:top;">web2py_version</td><td style="vertical-align:top;">:</td><td><div>2.13.4-stable+timestamp.2015.12.26.04.59.39</div></td></tr></table></div></td></tr><tr><td style="font-weight:bold;vertical-align:top;">is_https</td><td style="vertical-align:top;">:</td><td><div>False</div></td></tr><tr><td style="font-weight:bold;vertical-align:top;">is_local</td><td style="vertical-align:top;">:</td><td><div>True</div></td></tr><tr><td style="font-weight:bold;vertical-align:top;">is_restful</td><td style="vertical-align:top;">:</td><td><div>False</div></td></tr><tr><td style="font-weight:bold;vertical-align:top;">is_scheduler</td><td style="vertical-align:top;">:</td><td><div>False</div></td></tr><tr><td style="font-weight:bold;vertical-align:top;">is_shell</td><td style="vertical-align:top;">:</td><td><div>False</div></td></tr><tr><td style="font-weight:bold;vertical-align:top;">now</td><td style="vertical-align:top;">:</td><td><div>datetime.datetime(2016, 6, 4, 17, 46, 8, 867000)</div></td></tr><tr><td style="font-weight:bold;vertical-align:top;">raw_args</td><td style="vertical-align:top;">:</td><td><div></div></td></tr><tr><td style="font-weight:bold;vertical-align:top;">raw_extension</td><td style="vertical-align:top;">:</td><td><div>None</div></td></tr><tr><td style="font-weight:bold;vertical-align:top;">url</td><td style="vertical-align:top;">:</td><td><div>/AddfinV6/default/list_crm_contacts</div></td></tr><tr><td style="font-weight:bold;vertical-align:top;">utcnow</td><td style="vertical-align:top;">:</td><td><div>datetime.datetime(2016, 6, 4, 15, 46, 8, 867000)</div></td></tr><tr><td style="font-weight:bold;vertical-align:top;">wsgi</td><td style="vertical-align:top;">:</td><td><div>&lt;gluon.main.LazyWSGI object at 0x04509170&gt;</div></td></tr></table></div>'
tRp58
sS'frames'
p59
(lp60
(dp61
S'file'
p62
S'C:\\WEBPYC\\WEBPY\\web2py\\gluon\\restricted.py'
p63
sS'dump'
p64
(dp65
S'environment'
p66
S"{'A': <class 'gluon.html.A'>, 'ANY_OF': <class 'gluon.validators.ANY_OF'>, 'ASSIGNJS': <function ASSIGNJS>, 'Auth': <class 'gluon.tools.Auth'>, 'B': <class 'gluon.html.B'>, 'BEAUTIFY': <class 'gluon.html.BEAUTIFY'>, 'BODY': <class 'gluon.html.BODY'>, 'BR': <class 'gluon.html.BR'>, 'BUTTON': <class 'gluon.html.BUTTON'>, 'CAT': <class 'gluon.html.CAT'>, ...}"
p67
sS'ccode'
p68
S'<code object <module> at 09766B60, file "C:\\WEBP...V6\\views\\default/list_crm_contacts.html", line 1>'
p69
ssS'lnum'
p70
I227
sS'lines'
p71
(dp72
I224
S'            ccode = code'
p73
sI225
S'        else:'
p74
sI226
S'            ccode = compile2(code, layer)'
p75
sI227
S'        exec ccode in environment'
p76
sI228
S'    except HTTP:'
p77
sI229
S'        raise'
p78
sI230
S'    except RestrictedError:'
p79
sI231
S'        # do not encapsulate (obfuscate) the original RestrictedError'
p80
sI222
S'    try:'
p81
sI223
S'        if isinstance(code, types.CodeType):'
p82
ssS'call'
p83
S'(code=r"response.files.append(URL(r=request,c=\'static\',f...n        \\n    </body>\\n</html>\\n\', escape=False)", environment={\'A\': <class \'gluon.html.A\'>, \'ANY_OF\': <class \'gluon.validators.ANY_OF\'>, \'ASSIGNJS\': <function ASSIGNJS>, \'Auth\': <class \'gluon.tools.Auth\'>, \'B\': <class \'gluon.html.B\'>, \'BEAUTIFY\': <class \'gluon.html.BEAUTIFY\'>, \'BODY\': <class \'gluon.html.BODY\'>, \'BR\': <class \'gluon.html.BR\'>, \'BUTTON\': <class \'gluon.html.BUTTON\'>, \'CAT\': <class \'gluon.html.CAT\'>, ...}, layer=r\'C:\\WEBPYC\\WEBPY\\web2py\\applications\\AddfinV6\\views\\default/list_crm_contacts.html\')'
p84
sS'func'
p85
S'restricted'
p86
sa(dp87
g62
S'C:\\WEBPYC\\WEBPY\\web2py\\applications\\AddfinV6\\views\\default\\list_crm_contacts.html'
p88
sg64
(dp89
sg70
I112
sg71
(dp90
I103
S"    response.write(URL('user/profile'))"
p91
sI104
S'    response.write(\'">profile</a>\\n       \', escape=False)'
p92
sI105
S'    pass'
p93
sI106
S'response.write(\' ]\\n      <input id="searchquery" type="text" size="25" name="s" value="" />\\n      <input id="searchsubmit" type="submit" value="Search" />\\n     </fieldset>\\n    </form>\\n   </div>\\n  </div>\\n  \\n  \\n  <!-- end #header -->\\n<!-- <div id="menu"> -->\\n   <!-- \', escape=False)'
p94
sI107
S'response.write(MENU(response.menu))'
p95
sI108
S'response.write(\' -->\\n  <!-- </div> -->\\n  <!-- end #menu -->\\n  \\n  <div id="page">\\n   <div id="content">\\n     <div id="main">\\n        <div class="flash">\', escape=False)'
p96
sI109
S"response.write(response.flash or '')"
p97
sI110
S"response.write('</div> \\n       ', escape=False)"
p98
sI111
S'response.write("\\r\\n\\r\\n\\r\\n<script>\\r\\n\\r\\n\\r\\n$(document).ready(function() { \\r\\n   jQuery(\'.smarttable\').dataTable(); \\r\\n   ", escape=False)'
p99
sI112
S'if not form.errors:'
p100
sI113
S'    response.write("jQuery(\'#form\').hide();", escape=False)'
p101
sI114
S'    pass'
p102
sI115
S'response.write(\'\\r\\n});\\r\\n\\r\\n</script>\\r\\n\\r\\n<h1>List crm_contactss</h1>\\r\\n\\r\\n\\r\\n[<a href="#nil" onclick="jQuery(\\\'#form\\\').slideToggle();">toggle</a>]\\r\\n\\r\\n<div id="form">\\r\\n\\r\\n<h2>New crm_contacts</h2>\\r\\n\\r\\n\', escape=False)'
p103
sI116
S'response.write(form)'
p104
sI117
S'response.write(\'\\r\\n\\r\\n</div>\\r\\n\\r\\n<br /><br />\\r\\n\\r\\n<table class="smarttable">\\r\\n\\r\\n<thead>\\r\\n\\r\\n    <tr>\\r\\n\\r\\n\\r\\n\\r\\n      <th>Name</th><th>Actions</th>\\r\\n\\r\\n\\r\\n    </tr>    \\r\\n\\r\\n</thead>\\r\\n\\r\\n<tbody>\\r\\n\\r\\n\', escape=False)'
p105
sI118
S'for crm_contactsi in crm_contacts:'
p106
sI119
S"    response.write('\\r\\n    <tr>\\r\\n       <td>', escape=False)"
p107
sI120
S'    response.write(link_crm_contacts(crm_contactsi))'
p108
sI121
S"    response.write('</td>   \\r\\n\\r\\n       <td>', escape=False)"
p109
sI122
S"    response.write(button('crm_contacts','list_crm_contacts',crm_contactsi.id))"
p110
ssg83
S'()'
p111
sg85
S'<module>'
p112
sasS'pyver'
p113
S'Python 2.7.9: C:\\WEBPYC\\WEBPY\\web2py\\web2py.exe (prefix: C:\\Python27)'
p114
sS'session'
p115
g57
(S'ss\x02\x00\x00<div><table><tr><td style="font-weight:bold;vertical-align:top;">recent_accounts</td><td style="vertical-align:top;">:</td><td><div><table></table></div></td></tr><tr><td style="font-weight:bold;vertical-align:top;">recent_companies</td><td style="vertical-align:top;">:</td><td><div><table></table></div></td></tr><tr><td style="font-weight:bold;vertical-align:top;">recent_persons</td><td style="vertical-align:top;">:</td><td><div><table></table></div></td></tr><tr><td style="font-weight:bold;vertical-align:top;">recent_tasks</td><td style="vertical-align:top;">:</td><td><div><table></table></div></td></tr></table></div>'
tRp116
sS'etype'
p117
S"<type 'exceptions.NameError'>"
p118
sS'date'
p119
S'Sat Jun 04 17:46:09 2016'
p120
sS'response'
p121
g57
(S's\x1a&\x00\x00<div><table><tr><td style="font-weight:bold;vertical-align:top;">body</td><td style="vertical-align:top;">:</td><td><div>&lt;cStringIO.StringO object at 0x042FBCC0&gt;</div></td></tr><tr><td style="font-weight:bold;vertical-align:top;">cookies</td><td style="vertical-align:top;">:</td><td><div><table><tr><td style="font-weight:bold;vertical-align:top;">session_id_addfinv6</td><td style="vertical-align:top;">:</td><td><div>127.0.0.1-1c6c35e2-8d1f-4e25-a8a0-48ebc4287d86<table><tr><td style="font-weight:bold;vertical-align:top;">comment</td><td style="vertical-align:top;">:</td><td><div></div></td></tr><tr><td style="font-weight:bold;vertical-align:top;">domain</td><td style="vertical-align:top;">:</td><td><div></div></td></tr><tr><td style="font-weight:bold;vertical-align:top;">expires</td><td style="vertical-align:top;">:</td><td><div></div></td></tr><tr><td style="font-weight:bold;vertical-align:top;">httponly</td><td style="vertical-align:top;">:</td><td><div></div></td></tr><tr><td style="font-weight:bold;vertical-align:top;">max-age</td><td style="vertical-align:top;">:</td><td><div></div></td></tr><tr><td style="font-weight:bold;vertical-align:top;">path</td><td style="vertical-align:top;">:</td><td><div>/</div></td></tr><tr><td style="font-weight:bold;vertical-align:top;">secure</td><td style="vertical-align:top;">:</td><td><div></div></td></tr><tr><td style="font-weight:bold;vertical-align:top;">version</td><td style="vertical-align:top;">:</td><td><div></div></td></tr></table></div></td></tr></table></div></td></tr><tr><td style="font-weight:bold;vertical-align:top;">delimiters</td><td style="vertical-align:top;">:</td><td><div><table><tr><td><div>{{</div></td></tr><tr><td><div>}}</div></td></tr></table></div></td></tr><tr><td style="font-weight:bold;vertical-align:top;">files</td><td style="vertical-align:top;">:</td><td><div><table><tr><td><div>/AddfinV6/static/jquery.js</div></td></tr><tr><td><div>/AddfinV6/static/calendar.css</div></td></tr><tr><td><div>/AddfinV6/static/calendar.js</div></td></tr><tr><td><div>/AddfinV6/static/jquery.dataTables.min.js</div></td></tr><tr><td><div>/AddfinV6/static/demo_table.css</div></td></tr><tr><td><div>/AddfinV6/static/Oxidation/style.css</div></td></tr></table></div></td></tr><tr><td style="font-weight:bold;vertical-align:top;">flash</td><td style="vertical-align:top;">:</td><td><div></div></td></tr><tr><td style="font-weight:bold;vertical-align:top;">form_label_separator</td><td style="vertical-align:top;">:</td><td><div>: </div></td></tr><tr><td style="font-weight:bold;vertical-align:top;">formstyle</td><td style="vertical-align:top;">:</td><td><div>table3cols</div></td></tr><tr><td style="font-weight:bold;vertical-align:top;">generic_patterns</td><td style="vertical-align:top;">:</td><td><div><table><tr><td><div>*</div></td></tr></table></div></td></tr><tr><td style="font-weight:bold;vertical-align:top;">headers</td><td style="vertical-align:top;">:</td><td><div><table><tr><td style="font-weight:bold;vertical-align:top;">X-Powered-By</td><td style="vertical-align:top;">:</td><td><div>web2py</div></td></tr></table></div></td></tr><tr><td style="font-weight:bold;vertical-align:top;">menu</td><td style="vertical-align:top;">:</td><td><div><table><tr><td><div><table><tr><td><div>organizations</div></td></tr><tr><td><div>False</div></td></tr><tr><td><div>/AddfinV6/default/list_organizations</div></td></tr></table></div></td></tr><tr><td><div><table><tr><td><div>crm_contacts</div></td></tr><tr><td><div>False</div></td></tr><tr><td><div>/AddfinV6/default/list_crm_contacts</div></td></tr></table></div></td></tr><tr><td><div><table><tr><td><div>currencies</div></td></tr><tr><td><div>False</div></td></tr><tr><td><div>/AddfinV6/default/list_currencies</div></td></tr></table></div></td></tr></table></div></td></tr><tr><td style="font-weight:bold;vertical-align:top;">menu_auth</td><td style="vertical-align:top;">:</td><td><div><table><tr><td><div><table><tr><td><div>Login</div></td></tr><tr><td><div>False</div></td></tr><tr><td><div>/AddfinV6/default/user/login</div></td></tr><tr><td><div><table><tr><td><div><table><tr><td><div>Register</div></td></tr><tr><td><div>False</div></td></tr><tr><td><div>/AddfinV6/default/user/register</div></td></tr></table></div></td></tr><tr><td><div><table><tr><td><div>Lost Password</div></td></tr><tr><td><div>False</div></td></tr><tr><td><div>/AddfinV6/default/user/retrieve_password</div></td></tr></table></div></td></tr></table></div></td></tr></table></div></td></tr></table></div></td></tr><tr><td style="font-weight:bold;vertical-align:top;">menu_edit</td><td style="vertical-align:top;">:</td><td><div><table><tr><td><div><table><tr><td><div>Edit</div></td></tr><tr><td><div>False</div></td></tr><tr><td><div>/admin/default/design/AddfinV6</div></td></tr><tr><td><div><table><tr><td><div><table><tr><td><div>Controller</div></td></tr><tr><td><div>False</div></td></tr><tr><td><div>/admin/default/edit/AddfinV6/controllers/default.py</div></td></tr></table></div></td></tr><tr><td><div><table><tr><td><div>View</div></td></tr><tr><td><div>False</div></td></tr><tr><td><div>/admin/default/edit/AddfinV6/views/default/list_crm_contacts.html</div></td></tr></table></div></td></tr><tr><td><div><table><tr><td><div>Layout</div></td></tr><tr><td><div>False</div></td></tr><tr><td><div>/admin/default/edit/AddfinV6/views/layout.html</div></td></tr></table></div></td></tr><tr><td><div><table><tr><td><div>Stylesheet</div></td></tr><tr><td><div>False</div></td></tr><tr><td><div>/admin/default/edit/AddfinV6/static/base.css</div></td></tr></table></div></td></tr><tr><td><div><table><tr><td><div>DB Model</div></td></tr><tr><td><div>False</div></td></tr><tr><td><div>/admin/default/edit/AddfinV6/models/db.py</div></td></tr></table></div></td></tr><tr><td><div><table><tr><td><div>Menu Model</div></td></tr><tr><td><div>False</div></td></tr><tr><td><div>/admin/default/edit/AddfinV6/models/menu.py</div></td></tr></table></div></td></tr><tr><td><div><table><tr><td><div>Database</div></td></tr><tr><td><div>False</div></td></tr><tr><td><div>/AddfinV6/appadmin/index</div></td></tr></table></div></td></tr></table></div></td></tr></table></div></td></tr></table></div></td></tr><tr><td style="font-weight:bold;vertical-align:top;">meta</td><td style="vertical-align:top;">:</td><td><div><table></table></div></td></tr><tr><td style="font-weight:bold;vertical-align:top;">models_to_run</td><td style="vertical-align:top;">:</td><td><div><table><tr><td><div>^\\w+\\.py$</div></td></tr><tr><td><div>^default/\\w+\\.py$</div></td></tr><tr><td><div>^default/list_crm_contacts/\\w+\\.py$</div></td></tr></table></div></td></tr><tr><td style="font-weight:bold;vertical-align:top;">postprocessing</td><td style="vertical-align:top;">:</td><td><div><table></table></div></td></tr><tr><td style="font-weight:bold;vertical-align:top;">session_client</td><td style="vertical-align:top;">:</td><td><div>127.0.0.1</div></td></tr><tr><td style="font-weight:bold;vertical-align:top;">session_cookie_compression_level</td><td style="vertical-align:top;">:</td><td><div>None</div></td></tr><tr><td style="font-weight:bold;vertical-align:top;">session_cookie_expires</td><td style="vertical-align:top;">:</td><td><div>None</div></td></tr><tr><td style="font-weight:bold;vertical-align:top;">session_cookie_key</td><td style="vertical-align:top;">:</td><td><div>None</div></td></tr><tr><td style="font-weight:bold;vertical-align:top;">session_data_name</td><td style="vertical-align:top;">:</td><td><div>session_data_addfinv6</div></td></tr><tr><td style="font-weight:bold;vertical-align:top;">session_file</td><td style="vertical-align:top;">:</td><td><div>&lt;open file &#x27;C:\\\\WEBPYC\\\\WEBPY\\\\web2py\\\\applications\\\\AddfinV6\\\\sessions\\\\08c\\\\0f1\\\\127.0.0.1-1c6c35e2-8d1f-4e25-a8a0-48ebc4287d86&#x27;, mode &#x27;rb+&#x27; at 0x045A6EE8&gt;</div></td></tr><tr><td style="font-weight:bold;vertical-align:top;">session_filename</td><td style="vertical-align:top;">:</td><td><div>C:\\WEBPYC\\WEBPY\\web2py\\applications\\AddfinV6\\sessions\\127.0.0.1-1c6c35e2-8d1f-4e25-a8a0-48ebc4287d86</div></td></tr><tr><td style="font-weight:bold;vertical-align:top;">session_hash</td><td style="vertical-align:top;">:</td><td><div>d527125bdc2c273b27af87efc159b518</div></td></tr><tr><td style="font-weight:bold;vertical-align:top;">session_id</td><td style="vertical-align:top;">:</td><td><div>127.0.0.1-1c6c35e2-8d1f-4e25-a8a0-48ebc4287d86</div></td></tr><tr><td style="font-weight:bold;vertical-align:top;">session_id_name</td><td style="vertical-align:top;">:</td><td><div>session_id_addfinv6</div></td></tr><tr><td style="font-weight:bold;vertical-align:top;">session_locked</td><td style="vertical-align:top;">:</td><td><div>True</div></td></tr><tr><td style="font-weight:bold;vertical-align:top;">session_masterapp</td><td style="vertical-align:top;">:</td><td><div>AddfinV6</div></td></tr><tr><td style="font-weight:bold;vertical-align:top;">session_new</td><td style="vertical-align:top;">:</td><td><div>False</div></td></tr><tr><td style="font-weight:bold;vertical-align:top;">session_storage_type</td><td style="vertical-align:top;">:</td><td><div>file</div></td></tr><tr><td style="font-weight:bold;vertical-align:top;">status</td><td style="vertical-align:top;">:</td><td><div>200</div></td></tr><tr><td style="font-weight:bold;vertical-align:top;">subtitle</td><td style="vertical-align:top;">:</td><td><div>customize me!</div></td></tr><tr><td style="font-weight:bold;vertical-align:top;">title</td><td style="vertical-align:top;">:</td><td><div>AddfinV6</div></td></tr><tr><td style="font-weight:bold;vertical-align:top;">view</td><td style="vertical-align:top;">:</td><td><div>default/list_crm_contacts.html</div></td></tr></table></div>'
tRp122
sS'locals'
p123
(dp124
S'Service'
p125
S"<class 'gluon.tools.Service'>"
p126
sS'IFRAME'
p127
S"<class 'gluon.html.IFRAME'>"
p128
sS'Crud'
p129
S"<class 'gluon.tools.Crud'>"
p130
sS'link_address_book'
p131
S'<function link_address_book>'
p132
sS'OBJECT'
p133
S"<class 'gluon.html.OBJECT'>"
p134
sS'_file'
p135
S"'/AddfinV6/static/Oxidation/style.css'"
p136
sS'SQLDB'
p137
S"<class 'pydal.base.DAL'>"
p138
sS'link_rules_n_bands'
p139
S'<function link_rules_n_bands>'
p140
sg115
S"<Storage {'recent_companies': [], '_formkey[orga...: [], 'recent_tasks': [], 'recent_accounts': []}>"
p141
sS'reverse_geocode'
p142
S'<function reverse_geocode>'
p143
sS'BR'
p144
S"<class 'gluon.html.BR'>"
p145
sS'local_import'
p146
S'<function <lambda>>'
p147
sS'OPTGROUP'
p148
S"<class 'gluon.html.OPTGROUP'>"
p149
sS'__package__'
p150
S'None'
p151
sS'link_cases'
p152
S'<function link_cases>'
p153
sS'IS_INT_IN_RANGE'
p154
S"<class 'gluon.validators.IS_INT_IN_RANGE'>"
p155
sS'link_custom_fields'
p156
S'<function link_custom_fields>'
p157
sS'IS_LOWER'
p158
S"<class 'gluon.validators.IS_LOWER'>"
p159
sS'IS_STRONG'
p160
S"<class 'gluon.validators.IS_STRONG'>"
p161
sS'Recaptcha'
p162
S"<class 'gluon.tools.Recaptcha'>"
p163
sS'cache'
p164
S'<gluon.cache.Cache object>'
p165
sS'link_meetings'
p166
S'<function link_meetings>'
p167
sS'IS_IN_DB'
p168
S"<class 'gluon.validators.IS_IN_DB'>"
p169
sS'TAG'
p170
S'<gluon.html.__TAG__ object>'
p171
sS'_k'
p172
S'5'
sS'SQLField'
p173
S"<class 'pydal.objects.Field'>"
p174
sS'link_tasks'
p175
S'<function link_tasks>'
p176
sS'BODY'
p177
S"<class 'gluon.html.BODY'>"
p178
sS'IS_DATE_IN_RANGE'
p179
S"<class 'gluon.validators.IS_DATE_IN_RANGE'>"
p180
sS'link_organizations'
p181
S'<function link_organizations>'
p182
sS'link_kreports'
p183
S'<function link_kreports>'
p184
sS'URL'
p185
S'<function URL>'
p186
sS'__file__'
p187
S"r'C:\\WEBPYC\\WEBPY\\web2py\\applications\\AddfinV6\\views\\default/list_crm_contacts.html'"
p188
sS'db'
p189
S'<DAL uri="sqlite://storage.sqlite">'
p190
sS'auth'
p191
S'<gluon.tools.Auth object>'
p192
sS'P'
S"<class 'gluon.html.P'>"
p193
sS'T'
S'<gluon.languages.translator object>'
p194
sS'XHTML'
p195
S"<class 'gluon.html.XHTML'>"
p196
sS'link_currencies'
p197
S'<function link_currencies>'
p198
sS'ON'
p199
S'True'
p200
sS'OL'
p201
S"<class 'gluon.html.OL'>"
p202
sS'link_gii'
p203
S'<function link_gii>'
p204
sS'TEXTAREA'
p205
S"<class 'gluon.html.TEXTAREA'>"
p206
sS'MENU'
p207
S"<class 'gluon.html.MENU'>"
p208
sS'button'
p209
S'<function button>'
p210
sS'link_calls'
p211
S'<function link_calls>'
p212
sS'LINK'
p213
S"<class 'gluon.html.LINK'>"
p214
sS'link_sub_acct'
p215
S'<function link_sub_acct>'
p216
sS'link_documents'
p217
S'<function link_documents>'
p218
sS'link_crm_compliance'
p219
S'<function link_crm_compliance>'
p220
sS'CODE'
p221
S"<class 'gluon.html.CODE'>"
p222
sS'HTTP'
p223
S"<class 'gluon.http.HTTP'>"
p224
sS'HR'
p225
S"<class 'gluon.html.HR'>"
p226
sS'IS_DATETIME'
p227
S"<class 'gluon.validators.IS_DATETIME'>"
p228
sS'STYLE'
p229
S"<class 'gluon.html.STYLE'>"
p230
sS'link_leads'
p231
S'<function link_leads>'
p232
sS'LABEL'
p233
S"<class 'gluon.html.LABEL'>"
p234
sS'CLEANUP'
p235
S"<class 'gluon.validators.CLEANUP'>"
p236
sS'link_fdata_rolotec'
p237
S'<function link_fdata_rolotec>'
p238
sS'SELECT'
p239
S"<class 'gluon.html.SELECT'>"
p240
sS'CENTER'
p241
S"<class 'gluon.html.CENTER'>"
p242
sS'prettydate'
p243
S'<function prettydate>'
p244
sS'link_emails'
p245
S'<function link_emails>'
p246
sS'link_crm_custRelation'
p247
S'<function link_crm_custRelation>'
p248
sS'Auth'
p249
S"<class 'gluon.tools.Auth'>"
p250
sS'__builtins__'
p251
S"{'ArithmeticError': <type 'exceptions.ArithmeticError'>, 'AssertionError': <type 'exceptions.AssertionError'>, 'AttributeError': <type 'exceptions.AttributeError'>, 'BaseException': <type 'exceptions.BaseException'>, 'BufferError': <type 'exceptions.BufferError'>, 'BytesWarning': <type 'exceptions.BytesWarning'>, 'DeprecationWarning': <type 'exceptions.DeprecationWarning'>, 'EOFError': <type 'exceptions.EOFError'>, 'Ellipsis': Ellipsis, 'EnvironmentError': <type 'exceptions.EnvironmentError'>, ...}"
p252
sS'link_fdata_transactions'
p253
S'<function link_fdata_transactions>'
p254
sS'HTML'
p255
S"<class 'gluon.html.HTML'>"
p256
sS'link_stamm_acct'
p257
S'<function link_stamm_acct>'
p258
sS'SQLFORM'
p259
S"<class 'gluon.sqlhtml.SQLFORM'>"
p260
sS'link_pii'
p261
S'<function link_pii>'
p262
sS'LOAD'
p263
S'<function LOAD>'
p264
sS'redirect'
p265
S'<function redirect>'
p266
sS'FIELDSET'
p267
S"<class 'gluon.html.FIELDSET'>"
p268
sS'IS_EQUAL_TO'
p269
S"<class 'gluon.validators.IS_EQUAL_TO'>"
p270
sS'embed64'
p271
S'<function embed64>'
p272
sS'IS_LIST_OF'
p273
S"<class 'gluon.validators.IS_LIST_OF'>"
p274
sS'INPUT'
p275
S"<class 'gluon.html.INPUT'>"
p276
sS'EMBED'
p277
S"<class 'gluon.html.EMBED'>"
p278
sS'FORM'
p279
S"<class 'gluon.html.FORM'>"
p280
sS'H2'
p281
S"<class 'gluon.html.H2'>"
p282
sS'H3'
p283
S"<class 'gluon.html.H3'>"
p284
sS'BUTTON'
p285
S"<class 'gluon.html.BUTTON'>"
p286
sS'H1'
p287
S"<class 'gluon.html.H1'>"
p288
sS'H6'
p289
S"<class 'gluon.html.H6'>"
p290
sS'H4'
p291
S"<class 'gluon.html.H4'>"
p292
sS'H5'
p293
S"<class 'gluon.html.H5'>"
p294
sS'UL'
p295
S"<class 'gluon.html.UL'>"
p296
sS'IS_UPPER'
p297
S"<class 'gluon.validators.IS_UPPER'>"
p298
sS'xmlescape'
p299
S'<function xmlescape>'
p300
sS'IS_TIME'
p301
S"<class 'gluon.validators.IS_TIME'>"
p302
sS'OPTION'
p303
S"<class 'gluon.html.OPTION'>"
p304
sS'link_fields_meta_data'
p305
S'<function link_fields_meta_data>'
p306
sS'TITLE'
p307
S"<class 'gluon.html.TITLE'>"
p308
sS'CRYPT'
p309
S"<class 'gluon.validators.CRYPT'>"
p310
sS'IS_EMPTY_OR'
p311
S"<class 'gluon.validators.IS_EMPTY_OR'>"
p312
sS'MARKMIN'
p313
S"<class 'gluon.html.MARKMIN'>"
p314
sS'Recaptcha2'
p315
S"<class 'gluon.tools.Recaptcha2'>"
p316
sS'__name__'
p317
S"'__restricted__'"
p318
sS'STRONG'
p319
S"<class 'gluon.html.STRONG'>"
p320
sS'EM'
p321
S"<class 'gluon.html.EM'>"
p322
sS'COL'
p323
S"<class 'gluon.html.COL'>"
p324
sS'link_allocationModel'
p325
S'<function link_allocationModel>'
p326
sS'service'
p327
S'<gluon.tools.Service object>'
p328
sS'SCRIPT'
p329
S"<class 'gluon.html.SCRIPT'>"
p330
sS'link_benchmarks'
p331
S'<function link_benchmarks>'
p332
sS'is_phone'
p333
S'<gluon.validators.IS_MATCH object>'
p334
sS'geocode'
p335
S'<function geocode>'
p336
sS'link_database_fundinfo'
p337
S'<function link_database_fundinfo>'
p338
sS'TABLE'
p339
S"<class 'gluon.html.TABLE'>"
p340
sS'IS_IPV4'
p341
S"<class 'gluon.validators.IS_IPV4'>"
p342
sS'IS_LENGTH'
p343
S"<class 'gluon.validators.IS_LENGTH'>"
p344
sS'IS_IPV6'
p345
S"<class 'gluon.validators.IS_IPV6'>"
p346
sS'XML'
p347
S"<class 'gluon.html.XML'>"
p348
sS'Wiki'
p349
S"<class 'gluon.tools.Wiki'>"
p350
sS'B'
S"<class 'gluon.html.B'>"
p351
sS'IMG'
p352
S"<class 'gluon.html.IMG'>"
p353
sS'SQLTABLE'
p354
S"<class 'gluon.sqlhtml.SQLTABLE'>"
p355
sS'IS_MATCH'
p356
S"<class 'gluon.validators.IS_MATCH'>"
p357
sS'link_client_roles'
p358
S'<function link_client_roles>'
p359
sS'me'
p360
S'None'
p361
sS'SPAN'
p362
S"<class 'gluon.html.SPAN'>"
p363
sS'IS_JSON'
p364
S"<class 'gluon.validators.IS_JSON'>"
p365
sS'IS_IPADDRESS'
p366
S"<class 'gluon.validators.IS_IPADDRESS'>"
p367
sS'link_depot_banks'
p368
S'<function link_depot_banks>'
p369
sS'IS_SLUG'
p370
S"<class 'gluon.validators.IS_SLUG'>"
p371
sS'BEAUTIFY'
p372
S"<class 'gluon.html.BEAUTIFY'>"
p373
sS'META'
p374
S"<class 'gluon.html.META'>"
p375
sS'link_portfolios'
p376
S'<function link_portfolios>'
p377
sS'fetch'
p378
S'<function fetch>'
p379
sS'IS_DATE'
p380
S"<class 'gluon.validators.IS_DATE'>"
p381
sS'IS_EMAIL'
p382
S"<class 'gluon.validators.IS_EMAIL'>"
p383
sS'IS_NOT_EMPTY'
p384
S"<class 'gluon.validators.IS_NOT_EMPTY'>"
p385
sg56
S"<Storage {'_vars': None, 'function': 'list_crm_c...EBPYC\\\\WEBPY\\\\web2py\\\\applications\\\\AddfinV6\\\\'}>"
p386
sS'TBODY'
p387
S"<class 'gluon.html.TBODY'>"
p388
sS'link_crm_contacts'
p389
S'<function link_crm_contacts>'
p390
sS'CAT'
p391
S"<class 'gluon.html.CAT'>"
p392
sS'Field'
p393
S"<class 'pydal.objects.Field'>"
p394
sS'tag'
p395
S'<function tag>'
p396
sS'IS_LIST_OF_EMAILS'
p397
S"<class 'gluon.validators.IS_LIST_OF_EMAILS'>"
p398
sS'link_portfolio'
p399
S'<function link_portfolio>'
p400
sS'Mail'
p401
S"<class 'gluon.tools.Mail'>"
p402
sS'DIV'
p403
S"<class 'gluon.html.DIV'>"
p404
sS'LEGEND'
p405
S"<class 'gluon.html.LEGEND'>"
p406
sS'link_fundinfo_docs'
p407
S'<function link_fundinfo_docs>'
p408
sS'COLGROUP'
p409
S"<class 'gluon.html.COLGROUP'>"
p410
sS'DAL'
p411
S"<class 'pydal.base.DAL'>"
p412
sS'TT'
p413
S"<class 'gluon.html.TT'>"
p414
sS'TR'
p415
S"<class 'gluon.html.TR'>"
p416
sS'LI'
p417
S"<class 'gluon.html.LI'>"
p418
sS'link_mandate_bands'
p419
S'<function link_mandate_bands>'
p420
sS'TH'
p421
S"<class 'gluon.html.TH'>"
p422
sS'TD'
p423
S"<class 'gluon.html.TD'>"
p424
sS'PluginManager'
p425
S"<class 'gluon.tools.PluginManager'>"
p426
sS'IS_URL'
p427
S"<class 'gluon.validators.IS_URL'>"
p428
sS'A'
S"<class 'gluon.html.A'>"
p429
sS'HEAD'
p430
S"<class 'gluon.html.HEAD'>"
p431
sS'IS_DATETIME_IN_RANGE'
p432
S"<class 'gluon.validators.IS_DATETIME_IN_RANGE'>"
p433
sS'IS_IMAGE'
p434
S"<class 'gluon.validators.IS_IMAGE'>"
p435
sS'I'
S"<class 'gluon.html.I'>"
p436
sS'crud'
p437
S'<gluon.tools.Crud object>'
p438
sS'tag_cloud'
p439
S'<function tag_cloud>'
p440
sS'IS_ALPHANUMERIC'
p441
S"<class 'gluon.validators.IS_ALPHANUMERIC'>"
p442
sS'IS_NOT_IN_DB'
p443
S"<class 'gluon.validators.IS_NOT_IN_DB'>"
p444
sS'PRE'
p445
S"<class 'gluon.html.PRE'>"
p446
sS'link_fdata_vdf'
p447
S'<function link_fdata_vdf>'
p448
sg121
S"<Storage {'body': <cStringIO.StringO object at 0...4AF0>, 'view': 'default/list_crm_contacts.html'}>"
p449
sS'THEAD'
p450
S"<class 'gluon.html.THEAD'>"
p451
sS'ANY_OF'
p452
S"<class 'gluon.validators.ANY_OF'>"
p453
sS'IS_NULL_OR'
p454
S"<class 'gluon.validators.IS_EMPTY_OR'>"
p455
sS'TASK_TYPES'
p456
S"('Phone', 'Fax', 'Mail', 'Meet')"
p457
sS'url'
p458
S'<function url>'
p459
sS'TFOOT'
p460
S"<class 'gluon.html.TFOOT'>"
p461
sS'link_fdata_products'
p462
S'<function link_fdata_products>'
p463
sS'IS_FLOAT_IN_RANGE'
p464
S"<class 'gluon.validators.IS_FLOAT_IN_RANGE'>"
p465
sS'IS_EXPR'
p466
S"<class 'gluon.validators.IS_EXPR'>"
p467
sS'IS_IN_SET'
p468
S"<class 'gluon.validators.IS_IN_SET'>"
p469
sS'IS_UPLOAD_FILENAME'
p470
S"<class 'gluon.validators.IS_UPLOAD_FILENAME'>"
p471
sS'ASSIGNJS'
p472
S'<function ASSIGNJS>'
p473
sS'IS_DECIMAL_IN_RANGE'
p474
S"<class 'gluon.validators.IS_DECIMAL_IN_RANGE'>"
p475
sssS'traceback'
p476
S'Traceback (most recent call last):\n  File "C:\\WEBPYC\\WEBPY\\web2py\\gluon\\restricted.py", line 227, in restricted\n    exec ccode in environment\n  File "C:\\WEBPYC\\WEBPY\\web2py\\applications\\AddfinV6\\views\\default/list_crm_contacts.html", line 112, in <module>\nNameError: name \'form\' is not defined\n'
p477
s.