(dp1
S'output'
p2
S"<class 'cPickle.UnpicklingError'> pickle data was truncated"
p3
sS'layer'
p4
S'/home/reprior123/WEBPY/web2pyReal/applications/AddfinV5simple/models/rp_newest.py'
p5
sS'code'
p6
S"TASK_TYPES = ('Phone', 'Fax', 'Mail', 'Meet')\r\n\r\nif auth.is_logged_in():\r\n   me=auth.user.id\r\nelse:\r\n   me=None\r\n\r\ndb.define_table('organizations',\r\n         Field('id', 'string', length=150,default=None, required=False),\r\n         Field('name', 'string', length=150,default=None, required=False),\r\n         Field('org_type', 'string', length=100,default=None, required=False),\r\n         Field('industry', 'string', length=50,default=None, required=False),\r\n         Field('annual_revenue', 'string', length=100,default=None, required=False),\r\n         Field('website', 'string', length=255,default=None, required=False),\r\n         Field('ownership', 'string', length=100,default=None, required=False),\r\n         Field('employees', 'string', length=10,default=None, required=False),\r\n         Field('ticker_symbol', 'string', length=10,default=None, required=False),                \r\n         Field('sic_code', 'string', length=10,default=None, required=False))\r\n                \r\ndb.define_table('crm_phones',  # these are attached to cons&Orgs\r\n         Field('phone_type', 'string', length=100,default=None, required=False), ## pulldown list office,home,mobile,mobile2,other,other2\r\n         Field('conorg_type', 'string', length=100,default=None, required=False), ## pulldown list contacts,organizations\r\n         Field('phone_number', 'string', length=100,default=None, required=False), ## prefix info?\r\n         Field('contacts_id', 'string', length=36,default=None, required=False), # can user conorg_id instead?\r\n         Field('organization_id', 'string', length=36,default=None, required=False))\r\n                \r\ndb.define_table('crm_addresses',         # these are attached to cons&Orgs\r\n         Field('address_type', 'string', length=100,default=None, required=False), ## pulldown list primary,alt,billing,shipping,mailing,home,office,other,other2\r\n         Field('conorg_type', 'string', length=100,default=None, required=False), ## pulldown list contacts,organizations,korr_thirdparty[CRs?]\r\n         Field('contacts_id', 'string', length=36,default=None, required=False), # can user conorg_id instead?\r\n         Field('organization_id', 'string', length=36,default=None, required=False),\r\n         Field('address_street', 'string', length=150,default=None, required=False),\r\n         Field('address_city', 'string', length=100,default=None, required=False),\r\n         Field('address_state', 'string', length=100,default=None, required=False),\r\n         Field('address_postalcode', 'string', length=20,default=None, required=False),\r\n         Field('address_country', 'string', length=255,default=None, required=False),\r\n         Field('accounts_accounts_1accounts_ida', 'string', length=36,default=None, required=False),\r\n         Field('contact_id', 'string', length=36,default=None, required=False),\r\n         Field('account_id', 'string', length=36,default=None, required=False),\r\n\r\n         Field('id_c', 'string', length=36,default=None, required=False),\r\n         Field('language_c', 'string', length=100,default= 'english', required=False),\r\n         Field('skype_c', 'string', length=255,default=None, required=False),\r\n         Field('facebook_c', 'string', length=255,default=None, required=False),\r\n         Field('linkein_c', 'string', length=255,default=None, required=False),\r\n         Field('company_type_c', 'string', length=100,default= 'limited_corporation', required=False),\r\n         Field('relationship_c', 'string', length=100,default= 'partner', required=False),\r\n\r\n         Field('bean', 'string', length=50,default=None, required=False),\r\n         Field('bean_id', 'string', length=36,default=None, required=False))\r\n                #####################\r\n      \r\n         # standard system\r\n####         Field('date_entered', 'datetime',default=None, required=False),\r\n####         Field('date_modified', 'datetime',default=None, required=False),\r\n####         Field('modified_user_id', 'string', length=36,default=None, required=False),\r\n####         Field('created_by', 'string', length=36,default=None, required=False),\r\n####         Field('assigned_user_id', 'string', length=36,default=None, required=False),\r\n####         Field('parent_id', 'string', length=36,default=None, required=False),\r\n####         Field('campaign_id', 'string', length=36,default=None, required=False),\r\n####         Field('filename', 'string', length=255,default=None, required=False),\r\n####         Field('deleted', 'integer',default= '0', required=False),\r\n####         Field('data_type', 'string', length=100,default=None, required=False),\r\n####         Field('before_value_string', 'string', length=255,default=None, required=False),\r\n####         Field('after_value_string', 'string', length=255,default=None, required=False), ### only for audit tables....                \r\n####         Field('before_value_text', 'date',default=None, required=False),\r\n####         Field('after_value_text', 'date',default=None, required=False))\r\n               \r\ndb.define_table('crm_compliance', ## these are attached to CRs\r\n         Field('nxcfile_pepdoc', 'string', length=255,default=None, required=False),\r\n         Field('pepcheckstatus', 'string', length=255,default= '2', required=False),\r\n         Field('taxt_status', 'string', length=255,default=None, required=False),        \r\n         Field('name2_c', 'string', length=255,default=None, required=False),\r\n         Field('memberships_c', 'date',default=None, required=False))\r\n### crm still needs calls,tasks,\r\n\r\ndb.define_table('client_roles',\r\n\tField('clientrole', 'string', length=100,default= 'ContractingParty', required=False),\r\n\tField('client_role_signatory_r', 'string', length=100,default= 'IndividualSignature', required=False))\r\n\r\ndb.define_table('crm_contacts',\r\n         Field('clientroles_accountsclientroles_ida', 'string', length=36,default=None, required=False),\r\n         Field('clientroles_accountsaccounts_idb', 'string', length=36,default=None, required=False),\r\n\r\n         Field('clientroles_contactsclientroles_ida', 'string', length=36,default=None, required=False),\r\n         Field('clientroles_contactscontacts_idb', 'string', length=36,default=None, required=False),\r\n         Field('category', 'string', length=32,default=None, required=False),\r\n         Field('name', 'string', length=32,default=None, required=False),\r\n         Field('salutation', 'string', length=255,default=None, required=False),\r\n                \r\n         Field('first_name', 'string', length=100,default=None, required=False),\r\n         Field('last_name', 'string', length=100,default=None, required=False),\r\n         Field('title', 'string', length=100,default=None, required=False),\r\n                \r\n         Field('department', 'string', length=255,default=None, required=False),\r\n         Field('do_not_call', 'integer',default= '0', required=False),\r\n                \r\n         Field('assistant', 'string', length=75,default=None, required=False),\r\n         Field('assistant_phone', 'string', length=100,default=None, required=False),\r\n         Field('lead_source', 'string', length=255,default=None, required=False),\r\n         Field('reports_to_id', 'string', length=36,default=None, required=False),\r\n                \r\n         Field('birthdate', 'datetime',default=None, required=False),\r\n         Field('campaign_id', 'string', length=36,default=None, required=False),\r\n         Field('occupation_c', 'string', length=255,default=None, required=False),\r\n         Field('nickname', 'string', length=255,default=None, required=False),\r\n         Field('skype', 'string', length=255,default=None, required=False),\r\n         Field('facebook', 'string', length=255,default=None, required=False),\r\n         Field('linkedin', 'string', length=255,default=None, required=False),\r\n         Field('source', 'string', length=255,default=None, required=False),\r\n\r\n         Field('wealth_size', 'string', length=255,default=None, required=False),\r\n         Field('investment_size', 'string', length=255,default=None, required=False),\r\n                \r\n         Field('protect', 'string', length=255,default=None, required=False),\r\n         Field('mantain', 'string', length=255,default=None, required=False),\r\n         Field('improve', 'string', length=255,default=None, required=False),\r\n         Field('partner', 'string', length=255,default=None, required=False),\r\n                \r\n         Field('middle_name', 'string', length=255,default=None, required=False),\r\n                \r\n         Field('memberships', 'date',default=None, required=False),                \r\n         Field('type', 'string', length=255,default=None, required=False),\r\n                \r\n         Field('contact_language', 'string', length=255,default=None, required=False),\r\n                \r\n         Field('home_currency', 'string', length=255,default=None, required=False), ##might need for fee billing?\r\n                \r\n         Field('investment_currency', 'string', length=255,default=None, required=False),\r\n                \r\n         Field('married_status', 'string', length=255,default=None, required=False),\r\n         Field('children', 'string', length=255,default=None, required=False),\r\n         Field('nationality1', 'string', length=255,default=None, required=False),\r\n         Field('nationality2', 'string', length=255,default=None, required=False),\r\n         Field('nationality3', 'string', length=255,default=None, required=False),\r\n         Field('domicile', 'string', length=255,default=None, required=False),\r\n         Field('resident', 'string', length=255,default=None, required=False),\r\n\r\n         Field('photo_field_c', 'string', length=255,default=None, required=False),\r\n         Field('occupation', 'string', length=255,default=None, required=False),\r\n         Field('interests', 'date',default=None, required=False),\r\n                \r\n         Field('assistant_id', 'string', length=36,default=None, required=False), ## could this lead to a contact id?\r\n         Field('social_links', 'date',default=None, required=False))\r\n\r\ndb.define_table('portfolios',\r\n\tField('contacts__1contacts_ida', 'string', length=36,default=None, required=False),\r\n\tField('contacts_nx_idb', 'string', length=36,default=None, required=False))\r\n                \r\ndb.define_table('currencies',\r\n\tField('name', 'string', length=36,default=None, required=False),\r\n\tField('symbol', 'string', length=36,default=None, required=False),\r\n\tField('iso4217', 'string', length=3,default=None, required=False),\r\n\tField('conversion_rate', 'double',default= '0', required=False),\r\n\tField('status', 'string', length=100,default=None, required=False),\r\n\tField('currencies',default=None, required=False),\r\n\tField('currency_code', 'string', length=255,default=None, required=False),\r\n\tField('isin', 'string', length=255,default=None, required=False),\r\n\tField('rolotec_id', 'string', length=255,default=None, required=False))\r\n                \r\ndb.define_table('custom_fields',\r\n\tField('bean_id', 'string', length=36,default=None, required=False),\r\n\tField('set_num', 'integer',default= '0', required=False))\r\n\r\ndb.define_table('database_fundinfo',\r\n\tField('rolotec_id', 'string', length=255,default=None, required=False),\r\n\tField('history_date', 'date',default=None, required=False),\r\n\tField('close_price', 'decimal(16,2)',default=None, required=False),\r\n\tField('name', 'string', length=255,default=None, required=False),\r\n\tField('isin', 'string', length=32,default=None, required=False),\r\n\tField('document_type', 'string', length=4,default=None, required=False),\r\n\tField('document_country', 'string', length=2,default=None, required=False),\r\n\tField('document_language', 'string', length=2,default=None, required=False),\r\n\tField('document_url', 'string', length=255,default=None, required=False),\r\n\tField('document_idd', 'integer',default=None, required=False),\r\n\tField('document_record_date', 'date',default=None, required=False),\r\n\tField('document_modified_date', 'date',default=None, required=False),\r\n\tField('document_constraint', 'string', length=3,default=None, required=False),\r\n\tField('document_file', 'string', length=255,default=None, required=False),\r\n\tField('document_node', 'string', length=255,default=None, required=False))\r\n                \r\ndb.define_table('fdata_products',\r\n\tField('name', 'string', length=255,default=None, required=False),\r\n\tField('rolotec_id', 'string', length=255,default=None, required=False),\r\n\tField('isin', 'string', length=32,default=None, required=False),\r\n\tField('full_name', 'string', length=255,default=None, required=False),\r\n\tField('short_name', 'string', length=255,default=None, required=False),\r\n\tField('aum_size', 'string', length=64,default=None, required=False),\r\n\tField('issuer_given_index', 'string', length=64,default=None, required=False),\r\n\tField('issuing_size', 'string', length=64,default=None, required=False),\r\n\tField('performance_chart_last_12_months', 'string', length=64,default=None, required=False),\r\n\tField('average_daily_volume_chart_last_12_months', 'string', length=64,default=None, required=False))\r\n### check these vs rolotec and vwd mapping tables                \r\ndb.define_table('documents',\r\n\tField('description', 'date',default=None, required=False),\r\n\tField('assigned_user_id', 'string', length=36,default=None, required=False),\r\n\tField('rolotec_id', 'string', length=255,default=None, required=False),\r\n\r\n\tField('parent_id', 'string', length=36,default=None, required=False),\r\n\r\n\tField('data_type', 'string', length=100,default=None, required=False),\r\n\t\r\n\tField('change_log', 'string', length=255,default=None, required=False),\r\n\tField('document_id', 'string', length=36,default=None, required=False),\r\n\tField('doc_id', 'string', length=100,default=None, required=False),\r\n\tField('doc_type', 'string', length=100,default= 'Sugar', required=False),\r\n\tField('doc_url', 'string', length=255,default=None, required=False),\r\n   \r\n\tField('filename', 'string', length=255,default=None, required=False),\r\n\tField('file_ext', 'string', length=100,default=None, required=False),\r\n\tField('file_mime_type', 'string', length=100,default=None, required=False),\r\n\tField('revision', 'string', length=100,default=None, required=False),\r\n\tField('deleted', 'integer',default= '0', required=False),\r\n\r\n\tField('id', 'string', length=36,default=None, required=False),\r\n\r\n\r\n\tField('active_date', 'date',default=None, required=False),\r\n\tField('exp_date', 'date',default=None, required=False),\r\n\tField('category_id', 'string', length=100,default=None, required=False),\r\n\tField('subcategory_id', 'string', length=100,default=None, required=False),\r\n\tField('status_id', 'string', length=100,default=None, required=False),\r\n\tField('document_revision_id', 'string', length=36,default=None, required=False),\r\n                \r\n\tField('related_doc_id', 'string', length=36,default=None, required=False),\r\n\tField('related_doc_rev_id', 'string', length=36,default=None, required=False),\r\n\tField('is_template', 'integer',default= '0', required=False),\r\n\tField('template_type', 'string', length=100,default=None, required=False))\r\n               \r\ndb.define_table('crm_CustRelation',\r\n\tField('source', 'string', length=36,default=None, required=False),\r\n\tField('enclosure', 'string', length=1,default= ' ', required=False),\r\n\tField('delimiter', 'string', length=1,default= '', required=False),\r\n\tField('module', 'string', length=36,default=None, required=False),\r\n\tField('content', 'date',default=None, required=False),\r\n\tField('default_values', 'date',default=None, required=False),\r\n\tField('has_header', 'integer',default= '1', required=False),\r\n\r\n\tField('is_published', 'string', length=3,default= 'no', required=False),\r\n\r\n\tField('status', 'string', length=20,default=None, required=False),\r\n\r\n\tField('ie_timestamp', 'integer',default=None, required=False),\r\n\r\n\tField('alias', 'string', length=255,default=None, required=False),\r\n\tField('vqf', 'integer',default= '1', required=False),\r\n\tField('bvv', 'integer',default= '0', required=False),\r\n\tField('vsv', 'integer',default= '0', required=False),\r\n\tField('bovv', 'integer',default= '0', required=False),\r\n\tField('mifid2', 'integer',default= '0', required=False),\r\n\tField('kubetype', 'string', length=100,default= 'privateindividual', required=False),\r\n\tField('kubenp', 'string', length=100,default= 'other', required=False),\r\n\tField('kubele', 'string', length=100,default= 'contractingparty', required=False),\r\n\tField('amla_file_no', 'integer',default=None, required=False),\r\n\tField('kbe_vqf_id_c', 'string', length=36,default=None, required=False),\r\n\tField('kube_lang_other', 'string', length=255,default=None, required=False),\r\n\tField('kube_sprache', 'date',default=None, required=False),\r\n\tField('contract_date', 'date',default=None, required=False),\r\n\tField('geschaeftsbez_aufnahme', 'date',default=None, required=False),\r\n\tField('finma', 'integer',default= '0', required=False),\r\n\tField('fma', 'integer',default= '0', required=False),\r\n\tField('bafin', 'integer',default= '0', required=False),\r\n\r\n\tField('employee_id_c', 'string', length=36,default=None, required=False),\r\n\tField('client_currency', 'string', length=10,default=None, required=False),\r\n\r\n\tField('contract_document', 'string', length=255,default=None, required=False))\t\r\n\r\ndb.define_table('kreports',\r\n\tField('report_module', 'string', length=25,default=None, required=False),\r\n\tField('report_status', 'string', length=1,default=None, required=False),\r\n\tField('union_modules', 'date',default=None, required=False),\r\n\tField('reportoptions', 'date',default=None, required=False),\r\n\tField('listtype', 'string', length=10,default=None, required=False),\r\n\tField('listtypeproperties', 'date',default=None, required=False),\r\n\tField('selectionlimit', 'string', length=25,default=None, required=False),\r\n\tField('presentation_params', 'date',default=None, required=False),\r\n\tField('visualization_params', 'date',default=None, required=False),\r\n\tField('integration_params', 'date',default=None, required=False),\r\n\tField('wheregroups', 'date',default=None, required=False),\r\n\tField('whereconditions', 'date',default=None, required=False),\r\n\tField('listfields', 'date',default=None, required=False),\r\n\tField('unionlistfields', 'date',default=None, required=False),\r\n\tField('advancedoptions', 'date',default=None, required=False))\r\n\r\ndb.define_table('leads', ## use same as contacts except less fields\r\n\r\n\tField('converted', 'integer',default= '0', required=False),\r\n\tField('refered_by', 'string', length=100,default=None, required=False),\r\n\tField('lead_source', 'string', length=100,default=None, required=False),\r\n\tField('lead_source_description', 'date',default=None, required=False),\r\n\tField('status', 'string', length=100,default=None, required=False),\r\n\tField('status_description', 'date',default=None, required=False),\r\n\r\n\tField('opportunity_id', 'string', length=36,default=None, required=False),\r\n\tField('campaign_id', 'string', length=36,default=None, required=False),\r\n\r\n\tField('birthdate', 'date',default=None, required=False),\r\n\tField('portal_name', 'string', length=255,default=None, required=False),\r\n\tField('portal_app', 'string', length=255,default=None, required=False),\r\n\tField('website', 'string', length=255,default=None, required=False),\r\n\r\n\tField('middle_name', 'string', length=255,default=None, required=False))\r\n\r\ndb.define_table('fundinfo_docs',\r\n\tField('name', 'string', length=36,default=None, required=False))\r\n                \r\ndb.define_table('fdata_vdf',\r\n\tField('name', 'string', length=36,default=None, required=False))\r\n                \r\ndb.define_table('fdata_rolotec',\r\n\tField('name', 'string', length=36,default=None, required=False))\r\n                \r\ndb.define_table('portf_mandate_bands',\r\n\tField('name', 'string', length=36,default=None, required=False))\r\n                \r\ndb.define_table('portf_rulesets',\r\n         Field('rule_type', 'string', length=255,default=None, required=False), ## ExcludedName,ExcludedSector,Percentage\r\n         Field('rule_target', 'string', length=255,default=None, required=False), ## Names,Sectors,Perc_concentration,Perc_Absolute\r\n         Field('monitor_freq', 'string', length=255,default=None, required=False), ## real,simulated,other\r\n         Field('name', 'string', length=36,default=None, required=False))\r\n                                \r\ndb.define_table('crm_tasks',\r\n\tField('name', 'string', length=36,default=None, required=False))\r\n                \r\ndb.define_table('crm_meetings',\r\n\tField('name', 'string', length=36,default=None, required=False))\r\n                \r\ndb.define_table('fdata_transactions',\r\n         Field('name', 'string', length=36,default=None, required=False))\r\n                \r\ndb.define_table('portf_portfolio',\r\n         Field('portfolio_type', 'string', length=255,default=None, required=False), ## real,simulated,other\r\n         Field('name', 'string', length=36,default=None, required=False))\r\n\r\ndb.define_table('portf_allocationModel',\r\n         Field('website', 'string', length=255,default=None, required=False),\r\n         Field('name', 'string', length=36,default=None, required=False))\r\n\r\ndb.define_table('comp_pii',\r\n\tField('name', 'string', length=36,default=None, required=False))\r\ndb.define_table('rules_n_bands',\r\n\tField('name', 'string', length=36,default=None, required=False))\r\ndb.define_table('portf_stamm_acct',\r\n\tField('name', 'string', length=36,default=None, required=False))\r\ndb.define_table('portf_sub_acct',\r\n\tField('name', 'string', length=36,default=None, required=False))\r\ndb.define_table('portf_depot_banks',\r\n\tField('name', 'string', length=36,default=None, required=False))\r\ndb.define_table('portf_benchmarks',\r\n\tField('name', 'string', length=36,default=None, required=False))\r\n"
p7
sS'snapshot'
p8
(dp9
S'exception'
p10
(dp11
S'__module__'
p12
S"'cPickle'"
p13
sS'__getslice__'
p14
S"<method-wrapper '__getslice__' of UnpicklingError object>"
p15
sS'__str__'
p16
S"<bound method UnpicklingError.__str__ of UnpicklingError('pickle data was truncated',)>"
p17
sS'__reduce__'
p18
S'<built-in method __reduce__ of UnpicklingError object>'
p19
sS'__dict__'
p20
S'{}'
p21
sS'__sizeof__'
p22
S'<built-in method __sizeof__ of UnpicklingError object>'
p23
sS'__weakref__'
p24
S'None'
p25
sS'__init__'
p26
S"<method-wrapper '__init__' of UnpicklingError object>"
p27
sS'__setattr__'
p28
S"<method-wrapper '__setattr__' of UnpicklingError object>"
p29
sS'__reduce_ex__'
p30
S'<built-in method __reduce_ex__ of UnpicklingError object>'
p31
sS'__new__'
p32
S'<built-in method __new__ of type object>'
p33
sS'__format__'
p34
S'<built-in method __format__ of UnpicklingError object>'
p35
sS'__class__'
p36
S"<class 'cPickle.UnpicklingError'>"
p37
sS'__doc__'
p38
S'None'
p39
sS'__getitem__'
p40
S"<method-wrapper '__getitem__' of UnpicklingError object>"
p41
sS'__setstate__'
p42
S'<built-in method __setstate__ of UnpicklingError object>'
p43
sS'__getattribute__'
p44
S"<method-wrapper '__getattribute__' of UnpicklingError object>"
p45
sS'args'
p46
S"('pickle data was truncated',)"
p47
sS'__subclasshook__'
p48
S'<built-in method __subclasshook__ of type object>'
p49
sS'__unicode__'
p50
S'<built-in method __unicode__ of UnpicklingError object>'
p51
sS'__delattr__'
p52
S"<method-wrapper '__delattr__' of UnpicklingError object>"
p53
sS'__repr__'
p54
S"<method-wrapper '__repr__' of UnpicklingError object>"
p55
sS'__hash__'
p56
S"<method-wrapper '__hash__' of UnpicklingError object>"
p57
ssS'evalue'
p58
S'pickle data was truncated'
p59
sS'request'
p60
cgluon.html
XML_unpickle
p61
(S'sXY\x00\x00<div><table><tr><td style="font-weight:bold;vertical-align:top;">ajax</td><td style="vertical-align:top;">:</td><td><div>False</div></td></tr><tr><td style="font-weight:bold;vertical-align:top;">application</td><td style="vertical-align:top;">:</td><td><div>AddfinV5simple</div></td></tr><tr><td style="font-weight:bold;vertical-align:top;">args</td><td style="vertical-align:top;">:</td><td><div><table></table></div></td></tr><tr><td style="font-weight:bold;vertical-align:top;">cid</td><td style="vertical-align:top;">:</td><td><div>None</div></td></tr><tr><td style="font-weight:bold;vertical-align:top;">client</td><td style="vertical-align:top;">:</td><td><div>82.136.125.213</div></td></tr><tr><td style="font-weight:bold;vertical-align:top;">controller</td><td style="vertical-align:top;">:</td><td><div>default</div></td></tr><tr><td style="font-weight:bold;vertical-align:top;">cookies</td><td style="vertical-align:top;">:</td><td><div><table><tr><td style="font-weight:bold;vertical-align:top;">session_id_admin</td><td style="vertical-align:top;">:</td><td><div>82.136.125.213-d84a3a47-9246-4316-909a-db5a6326e828<table><tr><td style="font-weight:bold;vertical-align:top;">comment</td><td style="vertical-align:top;">:</td><td><div></div></td></tr><tr><td style="font-weight:bold;vertical-align:top;">domain</td><td style="vertical-align:top;">:</td><td><div></div></td></tr><tr><td style="font-weight:bold;vertical-align:top;">expires</td><td style="vertical-align:top;">:</td><td><div></div></td></tr><tr><td style="font-weight:bold;vertical-align:top;">httponly</td><td style="vertical-align:top;">:</td><td><div></div></td></tr><tr><td style="font-weight:bold;vertical-align:top;">max-age</td><td style="vertical-align:top;">:</td><td><div></div></td></tr><tr><td style="font-weight:bold;vertical-align:top;">path</td><td style="vertical-align:top;">:</td><td><div></div></td></tr><tr><td style="font-weight:bold;vertical-align:top;">secure</td><td style="vertical-align:top;">:</td><td><div></div></td></tr><tr><td style="font-weight:bold;vertical-align:top;">version</td><td style="vertical-align:top;">:</td><td><div></div></td></tr></table></div></td></tr><tr><td style="font-weight:bold;vertical-align:top;">session_id_welcome</td><td style="vertical-align:top;">:</td><td><div>82.136.125.213-213df1c9-b379-480e-8323-446829ff6ecd<table><tr><td style="font-weight:bold;vertical-align:top;">comment</td><td style="vertical-align:top;">:</td><td><div></div></td></tr><tr><td style="font-weight:bold;vertical-align:top;">domain</td><td style="vertical-align:top;">:</td><td><div></div></td></tr><tr><td style="font-weight:bold;vertical-align:top;">expires</td><td style="vertical-align:top;">:</td><td><div></div></td></tr><tr><td style="font-weight:bold;vertical-align:top;">httponly</td><td style="vertical-align:top;">:</td><td><div></div></td></tr><tr><td style="font-weight:bold;vertical-align:top;">max-age</td><td style="vertical-align:top;">:</td><td><div></div></td></tr><tr><td style="font-weight:bold;vertical-align:top;">path</td><td style="vertical-align:top;">:</td><td><div></div></td></tr><tr><td style="font-weight:bold;vertical-align:top;">secure</td><td style="vertical-align:top;">:</td><td><div></div></td></tr><tr><td style="font-weight:bold;vertical-align:top;">version</td><td style="vertical-align:top;">:</td><td><div></div></td></tr></table></div></td></tr><tr><td style="font-weight:bold;vertical-align:top;">sessionid</td><td style="vertical-align:top;">:</td><td><div>8pu2ffzeemdc49gkcqea4hgf195p76ck<table><tr><td style="font-weight:bold;vertical-align:top;">comment</td><td style="vertical-align:top;">:</td><td><div></div></td></tr><tr><td style="font-weight:bold;vertical-align:top;">domain</td><td style="vertical-align:top;">:</td><td><div></div></td></tr><tr><td style="font-weight:bold;vertical-align:top;">expires</td><td style="vertical-align:top;">:</td><td><div></div></td></tr><tr><td style="font-weight:bold;vertical-align:top;">httponly</td><td style="vertical-align:top;">:</td><td><div></div></td></tr><tr><td style="font-weight:bold;vertical-align:top;">max-age</td><td style="vertical-align:top;">:</td><td><div></div></td></tr><tr><td style="font-weight:bold;vertical-align:top;">path</td><td style="vertical-align:top;">:</td><td><div></div></td></tr><tr><td style="font-weight:bold;vertical-align:top;">secure</td><td style="vertical-align:top;">:</td><td><div></div></td></tr><tr><td style="font-weight:bold;vertical-align:top;">version</td><td style="vertical-align:top;">:</td><td><div></div></td></tr></table></div></td></tr></table></div></td></tr><tr><td style="font-weight:bold;vertical-align:top;">env</td><td style="vertical-align:top;">:</td><td><div><table><tr><td style="font-weight:bold;vertical-align:top;">CONTENT_LENGTH</td><td style="vertical-align:top;">:</td><td><div></div></td></tr><tr><td style="font-weight:bold;vertical-align:top;">CONTENT_TYPE</td><td style="vertical-align:top;">:</td><td><div></div></td></tr><tr><td style="font-weight:bold;vertical-align:top;">DOCUMENT_ROOT</td><td style="vertical-align:top;">:</td><td><div>/usr/local/openresty/nginx/html</div></td></tr><tr><td style="font-weight:bold;vertical-align:top;">HTTPS</td><td style="vertical-align:top;">:</td><td><div>on</div></td></tr><tr><td style="font-weight:bold;vertical-align:top;">HTTP_ACCEPT</td><td style="vertical-align:top;">:</td><td><div>text/html,application/xhtml+xml,application/xml;q=0.9,image/webp,*/*;q=0.8</div></td></tr><tr><td style="font-weight:bold;vertical-align:top;">HTTP_ACCEPT_ENCODING</td><td style="vertical-align:top;">:</td><td><div>gzip, deflate, sdch, br</div></td></tr><tr><td style="font-weight:bold;vertical-align:top;">HTTP_ACCEPT_LANGUAGE</td><td style="vertical-align:top;">:</td><td><div>en-US,en;q=0.8,de-DE;q=0.6,de;q=0.4</div></td></tr><tr><td style="font-weight:bold;vertical-align:top;">HTTP_CONNECTION</td><td style="vertical-align:top;">:</td><td><div>close</div></td></tr><tr><td style="font-weight:bold;vertical-align:top;">HTTP_COOKIE</td><td style="vertical-align:top;">:</td><td><div>sessionid=8pu2ffzeemdc49gkcqea4hgf195p76ck; _gat=1; _ga=GA1.2.1219935687.1458804111; session_id_welcome=82.136.125.213-213df1c9-b379-480e-8323-446829ff6ecd; session_id_admin=82.136.125.213-d84a3a47-9246-4316-909a-db5a6326e828</div></td></tr><tr><td style="font-weight:bold;vertical-align:top;">HTTP_HOST</td><td style="vertical-align:top;">:</td><td><div>reprior123.pythonanywhere.com</div></td></tr><tr><td style="font-weight:bold;vertical-align:top;">HTTP_REFERER</td><td style="vertical-align:top;">:</td><td><div>https://reprior123.pythonanywhere.com/admin/default/site</div></td></tr><tr><td style="font-weight:bold;vertical-align:top;">HTTP_UPGRADE_INSECURE_REQUESTS</td><td style="vertical-align:top;">:</td><td><div>1</div></td></tr><tr><td style="font-weight:bold;vertical-align:top;">HTTP_USER_AGENT</td><td style="vertical-align:top;">:</td><td><div>Mozilla/5.0 (Windows NT 6.1; WOW64) AppleWebKit/537.36 (KHTML, like Gecko) Chrome/51.0.2704.103 Safari/537.36</div></td></tr><tr><td style="font-weight:bold;vertical-align:top;">HTTP_X_FORWARDED_FOR</td><td style="vertical-align:top;">:</td><td><div>82.136.125.213</div></td></tr><tr><td style="font-weight:bold;vertical-align:top;">HTTP_X_REAL_IP</td><td style="vertical-align:top;">:</td><td><div>82.136.125.213</div></td></tr><tr><td style="font-weight:bold;vertical-align:top;">PATH_INFO</td><td style="vertical-align:top;">:</td><td><div>/AddfinV5simple/default/index</div></td></tr><tr><td style="font-weight:bold;vertical-align:top;">QUERY_STRING</td><td style="vertical-align:top;">:</td><td><div></div></td></tr><tr><td style="font-weight:bold;vertical-align:top;">REMOTE_ADDR</td><td style="vertical-align:top;">:</td><td><div>10.111.216.9</div></td></tr><tr><td style="font-weight:bold;vertical-align:top;">REMOTE_PORT</td><td style="vertical-align:top;">:</td><td><div>47642</div></td></tr><tr><td style="font-weight:bold;vertical-align:top;">REQUEST_METHOD</td><td style="vertical-align:top;">:</td><td><div>GET</div></td></tr><tr><td style="font-weight:bold;vertical-align:top;">REQUEST_URI</td><td style="vertical-align:top;">:</td><td><div>/AddfinV5simple/default/index</div></td></tr><tr><td style="font-weight:bold;vertical-align:top;">SCRIPT_NAME</td><td style="vertical-align:top;">:</td><td><div></div></td></tr><tr><td style="font-weight:bold;vertical-align:top;">SERVER_NAME</td><td style="vertical-align:top;">:</td><td><div>reprior123.pythonanywhere.com</div></td></tr><tr><td style="font-weight:bold;vertical-align:top;">SERVER_PORT</td><td style="vertical-align:top;">:</td><td><div>443</div></td></tr><tr><td style="font-weight:bold;vertical-align:top;">SERVER_PROTOCOL</td><td style="vertical-align:top;">:</td><td><div>HTTP/1.1</div></td></tr><tr><td style="font-weight:bold;vertical-align:top;">app_folders</td><td style="vertical-align:top;">:</td><td><div>set([&#x27;/home/reprior123/WEBPY/web2pyReal/applications/ADDFINWEALTHV1/&#x27;, &#x27;/home/reprior123/WEBPY/web2pyReal/applications/AddfinV4/&#x27;, &#x27;/home/reprior123/WEBPY/web2pyReal/applications/admin/&#x27;, &#x27;/home/reprior123/WEBPY/web2pyReal/applications/AddfinV5simple/&#x27;, &#x27;/home/reprior123/WEBPY/web2pyReal/applications/welcome/&#x27;])</div></td></tr><tr><td style="font-weight:bold;vertical-align:top;">applications_parent</td><td style="vertical-align:top;">:</td><td><div>/home/reprior123/WEBPY/web2pyReal</div></td></tr><tr><td style="font-weight:bold;vertical-align:top;">content_length</td><td style="vertical-align:top;">:</td><td><div></div></td></tr><tr><td style="font-weight:bold;vertical-align:top;">content_type</td><td style="vertical-align:top;">:</td><td><div></div></td></tr><tr><td style="font-weight:bold;vertical-align:top;">db_sessions</td><td style="vertical-align:top;">:</td><td><div>set([])</div></td></tr><tr><td style="font-weight:bold;vertical-align:top;">debugging</td><td style="vertical-align:top;">:</td><td><div>False</div></td></tr><tr><td style="font-weight:bold;vertical-align:top;">document_root</td><td style="vertical-align:top;">:</td><td><div>/usr/local/openresty/nginx/html</div></td></tr><tr><td style="font-weight:bold;vertical-align:top;">gluon_parent</td><td style="vertical-align:top;">:</td><td><div>/home/reprior123/WEBPY/web2pyReal</div></td></tr><tr><td style="font-weight:bold;vertical-align:top;">http_accept</td><td style="vertical-align:top;">:</td><td><div>text/html,application/xhtml+xml,application/xml;q=0.9,image/webp,*/*;q=0.8</div></td></tr><tr><td style="font-weight:bold;vertical-align:top;">http_accept_encoding</td><td style="vertical-align:top;">:</td><td><div>gzip, deflate, sdch, br</div></td></tr><tr><td style="font-weight:bold;vertical-align:top;">http_accept_language</td><td style="vertical-align:top;">:</td><td><div>en-US,en;q=0.8,de-DE;q=0.6,de;q=0.4</div></td></tr><tr><td style="font-weight:bold;vertical-align:top;">http_connection</td><td style="vertical-align:top;">:</td><td><div>close</div></td></tr><tr><td style="font-weight:bold;vertical-align:top;">http_cookie</td><td style="vertical-align:top;">:</td><td><div>sessionid=8pu2ffzeemdc49gkcqea4hgf195p76ck; _gat=1; _ga=GA1.2.1219935687.1458804111; session_id_welcome=82.136.125.213-213df1c9-b379-480e-8323-446829ff6ecd; session_id_admin=82.136.125.213-d84a3a47-9246-4316-909a-db5a6326e828</div></td></tr><tr><td style="font-weight:bold;vertical-align:top;">http_host</td><td style="vertical-align:top;">:</td><td><div>reprior123.pythonanywhere.com</div></td></tr><tr><td style="font-weight:bold;vertical-align:top;">http_referer</td><td style="vertical-align:top;">:</td><td><div>https://reprior123.pythonanywhere.com/admin/default/site</div></td></tr><tr><td style="font-weight:bold;vertical-align:top;">http_upgrade_insecure_requests</td><td style="vertical-align:top;">:</td><td><div>1</div></td></tr><tr><td style="font-weight:bold;vertical-align:top;">http_user_agent</td><td style="vertical-align:top;">:</td><td><div>Mozilla/5.0 (Windows NT 6.1; WOW64) AppleWebKit/537.36 (KHTML, like Gecko) Chrome/51.0.2704.103 Safari/537.36</div></td></tr><tr><td style="font-weight:bold;vertical-align:top;">http_x_forwarded_for</td><td style="vertical-align:top;">:</td><td><div>82.136.125.213</div></td></tr><tr><td style="font-weight:bold;vertical-align:top;">http_x_real_ip</td><td style="vertical-align:top;">:</td><td><div>82.136.125.213</div></td></tr><tr><td style="font-weight:bold;vertical-align:top;">https</td><td style="vertical-align:top;">:</td><td><div>on</div></td></tr><tr><td style="font-weight:bold;vertical-align:top;">is_jython</td><td style="vertical-align:top;">:</td><td><div>False</div></td></tr><tr><td style="font-weight:bold;vertical-align:top;">is_pypy</td><td style="vertical-align:top;">:</td><td><div>False</div></td></tr><tr><td style="font-weight:bold;vertical-align:top;">is_source</td><td style="vertical-align:top;">:</td><td><div>True</div></td></tr><tr><td style="font-weight:bold;vertical-align:top;">local_hosts</td><td style="vertical-align:top;">:</td><td><div><table><tr><td><div>giles-liveweb7</div></td></tr><tr><td><div>::ffff:127.0.0.1</div></td></tr><tr><td><div>::1</div></td></tr><tr><td><div>50.19.109.98</div></td></tr><tr><td><div>127.0.0.1</div></td></tr><tr><td><div>reprior123.pythonanywhere.com</div></td></tr><tr><td><div>localhost</div></td></tr></table></div></td></tr><tr><td style="font-weight:bold;vertical-align:top;">path_info</td><td style="vertical-align:top;">:</td><td><div>/AddfinV5simple/default/index</div></td></tr><tr><td style="font-weight:bold;vertical-align:top;">query_string</td><td style="vertical-align:top;">:</td><td><div></div></td></tr><tr><td style="font-weight:bold;vertical-align:top;">remote_addr</td><td style="vertical-align:top;">:</td><td><div>10.111.216.9</div></td></tr><tr><td style="font-weight:bold;vertical-align:top;">remote_port</td><td style="vertical-align:top;">:</td><td><div>47642</div></td></tr><tr><td style="font-weight:bold;vertical-align:top;">request_method</td><td style="vertical-align:top;">:</td><td><div>GET</div></td></tr><tr><td style="font-weight:bold;vertical-align:top;">request_uri</td><td style="vertical-align:top;">:</td><td><div>/AddfinV5simple/default/index</div></td></tr><tr><td style="font-weight:bold;vertical-align:top;">script_name</td><td style="vertical-align:top;">:</td><td><div></div></td></tr><tr><td style="font-weight:bold;vertical-align:top;">server_name</td><td style="vertical-align:top;">:</td><td><div>reprior123.pythonanywhere.com</div></td></tr><tr><td style="font-weight:bold;vertical-align:top;">server_port</td><td style="vertical-align:top;">:</td><td><div>443</div></td></tr><tr><td style="font-weight:bold;vertical-align:top;">server_protocol</td><td style="vertical-align:top;">:</td><td><div>HTTP/1.1</div></td></tr><tr><td style="font-weight:bold;vertical-align:top;">uwsgi.node</td><td style="vertical-align:top;">:</td><td><div>giles-liveweb7</div></td></tr><tr><td style="font-weight:bold;vertical-align:top;">uwsgi.version</td><td style="vertical-align:top;">:</td><td><div>2.0.5.1</div></td></tr><tr><td style="font-weight:bold;vertical-align:top;">uwsgi_node</td><td style="vertical-align:top;">:</td><td><div>giles-liveweb7</div></td></tr><tr><td style="font-weight:bold;vertical-align:top;">uwsgi_version</td><td style="vertical-align:top;">:</td><td><div>2.0.5.1</div></td></tr><tr><td style="font-weight:bold;vertical-align:top;">web2py_path</td><td style="vertical-align:top;">:</td><td><div>/home/reprior123/WEBPY/web2pyReal</div></td></tr><tr><td style="font-weight:bold;vertical-align:top;">web2py_version</td><td style="vertical-align:top;">:</td><td><div>2.14.5-stable+timestamp.2016.04.14.03.26.16</div></td></tr><tr><td style="font-weight:bold;vertical-align:top;">wsgi.errors</td><td style="vertical-align:top;">:</td><td><div>&lt;uwsgi_file__bin_user_wsgi_wrapper.ErrorLogFile object at 0x7f23ea181150&gt;</div></td></tr><tr><td style="font-weight:bold;vertical-align:top;">wsgi.file_wrapper</td><td style="vertical-align:top;">:</td><td><div>&lt;built-in function uwsgi_sendfile&gt;</div></td></tr><tr><td style="font-weight:bold;vertical-align:top;">wsgi.input</td><td style="vertical-align:top;">:</td><td><div>&lt;uwsgi._Input object at 0x7f23f46b7db0&gt;</div></td></tr><tr><td style="font-weight:bold;vertical-align:top;">wsgi.multiprocess</td><td style="vertical-align:top;">:</td><td><div>True</div></td></tr><tr><td style="font-weight:bold;vertical-align:top;">wsgi.multithread</td><td style="vertical-align:top;">:</td><td><div>False</div></td></tr><tr><td style="font-weight:bold;vertical-align:top;">wsgi.run_once</td><td style="vertical-align:top;">:</td><td><div>False</div></td></tr><tr><td style="font-weight:bold;vertical-align:top;">wsgi.url_scheme</td><td style="vertical-align:top;">:</td><td><div>https</div></td></tr><tr><td style="font-weight:bold;vertical-align:top;">wsgi.version</td><td style="vertical-align:top;">:</td><td><div><table><tr><td><div>1</div></td></tr><tr><td><div>0</div></td></tr></table></div></td></tr><tr><td style="font-weight:bold;vertical-align:top;">wsgi_errors</td><td style="vertical-align:top;">:</td><td><div>&lt;uwsgi_file__bin_user_wsgi_wrapper.ErrorLogFile object at 0x7f23ea181150&gt;</div></td></tr><tr><td style="font-weight:bold;vertical-align:top;">wsgi_file_wrapper</td><td style="vertical-align:top;">:</td><td><div>&lt;built-in function uwsgi_sendfile&gt;</div></td></tr><tr><td style="font-weight:bold;vertical-align:top;">wsgi_input</td><td style="vertical-align:top;">:</td><td><div>&lt;uwsgi._Input object at 0x7f23f46b7db0&gt;</div></td></tr><tr><td style="font-weight:bold;vertical-align:top;">wsgi_multiprocess</td><td style="vertical-align:top;">:</td><td><div>True</div></td></tr><tr><td style="font-weight:bold;vertical-align:top;">wsgi_multithread</td><td style="vertical-align:top;">:</td><td><div>False</div></td></tr><tr><td style="font-weight:bold;vertical-align:top;">wsgi_run_once</td><td style="vertical-align:top;">:</td><td><div>False</div></td></tr><tr><td style="font-weight:bold;vertical-align:top;">wsgi_url_scheme</td><td style="vertical-align:top;">:</td><td><div>https</div></td></tr><tr><td style="font-weight:bold;vertical-align:top;">wsgi_version</td><td style="vertical-align:top;">:</td><td><div><table><tr><td><div>1</div></td></tr><tr><td><div>0</div></td></tr></table></div></td></tr></table></div></td></tr><tr><td style="font-weight:bold;vertical-align:top;">extension</td><td style="vertical-align:top;">:</td><td><div>html</div></td></tr><tr><td style="font-weight:bold;vertical-align:top;">folder</td><td style="vertical-align:top;">:</td><td><div>/home/reprior123/WEBPY/web2pyReal/applications/AddfinV5simple/</div></td></tr><tr><td style="font-weight:bold;vertical-align:top;">function</td><td style="vertical-align:top;">:</td><td><div>index</div></td></tr><tr><td style="font-weight:bold;vertical-align:top;">global_settings</td><td style="vertical-align:top;">:</td><td><div><table><tr><td style="font-weight:bold;vertical-align:top;">app_folders</td><td style="vertical-align:top;">:</td><td><div>set([&#x27;/home/reprior123/WEBPY/web2pyReal/applications/ADDFINWEALTHV1/&#x27;, &#x27;/home/reprior123/WEBPY/web2pyReal/applications/AddfinV4/&#x27;, &#x27;/home/reprior123/WEBPY/web2pyReal/applications/admin/&#x27;, &#x27;/home/reprior123/WEBPY/web2pyReal/applications/AddfinV5simple/&#x27;, &#x27;/home/reprior123/WEBPY/web2pyReal/applications/welcome/&#x27;])</div></td></tr><tr><td style="font-weight:bold;vertical-align:top;">applications_parent</td><td style="vertical-align:top;">:</td><td><div>/home/reprior123/WEBPY/web2pyReal</div></td></tr><tr><td style="font-weight:bold;vertical-align:top;">db_sessions</td><td style="vertical-align:top;">:</td><td><div>set([])</div></td></tr><tr><td style="font-weight:bold;vertical-align:top;">debugging</td><td style="vertical-align:top;">:</td><td><div>False</div></td></tr><tr><td style="font-weight:bold;vertical-align:top;">gluon_parent</td><td style="vertical-align:top;">:</td><td><div>/home/reprior123/WEBPY/web2pyReal</div></td></tr><tr><td style="font-weight:bold;vertical-align:top;">is_jython</td><td style="vertical-align:top;">:</td><td><div>False</div></td></tr><tr><td style="font-weight:bold;vertical-align:top;">is_pypy</td><td style="vertical-align:top;">:</td><td><div>False</div></td></tr><tr><td style="font-weight:bold;vertical-align:top;">is_source</td><td style="vertical-align:top;">:</td><td><div>True</div></td></tr><tr><td style="font-weight:bold;vertical-align:top;">local_hosts</td><td style="vertical-align:top;">:</td><td><div><table><tr><td><div>giles-liveweb7</div></td></tr><tr><td><div>::ffff:127.0.0.1</div></td></tr><tr><td><div>::1</div></td></tr><tr><td><div>50.19.109.98</div></td></tr><tr><td><div>127.0.0.1</div></td></tr><tr><td><div>reprior123.pythonanywhere.com</div></td></tr><tr><td><div>localhost</div></td></tr></table></div></td></tr><tr><td style="font-weight:bold;vertical-align:top;">web2py_version</td><td style="vertical-align:top;">:</td><td><div>2.14.5-stable+timestamp.2016.04.14.03.26.16</div></td></tr></table></div></td></tr><tr><td style="font-weight:bold;vertical-align:top;">is_https</td><td style="vertical-align:top;">:</td><td><div>True</div></td></tr><tr><td style="font-weight:bold;vertical-align:top;">is_local</td><td style="vertical-align:top;">:</td><td><div>False</div></td></tr><tr><td style="font-weight:bold;vertical-align:top;">is_restful</td><td style="vertical-align:top;">:</td><td><div>False</div></td></tr><tr><td style="font-weight:bold;vertical-align:top;">is_scheduler</td><td style="vertical-align:top;">:</td><td><div>False</div></td></tr><tr><td style="font-weight:bold;vertical-align:top;">is_shell</td><td style="vertical-align:top;">:</td><td><div>False</div></td></tr><tr><td style="font-weight:bold;vertical-align:top;">now</td><td style="vertical-align:top;">:</td><td><div>datetime.datetime(2016, 6, 23, 18, 32, 3, 102219)</div></td></tr><tr><td style="font-weight:bold;vertical-align:top;">raw_args</td><td style="vertical-align:top;">:</td><td><div></div></td></tr><tr><td style="font-weight:bold;vertical-align:top;">raw_extension</td><td style="vertical-align:top;">:</td><td><div>None</div></td></tr><tr><td style="font-weight:bold;vertical-align:top;">url</td><td style="vertical-align:top;">:</td><td><div>/AddfinV5simple/default/index</div></td></tr><tr><td style="font-weight:bold;vertical-align:top;">utcnow</td><td style="vertical-align:top;">:</td><td><div>datetime.datetime(2016, 6, 23, 18, 32, 3, 102236)</div></td></tr><tr><td style="font-weight:bold;vertical-align:top;">wsgi</td><td style="vertical-align:top;">:</td><td><div>&lt;gluon.main.LazyWSGI object at 0x7f23dc413a10&gt;</div></td></tr></table></div>'
tRp62
sS'frames'
p63
(lp64
(dp65
S'file'
p66
S'/home/reprior123/WEBPY/web2pyReal/gluon/restricted.py'
p67
sS'dump'
p68
(dp69
S'environment'
p70
S"{'A': <class 'gluon.html.A'>, 'ANY_OF': <class 'gluon.validators.ANY_OF'>, 'ASSIGNJS': <function ASSIGNJS>, 'Auth': <class 'gluon.tools.Auth'>, 'B': <class 'gluon.html.B'>, 'BEAUTIFY': <class 'gluon.html.BEAUTIFY'>, 'BODY': <class 'gluon.html.BODY'>, 'BR': <class 'gluon.html.BR'>, 'BUTTON': <class 'gluon.html.BUTTON'>, 'CAT': <class 'gluon.html.CAT'>, ...}"
p71
sS'ccode'
p72
S'<code object <module> at 0x7f23dca8c730, file "/...ions/AddfinV5simple/models/rp_newest.py", line 1>'
p73
ssS'lnum'
p74
I227
sS'lines'
p75
(dp76
I224
S'            ccode = code'
p77
sI225
S'        else:'
p78
sI226
S'            ccode = compile2(code, layer)'
p79
sI227
S'        exec ccode in environment'
p80
sI228
S'    except HTTP:'
p81
sI229
S'        raise'
p82
sI230
S'    except RestrictedError:'
p83
sI231
S'        # do not encapsulate (obfuscate) the original RestrictedError'
p84
sI222
S'    try:'
p85
sI223
S'        if isinstance(code, types.CodeType):'
p86
ssS'call'
p87
S'(code="TASK_TYPES = (\'Phone\', \'Fax\', \'Mail\', \'Meet\')\\r\\n\\r...ring\', length=36,default=None, required=False))\\r\\n", environment={\'A\': <class \'gluon.html.A\'>, \'ANY_OF\': <class \'gluon.validators.ANY_OF\'>, \'ASSIGNJS\': <function ASSIGNJS>, \'Auth\': <class \'gluon.tools.Auth\'>, \'B\': <class \'gluon.html.B\'>, \'BEAUTIFY\': <class \'gluon.html.BEAUTIFY\'>, \'BODY\': <class \'gluon.html.BODY\'>, \'BR\': <class \'gluon.html.BR\'>, \'BUTTON\': <class \'gluon.html.BUTTON\'>, \'CAT\': <class \'gluon.html.CAT\'>, ...}, layer=\'/home/reprior123/WEBPY/web2pyReal/applications/AddfinV5simple/models/rp_newest.py\')'
p88
sS'func'
p89
S'restricted'
p90
sa(dp91
g66
S'/home/reprior123/WEBPY/web2pyReal/applications/AddfinV5simple/models/rp_newest.py'
p92
sg68
(dp93
S'default'
p94
S'undefined'
p95
sS'Field'
p96
S"<class 'pydal.objects.Field'>"
p97
sS'builtinNone'
p98
S'None'
p99
sS'required'
p100
g95
sS'builtinFalse'
p101
S'False'
p102
ssg74
I74
sg75
(dp103
I69
S"db.define_table('crm_compliance', ## these are attached to CRs"
p104
sI70
S"         Field('nxcfile_pepdoc', 'string', length=255,default=None, required=False),"
p105
sI71
S"         Field('pepcheckstatus', 'string', length=255,default= '2', required=False),"
p106
sI72
S"         Field('taxt_status', 'string', length=255,default=None, required=False),"
p107
sI73
S"         Field('name2_c', 'string', length=255,default=None, required=False),"
p108
sI74
S"         Field('memberships_c', 'date',default=None, required=False))"
p109
sI75
S'### crm still needs calls,tasks,'
p110
sI76
S''
sI77
S"db.define_table('client_roles',"
p111
sI78
S"\tField('clientrole', 'string', length=100,default= 'ContractingParty', required=False),"
p112
ssg87
S'()'
p113
sg89
S'<module>'
p114
sa(dp115
g66
S'/home/reprior123/WEBPY/web2pyReal/gluon/packages/dal/pydal/base.py'
p116
sg68
(dp117
S'fields'
p118
S'(<pydal.objects.Field object>, <pydal.objects.Field object>, <pydal.objects.Field object>, <pydal.objects.Field object>, <pydal.objects.Field object>)'
p119
sS'self'
p120
S'<DAL uri="sqlite://storage.sqlite">'
p121
sS'args'
p122
g21
sS'tablename'
p123
S"'crm_compliance'"
p124
sS'table'
p125
g95
sS'self.lazy_define_table'
p126
S'<bound method DAL.lazy_define_table of <DAL uri="sqlite://storage.sqlite">>'
p127
ssg74
I834
sg75
(dp128
I832
S'            table = None'
p129
sI833
S'        else:'
p130
sI834
S'            table = self.lazy_define_table(tablename,*fields,**args)'
p131
sI835
S'        if not tablename in self.tables:'
p132
sI836
S'            self.tables.append(tablename)'
p133
sI837
S'        return table'
p134
sI838
S''
sI829
S'                    % (tablename,invalid_args))'
p135
sI830
S'        if self._lazy_tables and tablename not in self._LAZY_TABLES:'
p136
sI831
S'            self._LAZY_TABLES[tablename] = (tablename,fields,args)'
p137
ssg87
S'(self=<DAL uri="sqlite://storage.sqlite">, tablename=\'crm_compliance\', *fields=(<pydal.objects.Field object>, <pydal.objects.Field object>, <pydal.objects.Field object>, <pydal.objects.Field object>, <pydal.objects.Field object>), **args={})'
p138
sg89
S'define_table'
p139
sa(dp140
g66
S'/home/reprior123/WEBPY/web2pyReal/gluon/packages/dal/pydal/base.py'
p141
sg68
(dp142
S'polymodel'
p143
S'None'
p144
ssg74
I873
sg75
(dp145
I868
S'            try:'
p146
sI869
S'                GLOBAL_LOCKER.acquire()'
p147
sI870
S'                self._lastsql = self._adapter.create_table('
p148
sI871
S'                    table,migrate=migrate,'
p149
sI872
S'                    fake_migrate=fake_migrate,'
p150
sI873
S'                    polymodel=polymodel)'
p151
sI874
S'            finally:'
p152
sI875
S'                GLOBAL_LOCKER.release()'
p153
sI876
S'        else:'
p154
sI877
S'            table._dbt = None'
p155
ssg87
S'(self=<DAL uri="sqlite://storage.sqlite">, tablename=\'crm_compliance\', *fields=(<pydal.objects.Field object>, <pydal.objects.Field object>, <pydal.objects.Field object>, <pydal.objects.Field object>, <pydal.objects.Field object>), **args={})'
p156
sg89
S'lazy_define_table'
p157
sa(dp158
g66
S'/home/reprior123/WEBPY/web2pyReal/gluon/packages/dal/pydal/adapters/base.py'
p159
sg68
(dp160
S'global pickle'
p161
S"<module 'cPickle' (built-in)>"
p162
sS'tfile'
p163
S'<pydal.contrib.portalocker.LockedFile object>'
p164
sS'sql_fields_old'
p165
g95
sS'pickle.load'
p166
S'<built-in function load>'
p167
ssg74
I500
sg75
(dp168
I495
S'                else:'
p169
sI496
S"                    self.log('success!\\n', table)"
p170
sI497
S'        else:'
p171
sI498
S"            tfile = self.file_open(table._dbt, 'rb')"
p172
sI499
S'            try:'
p173
sI500
S'                sql_fields_old = pickle.load(tfile)'
p174
sI501
S'            except EOFError:'
p175
sI502
S'                self.file_close(tfile)'
p176
sI503
S"                raise RuntimeError('File %s appears corrupted' % table._dbt)"
p177
sI504
S'            self.file_close(tfile)'
p178
ssg87
S'(self=<pydal.adapters.sqlite.SQLiteAdapter object>, table=<Table crm_compliance (id, nxcfile_pepdoc, pepcheckstatus, taxt_status, name2_c, memberships_c)>, migrate=True, fake_migrate=False, polymodel=None)'
p179
sg89
S'create_table'
p180
sasS'pyver'
p181
S'Python 2.7.6: /usr/local/bin/uwsgi (prefix: /usr)'
p182
sS'session'
p183
g61
(S's\x1a\x00\x00\x00<div><table></table></div>'
tRp184
sS'etype'
p185
S"<class 'cPickle.UnpicklingError'>"
p186
sS'date'
p187
S'Thu Jun 23 18:32:03 2016'
p188
sS'response'
p189
g61
(S's\xf7!\x00\x00<div><table><tr><td style="font-weight:bold;vertical-align:top;">body</td><td style="vertical-align:top;">:</td><td><div>&lt;cStringIO.StringO object at 0x7f23dc4f8fb8&gt;</div></td></tr><tr><td style="font-weight:bold;vertical-align:top;">cookies</td><td style="vertical-align:top;">:</td><td><div><table><tr><td style="font-weight:bold;vertical-align:top;">session_id_addfinv5simple</td><td style="vertical-align:top;">:</td><td><div>82.136.125.213-2c517b56-84bf-4053-8f36-205d83e5bca8<table><tr><td style="font-weight:bold;vertical-align:top;">comment</td><td style="vertical-align:top;">:</td><td><div></div></td></tr><tr><td style="font-weight:bold;vertical-align:top;">domain</td><td style="vertical-align:top;">:</td><td><div></div></td></tr><tr><td style="font-weight:bold;vertical-align:top;">expires</td><td style="vertical-align:top;">:</td><td><div></div></td></tr><tr><td style="font-weight:bold;vertical-align:top;">httponly</td><td style="vertical-align:top;">:</td><td><div></div></td></tr><tr><td style="font-weight:bold;vertical-align:top;">max-age</td><td style="vertical-align:top;">:</td><td><div></div></td></tr><tr><td style="font-weight:bold;vertical-align:top;">path</td><td style="vertical-align:top;">:</td><td><div>/</div></td></tr><tr><td style="font-weight:bold;vertical-align:top;">secure</td><td style="vertical-align:top;">:</td><td><div></div></td></tr><tr><td style="font-weight:bold;vertical-align:top;">version</td><td style="vertical-align:top;">:</td><td><div></div></td></tr></table></div></td></tr></table></div></td></tr><tr><td style="font-weight:bold;vertical-align:top;">delimiters</td><td style="vertical-align:top;">:</td><td><div><table><tr><td><div>{{</div></td></tr><tr><td><div>}}</div></td></tr></table></div></td></tr><tr><td style="font-weight:bold;vertical-align:top;">files</td><td style="vertical-align:top;">:</td><td><div><table></table></div></td></tr><tr><td style="font-weight:bold;vertical-align:top;">flash</td><td style="vertical-align:top;">:</td><td><div></div></td></tr><tr><td style="font-weight:bold;vertical-align:top;">form_label_separator</td><td style="vertical-align:top;">:</td><td><div>: </div></td></tr><tr><td style="font-weight:bold;vertical-align:top;">formstyle</td><td style="vertical-align:top;">:</td><td><div>table3cols</div></td></tr><tr><td style="font-weight:bold;vertical-align:top;">generic_patterns</td><td style="vertical-align:top;">:</td><td><div><table><tr><td><div>*</div></td></tr></table></div></td></tr><tr><td style="font-weight:bold;vertical-align:top;">headers</td><td style="vertical-align:top;">:</td><td><div><table><tr><td style="font-weight:bold;vertical-align:top;">X-Powered-By</td><td style="vertical-align:top;">:</td><td><div>web2py</div></td></tr></table></div></td></tr><tr><td style="font-weight:bold;vertical-align:top;">menu</td><td style="vertical-align:top;">:</td><td><div><table><tr><td><div><table><tr><td><div>Index</div></td></tr><tr><td><div>False</div></td></tr><tr><td><div>/AddfinV5simple/default/index</div></td></tr><tr><td><div><table></table></div></td></tr></table></div></td></tr></table></div></td></tr><tr><td style="font-weight:bold;vertical-align:top;">menu_auth</td><td style="vertical-align:top;">:</td><td><div><table><tr><td><div><table><tr><td><div>Login</div></td></tr><tr><td><div>False</div></td></tr><tr><td><div>/AddfinV5simple/default/user/login</div></td></tr><tr><td><div><table><tr><td><div><table><tr><td><div>Register</div></td></tr><tr><td><div>False</div></td></tr><tr><td><div>/AddfinV5simple/default/user/register</div></td></tr></table></div></td></tr><tr><td><div><table><tr><td><div>Lost Password</div></td></tr><tr><td><div>False</div></td></tr><tr><td><div>/AddfinV5simple/default/user/retrieve_password</div></td></tr></table></div></td></tr></table></div></td></tr></table></div></td></tr></table></div></td></tr><tr><td style="font-weight:bold;vertical-align:top;">menu_edit</td><td style="vertical-align:top;">:</td><td><div><table><tr><td><div><table><tr><td><div>Edit</div></td></tr><tr><td><div>False</div></td></tr><tr><td><div>/admin/default/design/AddfinV5simple</div></td></tr><tr><td><div><table><tr><td><div><table><tr><td><div>Controller</div></td></tr><tr><td><div>False</div></td></tr><tr><td><div>/admin/default/edit/AddfinV5simple/controllers/default.py</div></td></tr></table></div></td></tr><tr><td><div><table><tr><td><div>View</div></td></tr><tr><td><div>False</div></td></tr><tr><td><div>/admin/default/edit/AddfinV5simple/views/default/index.html</div></td></tr></table></div></td></tr><tr><td><div><table><tr><td><div>Layout</div></td></tr><tr><td><div>False</div></td></tr><tr><td><div>/admin/default/edit/AddfinV5simple/views/layout.html</div></td></tr></table></div></td></tr><tr><td><div><table><tr><td><div>Stylesheet</div></td></tr><tr><td><div>False</div></td></tr><tr><td><div>/admin/default/edit/AddfinV5simple/static/base.css</div></td></tr></table></div></td></tr><tr><td><div><table><tr><td><div>DB Model</div></td></tr><tr><td><div>False</div></td></tr><tr><td><div>/admin/default/edit/AddfinV5simple/models/db.py</div></td></tr></table></div></td></tr><tr><td><div><table><tr><td><div>Menu Model</div></td></tr><tr><td><div>False</div></td></tr><tr><td><div>/admin/default/edit/AddfinV5simple/models/menu.py</div></td></tr></table></div></td></tr><tr><td><div><table><tr><td><div>Database</div></td></tr><tr><td><div>False</div></td></tr><tr><td><div>/AddfinV5simple/appadmin/index</div></td></tr></table></div></td></tr></table></div></td></tr></table></div></td></tr></table></div></td></tr><tr><td style="font-weight:bold;vertical-align:top;">meta</td><td style="vertical-align:top;">:</td><td><div><table></table></div></td></tr><tr><td style="font-weight:bold;vertical-align:top;">models_to_run</td><td style="vertical-align:top;">:</td><td><div><table><tr><td><div>^\\w+\\.py$</div></td></tr><tr><td><div>^default/\\w+\\.py$</div></td></tr><tr><td><div>^default/index/\\w+\\.py$</div></td></tr></table></div></td></tr><tr><td style="font-weight:bold;vertical-align:top;">postprocessing</td><td style="vertical-align:top;">:</td><td><div><table></table></div></td></tr><tr><td style="font-weight:bold;vertical-align:top;">session_client</td><td style="vertical-align:top;">:</td><td><div>82.136.125.213</div></td></tr><tr><td style="font-weight:bold;vertical-align:top;">session_cookie_compression_level</td><td style="vertical-align:top;">:</td><td><div>None</div></td></tr><tr><td style="font-weight:bold;vertical-align:top;">session_cookie_expires</td><td style="vertical-align:top;">:</td><td><div>None</div></td></tr><tr><td style="font-weight:bold;vertical-align:top;">session_data_name</td><td style="vertical-align:top;">:</td><td><div>session_data_addfinv5simple</div></td></tr><tr><td style="font-weight:bold;vertical-align:top;">session_file</td><td style="vertical-align:top;">:</td><td><div>None</div></td></tr><tr><td style="font-weight:bold;vertical-align:top;">session_filename</td><td style="vertical-align:top;">:</td><td><div>/home/reprior123/WEBPY/web2pyReal/applications/AddfinV5simple/sessions/82.136.125.213-2c517b56-84bf-4053-8f36-205d83e5bca8</div></td></tr><tr><td style="font-weight:bold;vertical-align:top;">session_hash</td><td style="vertical-align:top;">:</td><td><div>c0762cbf4baf7f9af97c051e7fcb8083</div></td></tr><tr><td style="font-weight:bold;vertical-align:top;">session_id</td><td style="vertical-align:top;">:</td><td><div>82.136.125.213-2c517b56-84bf-4053-8f36-205d83e5bca8</div></td></tr><tr><td style="font-weight:bold;vertical-align:top;">session_id_name</td><td style="vertical-align:top;">:</td><td><div>session_id_addfinv5simple</div></td></tr><tr><td style="font-weight:bold;vertical-align:top;">session_masterapp</td><td style="vertical-align:top;">:</td><td><div>AddfinV5simple</div></td></tr><tr><td style="font-weight:bold;vertical-align:top;">session_new</td><td style="vertical-align:top;">:</td><td><div>True</div></td></tr><tr><td style="font-weight:bold;vertical-align:top;">session_storage_type</td><td style="vertical-align:top;">:</td><td><div>file</div></td></tr><tr><td style="font-weight:bold;vertical-align:top;">status</td><td style="vertical-align:top;">:</td><td><div>200</div></td></tr><tr><td style="font-weight:bold;vertical-align:top;">subtitle</td><td style="vertical-align:top;">:</td><td><div>customize me!</div></td></tr><tr><td style="font-weight:bold;vertical-align:top;">title</td><td style="vertical-align:top;">:</td><td><div>AddfinV5simple</div></td></tr><tr><td style="font-weight:bold;vertical-align:top;">view</td><td style="vertical-align:top;">:</td><td><div>default/index.html</div></td></tr></table></div>'
tRp190
sS'locals'
p191
(dp192
S'dbpath'
p193
S"'/home/reprior123/WEBPY/web2pyReal/applications/AddfinV5simple/databases'"
p194
sS'migrate'
p195
S'True'
p196
sS'query'
p197
S"'CREATE TABLE crm_compliance(\\n    id INTEGER PRIM...\\n    name2_c CHAR(255),\\n    memberships_c DATE\\n);'"
p198
sS'table'
p199
S'<Table crm_compliance (id, nxcfile_pepdoc, pepcheckstatus, taxt_status, name2_c, memberships_c)>'
p200
sS'postcreation_fields'
p201
S'[]'
p202
sS'field_type'
p203
S"'date'"
p204
sS'self'
p205
S'<pydal.adapters.sqlite.SQLiteAdapter object>'
p206
sS'tablename'
p207
S"'crm_compliance'"
p208
sS'field'
p209
S'<pydal.objects.Field object>'
p210
sS'ftype'
p211
S"'DATE'"
p212
sS'polymodel'
p213
S'None'
p214
sS'tfile'
p215
S'<pydal.contrib.portalocker.LockedFile object>'
p216
sS'db'
p217
S'<DAL uri="sqlite://storage.sqlite">'
p218
sS'fake_migrate'
p219
g102
sS'sql_fields'
p220
S"{'id': {'length': 512, 'notnull': False, 'sortable': 1, 'sql': 'INTEGER PRIMARY KEY AUTOINCREMENT', 'type': 'id', 'unique': False}, 'memberships_c': {'length': 512, 'notnull': False, 'sortable': 6, 'sql': 'DATE', 'type': 'date', 'unique': False}, 'name2_c': {'length': 255, 'notnull': False, 'sortable': 5, 'sql': 'CHAR(255)', 'type': 'string', 'unique': False}, 'nxcfile_pepdoc': {'length': 255, 'notnull': False, 'sortable': 2, 'sql': 'CHAR(255)', 'type': 'string', 'unique': False}, 'pepcheckstatus': {'length': 255, 'notnull': False, 'sortable': 3, 'sql': 'CHAR(255)', 'type': 'string', 'unique': False}, 'taxt_status': {'length': 255, 'notnull': False, 'sortable': 4, 'sql': 'CHAR(255)', 'type': 'string', 'unique': False}}"
p221
sS'field_name'
p222
S"'memberships_c'"
p223
sS'types'
p224
S"{'big-id': 'INTEGER PRIMARY KEY AUTOINCREMENT', 'big-reference': 'INTEGER REFERENCES %(foreign_key)s ON DELETE %(on_delete_action)s %(null)s %(unique)s', 'bigint': 'INTEGER', 'blob': 'BLOB', 'boolean': 'CHAR(1)', 'date': 'DATE', 'datetime': 'TIMESTAMP', 'decimal': 'DOUBLE', 'double': 'DOUBLE', 'float': 'DOUBLE', ...}"
p225
sS'sortable'
p226
S'6'
sS'sql_fields_aux'
p227
S"{'id': {'sql': 'INTEGER PRIMARY KEY AUTOINCREMENT'}, 'memberships_c': {'sql': 'DATE'}, 'name2_c': {'sql': 'CHAR(255)'}, 'nxcfile_pepdoc': {'sql': 'CHAR(255)'}, 'pepcheckstatus': {'sql': 'CHAR(255)'}, 'taxt_status': {'sql': 'CHAR(255)'}}"
p228
sS'TFK'
p229
g21
sS'fields'
p230
S"'id INTEGER PRIMARY KEY AUTOINCREMENT,\\n    nxcfil...5),\\n    name2_c CHAR(255),\\n    memberships_c DATE'"
p231
sS'other'
p232
S"';'"
p233
sssS'traceback'
p234
S'Traceback (most recent call last):\n  File "/home/reprior123/WEBPY/web2pyReal/gluon/restricted.py", line 227, in restricted\n    exec ccode in environment\n  File "/home/reprior123/WEBPY/web2pyReal/applications/AddfinV5simple/models/rp_newest.py", line 74, in <module>\n    Field(\'memberships_c\', \'date\',default=None, required=False))\n  File "/home/reprior123/WEBPY/web2pyReal/gluon/packages/dal/pydal/base.py", line 834, in define_table\n    table = self.lazy_define_table(tablename,*fields,**args)\n  File "/home/reprior123/WEBPY/web2pyReal/gluon/packages/dal/pydal/base.py", line 873, in lazy_define_table\n    polymodel=polymodel)\n  File "/home/reprior123/WEBPY/web2pyReal/gluon/packages/dal/pydal/adapters/base.py", line 500, in create_table\n    sql_fields_old = pickle.load(tfile)\nUnpicklingError: pickle data was truncated\n'
p235
s.