(dp1
S'output'
p2
S"<type 'exceptions.AttributeError'> "
p3
sS'layer'
p4
S'C:\\Users\\bob\\Google Drive\\EXE_RP\\web2py\\applications\\crmraw\\controllers/default.py'
p5
sS'code'
p6
S'# coding: utf8\n\n#########################################################################\n## This is a samples controller\n## - index is the default action of any application\n## - user is required for authentication and authorization\n## - download is for downloading files uploaded in the db (does streaming)\n## - call exposes all registered services (none by default)\n#########################################################################\n\nerror_page=URL(\'error\')\n\nif not session.recent_companies: session.recent_companies=[]\nif not session.recent_persons: session.recent_persons=[]\nif not session.recent_tasks: session.recent_tasks=[]\n\n\nresponse.menu=[\n  [\'Companies\',False,url(\'list_companies\')],\n  [\'Contacts\',False,url(\'list_persons\')],\n  [\'Tasks\',False,url(\'list_tasks\')],\n]\n\ndef add(mylist,item):\n    if not item.id in [x[0] for x in mylist]:\n        return mylist[:9]+[(item.id,item.name)]\n    else:\n        return mylist\n\ndef index():\n    return dict()\n\n@auth.requires_login()\ndef list_companies():\n    form=crud.create(db.company)\n    companies=db(db.company.id>0).select(orderby=db.company.name)\n    return dict(companies=companies,form=form)\n\n@auth.requires_login()\ndef view_company():\n    company_id=request.args(0)\n    company=db.company[company_id] or redirect(error_page)\n    session.recent_companies = add(session.recent_companies,company)\n    return dict(company=company)\n\n@auth.requires_login()\ndef edit_company():\n    company_id=request.args(0)\n    company=db.company[company_id]  or redirect(error_page)\n    session.recent_companies = add(session.recent_companies,company)\n    form=crud.update(db.company,company,next=url(\'list_companies\'))\n    return dict(form=form)\n\n@auth.requires_login()\ndef list_persons():\n    company_id=request.args(0)\n    company=db.company[company_id]\n    if company:\n        session.recent_companies = add(session.recent_companies,company)\n        db.person.company.default=company_id\n        db.person.company.writable=False\n        db.person.company.readable=False\n        form=crud.create(db.person)\n        persons=db(db.person.company==company.id)\\\n            .select(orderby=db.person.name)\n    else:\n        form=crud.create(db.person)\n        persons=db(db.person.id>0).select(orderby=db.person.name)\n    return dict(company=company,persons=persons,form=form)\n\n@auth.requires_login()\ndef view_person():\n    person_id=request.args(0)\n    person=db.person[person_id] or redirect(error_page)\n    session.recent_persons = add(session.recent_persons,person)\n    return dict(person=person)\n\n@auth.requires_login()\ndef list_docs():\n    person_id=request.args(0)\n    person=db.person[person_id] or redirect(error_page)\n    session.recent_persons = add(session.recent_persons,person)\n    db.document.person.default=person.id\n    db.document.person.writable=False\n    db.document.person.readable=False\n    form=crud.create(db.document)\n    docs=db(db.document.person==person.id).select(orderby=db.document.name)\n    return dict(person=person,docs=docs,form=form)\n\n@auth.requires_login()\ndef list_logs():\n    person_id=request.args(0)\n    person=db.person[person_id] or redirect(error_page)\n    session.recent_persons = add(session.recent_persons,person)\n    db.log.person.default=person.id\n    db.log.person.writable=False\n    db.log.person.readable=False\n    form=crud.create(db.log)\n    logs=db(db.log.person==person.id).select(orderby=~db.log.created_on)\n    return dict(person=person,logs=logs,form=form)\n\n@auth.requires_login()\ndef edit_person():\n    person_id=request.args(0)\n    person=db.person[person_id] or redirect(error_page)\n    session.recent_persons = add(session.recent_persons,person)\n    db.person.company.writable=False\n    db.person.company.readable=False\n    form=crud.update(db.person,person,next=url(\'view_person\',person_id))\n    return dict(form=form)\n\n\n@auth.requires_login()\ndef edit_task():\n    task_id=request.args(0)\n    task=db.task[task_id] or redirect(error_page)\n    person=db.person[task.person]\n    db.task.person.writable=db.task.person.readable=False\n    session.recent_tasks = add(session.recent_tasks,task)\n    form=crud.update(db.task,task,next=\'view_task/[id]\')\n    return dict(form=form, person=person)\n\n@auth.requires_login()\ndef view_task():\n    task_id=request.args(0)\n    task=db.task[task_id] or redirect(error_page)\n    person=db.person[task.person]\n    db.task.person.writable=db.task.person.readable=False\n    form=crud.read(db.task,task)\n    session.recent_tasks = add(session.recent_tasks,task)\n    return dict(form=form, person=person, task=task)\n\n@auth.requires_login()\ndef list_tasks():\n    person_id=request.args(0)\n    person=db.person[person_id]\n    if person_id:\n       session.recent_tasks = add(session.recent_tasks,task)\n       tasks=db(db.task.person==person_id)\\\n               (db.task.created_by==auth.user.id)\\\n               (db.task.start_time>=request.now).select()\n    else:\n       tasks=db(db.task.created_by==auth.user.id)\\\n               (db.task.start_time<=request.now).select()\n    db.task.person.default=person_id\n    db.task.person.writable=db.task.person.readable=False\n    form=crud.create(db.task,next=\'view_task/[id]\')\n    return dict(tasks=tasks,person=person,form=form)\n\n@auth.requires_login()\ndef calendar():\n    person_id=request.args(0)\n    person=db.person[person_id]\n    if person_id:\n       tasks=db(db.task.person==person_id)\\\n               (db.task.created_by==auth.user.id)\\\n               (db.task.start_time>=request.now).select()\n    else:\n       tasks=db(db.task.created_by==auth.user.id)\\\n               (db.task.start_time>=request.now).select()\n    return dict(tasks=tasks,person=person)\n\n@auth.requires(auth.user and auth.user.email==\'mdipierro@cs.depaul.edu\')\ndef reset():\n    for table in db.tables:\n        if table==\'auth_user\':\n            db(db[table].email!=\'mdipierro@cs.depaul.edu\').delete()\n        else:\n            db(db[table].id>0).delete()\n    session.flash=\'done!\'\n    redirect(\'index\')\n\ndef error():\n    return dict(message="something is wrong")\n\ndef user():\n    """\n    exposes:\n    http://..../[app]/default/user/login\n    http://..../[app]/default/user/logout\n    http://..../[app]/default/user/register\n    http://..../[app]/default/user/profile\n    http://..../[app]/default/user/retrieve_password\n    http://..../[app]/default/user/change_password\n    use @auth.requires_login()\n        @auth.requires_membership(\'group name\')\n        @auth.requires_permission(\'read\',\'table name\',record_id)\n    to decorate functions that need access control\n    """\n    return dict(form=auth())\n\n\ndef download():\n    """\n    allows downloading of uploaded files\n    http://..../[app]/default/download/[filename]\n    """\n    return response.download(request,db)\n\n\ndef call():\n    """\n    exposes services. for example:\n    http://..../[app]/default/call/jsonrpc\n    decorate with @services.jsonrpc the functions to expose\n    supports xml, json, xmlrpc, jsonrpc, amfrpc, rss, csv\n    """\n    session.forget()\n    return service()\n###########################\ndef hello5():\n    return HTML(BODY(H1(T(\'Hello World\'),_style="color: red;"))).xml() # .xml to serialize\ndef hello6():\n    response.flash=T("Hello World in a flash!")\n    return dict(message=T("Hello World"))\ndef hello4():\n    response.view=\'simple_examples/hello3.html\'\n    return dict(message=T("Hello World"))\ndef hello3():\n    return dict()\n##    return dict(message=T("Hello World"))\ndef statusex():\n    return dict(toobar=response.toolbar())\n\ndef redirectme():\n    redirect(URL(\'hello3\'))\n                   \ndef raisehttp():\n    raise HTTP(400,"internal error")\n             \ndef ajaxwiki():\n    form=FORM(TEXTAREA(_id=\'text\',_name=\'text\'),\n              INPUT(_type=\'button\',_value=\'markmin click to save\',\n              _onclick="ajax(\'ajaxwiki_onclick\',[\'text\'],\'html\')"))\n    return dict(form=form,html=DIV(_id=\'html\'))\n\ndef ajaxwiki_onclick():\n    return MARKMIN(request.vars.text).xml()           \n\nresponse._vars=response._caller(view_task)\n'
p7
sS'snapshot'
p8
(dp9
S'exception'
p10
(dp11
S'__hash__'
p12
S"<method-wrapper '__hash__' of exceptions.AttributeError object>"
p13
sS'__setattr__'
p14
S"<method-wrapper '__setattr__' of exceptions.AttributeError object>"
p15
sS'__reduce_ex__'
p16
S'<built-in method __reduce_ex__ of exceptions.AttributeError object>'
p17
sS'__getslice__'
p18
S"<method-wrapper '__getslice__' of exceptions.AttributeError object>"
p19
sS'__getitem__'
p20
S"<method-wrapper '__getitem__' of exceptions.AttributeError object>"
p21
sS'__setstate__'
p22
S'<built-in method __setstate__ of exceptions.AttributeError object>'
p23
sS'__reduce__'
p24
S'<built-in method __reduce__ of exceptions.AttributeError object>'
p25
sS'__str__'
p26
S"<method-wrapper '__str__' of exceptions.AttributeError object>"
p27
sS'__format__'
p28
S'<built-in method __format__ of exceptions.AttributeError object>'
p29
sS'__getattribute__'
p30
S"<method-wrapper '__getattribute__' of exceptions.AttributeError object>"
p31
sS'__class__'
p32
S"<type 'exceptions.AttributeError'>"
p33
sS'__unicode__'
p34
S'<built-in method __unicode__ of exceptions.AttributeError object>'
p35
sS'__delattr__'
p36
S"<method-wrapper '__delattr__' of exceptions.AttributeError object>"
p37
sS'__subclasshook__'
p38
S'<built-in method __subclasshook__ of type object>'
p39
sS'__repr__'
p40
S"<method-wrapper '__repr__' of exceptions.AttributeError object>"
p41
sS'args'
p42
S'()'
p43
sS'__dict__'
p44
S'{}'
p45
sS'__sizeof__'
p46
S'<built-in method __sizeof__ of exceptions.AttributeError object>'
p47
sS'__doc__'
p48
S"'Attribute not found.'"
p49
sS'__init__'
p50
S"<method-wrapper '__init__' of exceptions.AttributeError object>"
p51
sS'__new__'
p52
S'<built-in method __new__ of type object>'
p53
ssS'evalue'
p54
S''
sS'request'
p55
cgluon.html
XML_unpickle
p56
(S's\xbfm\x00\x00<div><table><tr><td style="font-weight:bold;vertical-align:top;">ajax</td><td style="vertical-align:top;">:</td><td><div>False</div></td></tr><tr><td style="font-weight:bold;vertical-align:top;">application</td><td style="vertical-align:top;">:</td><td><div>crmraw</div></td></tr><tr><td style="font-weight:bold;vertical-align:top;">args</td><td style="vertical-align:top;">:</td><td><div><table><tr><td><div>1</div></td></tr></table></div></td></tr><tr><td style="font-weight:bold;vertical-align:top;">cid</td><td style="vertical-align:top;">:</td><td><div>None</div></td></tr><tr><td style="font-weight:bold;vertical-align:top;">client</td><td style="vertical-align:top;">:</td><td><div>127.0.0.1</div></td></tr><tr><td style="font-weight:bold;vertical-align:top;">controller</td><td style="vertical-align:top;">:</td><td><div>default</div></td></tr><tr><td style="font-weight:bold;vertical-align:top;">cookies</td><td style="vertical-align:top;">:</td><td><div><table><tr><td style="font-weight:bold;vertical-align:top;">session_id_admin</td><td style="vertical-align:top;">:</td><td><div>127.0.0.1-a42f25c5-35c6-4ac3-9061-db09da9fb9c2<table><tr><td style="font-weight:bold;vertical-align:top;">comment</td><td style="vertical-align:top;">:</td><td><div></div></td></tr><tr><td style="font-weight:bold;vertical-align:top;">domain</td><td style="vertical-align:top;">:</td><td><div></div></td></tr><tr><td style="font-weight:bold;vertical-align:top;">expires</td><td style="vertical-align:top;">:</td><td><div></div></td></tr><tr><td style="font-weight:bold;vertical-align:top;">httponly</td><td style="vertical-align:top;">:</td><td><div></div></td></tr><tr><td style="font-weight:bold;vertical-align:top;">max-age</td><td style="vertical-align:top;">:</td><td><div></div></td></tr><tr><td style="font-weight:bold;vertical-align:top;">path</td><td style="vertical-align:top;">:</td><td><div></div></td></tr><tr><td style="font-weight:bold;vertical-align:top;">secure</td><td style="vertical-align:top;">:</td><td><div></div></td></tr><tr><td style="font-weight:bold;vertical-align:top;">version</td><td style="vertical-align:top;">:</td><td><div></div></td></tr></table></div></td></tr><tr><td style="font-weight:bold;vertical-align:top;">session_id_crmclean</td><td style="vertical-align:top;">:</td><td><div>127.0.0.1-7827d1ca-bbdc-48d9-88d1-348736cf5d48<table><tr><td style="font-weight:bold;vertical-align:top;">comment</td><td style="vertical-align:top;">:</td><td><div></div></td></tr><tr><td style="font-weight:bold;vertical-align:top;">domain</td><td style="vertical-align:top;">:</td><td><div></div></td></tr><tr><td style="font-weight:bold;vertical-align:top;">expires</td><td style="vertical-align:top;">:</td><td><div></div></td></tr><tr><td style="font-weight:bold;vertical-align:top;">httponly</td><td style="vertical-align:top;">:</td><td><div></div></td></tr><tr><td style="font-weight:bold;vertical-align:top;">max-age</td><td style="vertical-align:top;">:</td><td><div></div></td></tr><tr><td style="font-weight:bold;vertical-align:top;">path</td><td style="vertical-align:top;">:</td><td><div></div></td></tr><tr><td style="font-weight:bold;vertical-align:top;">secure</td><td style="vertical-align:top;">:</td><td><div></div></td></tr><tr><td style="font-weight:bold;vertical-align:top;">version</td><td style="vertical-align:top;">:</td><td><div></div></td></tr></table></div></td></tr><tr><td style="font-weight:bold;vertical-align:top;">session_id_crmnew</td><td style="vertical-align:top;">:</td><td><div>127.0.0.1-4d80d404-9d84-4a87-8ce3-a715c6e8a265<table><tr><td style="font-weight:bold;vertical-align:top;">comment</td><td style="vertical-align:top;">:</td><td><div></div></td></tr><tr><td style="font-weight:bold;vertical-align:top;">domain</td><td style="vertical-align:top;">:</td><td><div></div></td></tr><tr><td style="font-weight:bold;vertical-align:top;">expires</td><td style="vertical-align:top;">:</td><td><div></div></td></tr><tr><td style="font-weight:bold;vertical-align:top;">httponly</td><td style="vertical-align:top;">:</td><td><div></div></td></tr><tr><td style="font-weight:bold;vertical-align:top;">max-age</td><td style="vertical-align:top;">:</td><td><div></div></td></tr><tr><td style="font-weight:bold;vertical-align:top;">path</td><td style="vertical-align:top;">:</td><td><div></div></td></tr><tr><td style="font-weight:bold;vertical-align:top;">secure</td><td style="vertical-align:top;">:</td><td><div></div></td></tr><tr><td style="font-weight:bold;vertical-align:top;">version</td><td style="vertical-align:top;">:</td><td><div></div></td></tr></table></div></td></tr><tr><td style="font-weight:bold;vertical-align:top;">session_id_crmraw</td><td style="vertical-align:top;">:</td><td><div>127.0.0.1-c63ee9db-bf95-4c5c-9ba4-fb84ac052322<table><tr><td style="font-weight:bold;vertical-align:top;">comment</td><td style="vertical-align:top;">:</td><td><div></div></td></tr><tr><td style="font-weight:bold;vertical-align:top;">domain</td><td style="vertical-align:top;">:</td><td><div></div></td></tr><tr><td style="font-weight:bold;vertical-align:top;">expires</td><td style="vertical-align:top;">:</td><td><div></div></td></tr><tr><td style="font-weight:bold;vertical-align:top;">httponly</td><td style="vertical-align:top;">:</td><td><div></div></td></tr><tr><td style="font-weight:bold;vertical-align:top;">max-age</td><td style="vertical-align:top;">:</td><td><div></div></td></tr><tr><td style="font-weight:bold;vertical-align:top;">path</td><td style="vertical-align:top;">:</td><td><div></div></td></tr><tr><td style="font-weight:bold;vertical-align:top;">secure</td><td style="vertical-align:top;">:</td><td><div></div></td></tr><tr><td style="font-weight:bold;vertical-align:top;">version</td><td style="vertical-align:top;">:</td><td><div></div></td></tr></table></div></td></tr><tr><td style="font-weight:bold;vertical-align:top;">session_id_excel</td><td style="vertical-align:top;">:</td><td><div>127.0.0.1-0e7bb41c-7f6d-4f11-b203-ae160e240859<table><tr><td style="font-weight:bold;vertical-align:top;">comment</td><td style="vertical-align:top;">:</td><td><div></div></td></tr><tr><td style="font-weight:bold;vertical-align:top;">domain</td><td style="vertical-align:top;">:</td><td><div></div></td></tr><tr><td style="font-weight:bold;vertical-align:top;">expires</td><td style="vertical-align:top;">:</td><td><div></div></td></tr><tr><td style="font-weight:bold;vertical-align:top;">httponly</td><td style="vertical-align:top;">:</td><td><div></div></td></tr><tr><td style="font-weight:bold;vertical-align:top;">max-age</td><td style="vertical-align:top;">:</td><td><div></div></td></tr><tr><td style="font-weight:bold;vertical-align:top;">path</td><td style="vertical-align:top;">:</td><td><div></div></td></tr><tr><td style="font-weight:bold;vertical-align:top;">secure</td><td style="vertical-align:top;">:</td><td><div></div></td></tr><tr><td style="font-weight:bold;vertical-align:top;">version</td><td style="vertical-align:top;">:</td><td><div></div></td></tr></table></div></td></tr><tr><td style="font-weight:bold;vertical-align:top;">session_id_welcome</td><td style="vertical-align:top;">:</td><td><div>127.0.0.1-f773cdc9-b742-4845-a7ad-8748d55f366f<table><tr><td style="font-weight:bold;vertical-align:top;">comment</td><td style="vertical-align:top;">:</td><td><div></div></td></tr><tr><td style="font-weight:bold;vertical-align:top;">domain</td><td style="vertical-align:top;">:</td><td><div></div></td></tr><tr><td style="font-weight:bold;vertical-align:top;">expires</td><td style="vertical-align:top;">:</td><td><div></div></td></tr><tr><td style="font-weight:bold;vertical-align:top;">httponly</td><td style="vertical-align:top;">:</td><td><div></div></td></tr><tr><td style="font-weight:bold;vertical-align:top;">max-age</td><td style="vertical-align:top;">:</td><td><div></div></td></tr><tr><td style="font-weight:bold;vertical-align:top;">path</td><td style="vertical-align:top;">:</td><td><div></div></td></tr><tr><td style="font-weight:bold;vertical-align:top;">secure</td><td style="vertical-align:top;">:</td><td><div></div></td></tr><tr><td style="font-weight:bold;vertical-align:top;">version</td><td style="vertical-align:top;">:</td><td><div></div></td></tr></table></div></td></tr></table></div></td></tr><tr><td style="font-weight:bold;vertical-align:top;">env</td><td style="vertical-align:top;">:</td><td><div><table><tr><td style="font-weight:bold;vertical-align:top;">HTTP_ACCEPT</td><td style="vertical-align:top;">:</td><td><div>text/html,application/xhtml+xml,application/xml;q=0.9,image/webp,*/*;q=0.8</div></td></tr><tr><td style="font-weight:bold;vertical-align:top;">HTTP_ACCEPT_ENCODING</td><td style="vertical-align:top;">:</td><td><div>gzip, deflate, sdch</div></td></tr><tr><td style="font-weight:bold;vertical-align:top;">HTTP_ACCEPT_LANGUAGE</td><td style="vertical-align:top;">:</td><td><div>en-US,en;q=0.8,de-DE;q=0.6,de;q=0.4</div></td></tr><tr><td style="font-weight:bold;vertical-align:top;">HTTP_CONNECTION</td><td style="vertical-align:top;">:</td><td><div>keep-alive</div></td></tr><tr><td style="font-weight:bold;vertical-align:top;">HTTP_COOKIE</td><td style="vertical-align:top;">:</td><td><div>session_id_excel=127.0.0.1-0e7bb41c-7f6d-4f11-b203-ae160e240859; session_id_crmclean=127.0.0.1-7827d1ca-bbdc-48d9-88d1-348736cf5d48; session_id_crmnew=127.0.0.1-4d80d404-9d84-4a87-8ce3-a715c6e8a265; session_id_welcome=127.0.0.1-f773cdc9-b742-4845-a7ad-8748d55f366f; session_id_admin=127.0.0.1-a42f25c5-35c6-4ac3-9061-db09da9fb9c2; session_id_crmraw=127.0.0.1-c63ee9db-bf95-4c5c-9ba4-fb84ac052322</div></td></tr><tr><td style="font-weight:bold;vertical-align:top;">HTTP_HOST</td><td style="vertical-align:top;">:</td><td><div>127.0.0.1:8000</div></td></tr><tr><td style="font-weight:bold;vertical-align:top;">HTTP_REFERER</td><td style="vertical-align:top;">:</td><td><div>http://127.0.0.1:8000/crmraw/default/list_tasks</div></td></tr><tr><td style="font-weight:bold;vertical-align:top;">HTTP_UPGRADE_INSECURE_REQUESTS</td><td style="vertical-align:top;">:</td><td><div>1</div></td></tr><tr><td style="font-weight:bold;vertical-align:top;">HTTP_USER_AGENT</td><td style="vertical-align:top;">:</td><td><div>Mozilla/5.0 (Windows NT 6.1; WOW64) AppleWebKit/537.36 (KHTML, like Gecko) Chrome/49.0.2623.112 Safari/537.36</div></td></tr><tr><td style="font-weight:bold;vertical-align:top;">PATH_INFO</td><td style="vertical-align:top;">:</td><td><div>/crmraw/default/view_task/1</div></td></tr><tr><td style="font-weight:bold;vertical-align:top;">QUERY_STRING</td><td style="vertical-align:top;">:</td><td><div></div></td></tr><tr><td style="font-weight:bold;vertical-align:top;">REMOTE_ADDR</td><td style="vertical-align:top;">:</td><td><div>127.0.0.1</div></td></tr><tr><td style="font-weight:bold;vertical-align:top;">REMOTE_PORT</td><td style="vertical-align:top;">:</td><td><div>60526</div></td></tr><tr><td style="font-weight:bold;vertical-align:top;">REQUEST_METHOD</td><td style="vertical-align:top;">:</td><td><div>GET</div></td></tr><tr><td style="font-weight:bold;vertical-align:top;">SCRIPT_NAME</td><td style="vertical-align:top;">:</td><td><div></div></td></tr><tr><td style="font-weight:bold;vertical-align:top;">SERVER_NAME</td><td style="vertical-align:top;">:</td><td><div>RPBASE1</div></td></tr><tr><td style="font-weight:bold;vertical-align:top;">SERVER_PORT</td><td style="vertical-align:top;">:</td><td><div>8000</div></td></tr><tr><td style="font-weight:bold;vertical-align:top;">SERVER_PROTOCOL</td><td style="vertical-align:top;">:</td><td><div>HTTP/1.1</div></td></tr><tr><td style="font-weight:bold;vertical-align:top;">SERVER_SOFTWARE</td><td style="vertical-align:top;">:</td><td><div>Rocket 1.2.6</div></td></tr><tr><td style="font-weight:bold;vertical-align:top;">app_folders</td><td style="vertical-align:top;">:</td><td><div>set([&#x27;C:\\\\Users\\\\bob\\\\Google Drive\\\\EXE_RP\\\\web2py\\\\applications\\\\crmraw\\\\&#x27;, &#x27;C:\\\\Users\\\\bob\\\\Google Drive\\\\EXE_RP\\\\web2py\\\\applications\\\\admin\\\\&#x27;, &#x27;C:\\\\Users\\\\bob\\\\Google Drive\\\\EXE_RP\\\\web2py\\\\applications\\\\welcome\\\\&#x27;])</div></td></tr><tr><td style="font-weight:bold;vertical-align:top;">applications_parent</td><td style="vertical-align:top;">:</td><td><div>C:\\Users\\bob\\Google Drive\\EXE_RP\\web2py</div></td></tr><tr><td style="font-weight:bold;vertical-align:top;">cmd_args</td><td style="vertical-align:top;">:</td><td><div><table></table></div></td></tr><tr><td style="font-weight:bold;vertical-align:top;">cmd_options</td><td style="vertical-align:top;">:</td><td><div>&lt;Values at 0x32527b0: {&#x27;verbose&#x27;: False, &#x27;ip&#x27;: &#x27;127.0.0.1&#x27;, &#x27;debuglevel&#x27;: 30, &#x27;with_scheduler&#x27;: False, &#x27;ips&#x27;: [], &#x27;shutdown_timeout&#x27;: 5, &#x27;taskbar&#x27;: False, &#x27;with_coverage&#x27;: False, &#x27;scheduler_groups&#x27;: None, &#x27;port&#x27;: 8000, &#x27;maxthreads&#x27;: None, &#x27;softcron&#x27;: False, &#x27;server_name&#x27;: &#x27;RPBASE1&#x27;, &#x27;bpython&#x27;: False, &#x27;nogui&#x27;: False, &#x27;pid_filename&#x27;: &#x27;httpserver.pid&#x27;, &#x27;print_errors&#x27;: False, &#x27;extcron&#x27;: False, &#x27;runcron&#x27;: False, &#x27;run_system_tests&#x27;: False, &#x27;test&#x27;: None, &#x27;folder&#x27;: &#x27;C:\\\\Users\\\\bob\\\\Google Drive\\\\EXE_RP\\\\web2py&#x27;, &#x27;config&#x27;: &#x27;&#x27;, &#x27;minthreads&#x27;: None, &#x27;shell&#x27;: None, &#x27;run&#x27;: &#x27;&#x27;, &#x27;log_filename&#x27;: &#x27;httpserver.log&#x27;, &#x27;profiler_dir&#x27;: None, &#x27;args&#x27;: [&#x27;&#x27;], &#x27;socket_timeout&#x27;: 5, &#x27;ssl_ca_certificate&#x27;: None, &#x27;scheduler&#x27;: None, &#x27;interfaces&#x27;: None, &#x27;ssl_private_key&#x27;: &#x27;&#x27;, &#x27;gae&#x27;: None, &#x27;password&#x27;: &#x27;&lt;ask&gt;&#x27;, &#x27;request_queue_size&#x27;: 5, &#x27;ssl_certificate&#x27;: &#x27;&#x27;, &#x27;cronjob&#x27;: False, &#x27;numthreads&#x27;: None, &#x27;quiet&#x27;: False, &#x27;import_models&#x27;: False, &#x27;timeout&#x27;: 10, &#x27;plain&#x27;: False, &#x27;nobanner&#x27;: False}&gt;</div></td></tr><tr><td style="font-weight:bold;vertical-align:top;">db_sessions</td><td style="vertical-align:top;">:</td><td><div>set([])</div></td></tr><tr><td style="font-weight:bold;vertical-align:top;">debugging</td><td style="vertical-align:top;">:</td><td><div>False</div></td></tr><tr><td style="font-weight:bold;vertical-align:top;">gluon_parent</td><td style="vertical-align:top;">:</td><td><div>C:\\Users\\bob\\Google Drive\\EXE_RP\\web2py</div></td></tr><tr><td style="font-weight:bold;vertical-align:top;">http_accept</td><td style="vertical-align:top;">:</td><td><div>text/html,application/xhtml+xml,application/xml;q=0.9,image/webp,*/*;q=0.8</div></td></tr><tr><td style="font-weight:bold;vertical-align:top;">http_accept_encoding</td><td style="vertical-align:top;">:</td><td><div>gzip, deflate, sdch</div></td></tr><tr><td style="font-weight:bold;vertical-align:top;">http_accept_language</td><td style="vertical-align:top;">:</td><td><div>en-US,en;q=0.8,de-DE;q=0.6,de;q=0.4</div></td></tr><tr><td style="font-weight:bold;vertical-align:top;">http_connection</td><td style="vertical-align:top;">:</td><td><div>keep-alive</div></td></tr><tr><td style="font-weight:bold;vertical-align:top;">http_cookie</td><td style="vertical-align:top;">:</td><td><div>session_id_excel=127.0.0.1-0e7bb41c-7f6d-4f11-b203-ae160e240859; session_id_crmclean=127.0.0.1-7827d1ca-bbdc-48d9-88d1-348736cf5d48; session_id_crmnew=127.0.0.1-4d80d404-9d84-4a87-8ce3-a715c6e8a265; session_id_welcome=127.0.0.1-f773cdc9-b742-4845-a7ad-8748d55f366f; session_id_admin=127.0.0.1-a42f25c5-35c6-4ac3-9061-db09da9fb9c2; session_id_crmraw=127.0.0.1-c63ee9db-bf95-4c5c-9ba4-fb84ac052322</div></td></tr><tr><td style="font-weight:bold;vertical-align:top;">http_host</td><td style="vertical-align:top;">:</td><td><div>127.0.0.1:8000</div></td></tr><tr><td style="font-weight:bold;vertical-align:top;">http_referer</td><td style="vertical-align:top;">:</td><td><div>http://127.0.0.1:8000/crmraw/default/list_tasks</div></td></tr><tr><td style="font-weight:bold;vertical-align:top;">http_upgrade_insecure_requests</td><td style="vertical-align:top;">:</td><td><div>1</div></td></tr><tr><td style="font-weight:bold;vertical-align:top;">http_user_agent</td><td style="vertical-align:top;">:</td><td><div>Mozilla/5.0 (Windows NT 6.1; WOW64) AppleWebKit/537.36 (KHTML, like Gecko) Chrome/49.0.2623.112 Safari/537.36</div></td></tr><tr><td style="font-weight:bold;vertical-align:top;">is_jython</td><td style="vertical-align:top;">:</td><td><div>False</div></td></tr><tr><td style="font-weight:bold;vertical-align:top;">is_pypy</td><td style="vertical-align:top;">:</td><td><div>False</div></td></tr><tr><td style="font-weight:bold;vertical-align:top;">is_source</td><td style="vertical-align:top;">:</td><td><div>False</div></td></tr><tr><td style="font-weight:bold;vertical-align:top;">local_hosts</td><td style="vertical-align:top;">:</td><td><div><table><tr><td><div>::ffff:127.0.0.1</div></td></tr><tr><td><div>::1</div></td></tr><tr><td><div>192.168.1.56</div></td></tr><tr><td><div>fe80::48d0:efaa:de27:62ec%10</div></td></tr><tr><td><div>RPBASE1</div></td></tr><tr><td><div>RPBASE1.office.actant.com</div></td></tr><tr><td><div>127.0.0.1</div></td></tr></table></div></td></tr><tr><td style="font-weight:bold;vertical-align:top;">path_info</td><td style="vertical-align:top;">:</td><td><div>/crmraw/default/view_task/1</div></td></tr><tr><td style="font-weight:bold;vertical-align:top;">query_string</td><td style="vertical-align:top;">:</td><td><div></div></td></tr><tr><td style="font-weight:bold;vertical-align:top;">remote_addr</td><td style="vertical-align:top;">:</td><td><div>127.0.0.1</div></td></tr><tr><td style="font-weight:bold;vertical-align:top;">remote_port</td><td style="vertical-align:top;">:</td><td><div>60526</div></td></tr><tr><td style="font-weight:bold;vertical-align:top;">request_method</td><td style="vertical-align:top;">:</td><td><div>GET</div></td></tr><tr><td style="font-weight:bold;vertical-align:top;">request_uri</td><td style="vertical-align:top;">:</td><td><div>/crmraw/default/view_task/1</div></td></tr><tr><td style="font-weight:bold;vertical-align:top;">script_name</td><td style="vertical-align:top;">:</td><td><div></div></td></tr><tr><td style="font-weight:bold;vertical-align:top;">server_name</td><td style="vertical-align:top;">:</td><td><div>RPBASE1</div></td></tr><tr><td style="font-weight:bold;vertical-align:top;">server_port</td><td style="vertical-align:top;">:</td><td><div>8000</div></td></tr><tr><td style="font-weight:bold;vertical-align:top;">server_protocol</td><td style="vertical-align:top;">:</td><td><div>HTTP/1.1</div></td></tr><tr><td style="font-weight:bold;vertical-align:top;">server_software</td><td style="vertical-align:top;">:</td><td><div>Rocket 1.2.6</div></td></tr><tr><td style="font-weight:bold;vertical-align:top;">web2py_path</td><td style="vertical-align:top;">:</td><td><div>C:\\Users\\bob\\Google Drive\\EXE_RP\\web2py</div></td></tr><tr><td style="font-weight:bold;vertical-align:top;">web2py_version</td><td style="vertical-align:top;">:</td><td><div>2.13.4-stable+timestamp.2015.12.26.04.59.39</div></td></tr><tr><td style="font-weight:bold;vertical-align:top;">wsgi.errors</td><td style="vertical-align:top;">:</td><td><div>&lt;open file &#x27;&lt;stderr&gt;&#x27;, mode &#x27;w&#x27; at 0x01BDD0D0&gt;</div></td></tr><tr><td style="font-weight:bold;vertical-align:top;">wsgi.file_wrapper</td><td style="vertical-align:top;">:</td><td><div>&lt;class wsgiref.util.FileWrapper at 0x03C501B8&gt;</div></td></tr><tr><td style="font-weight:bold;vertical-align:top;">wsgi.input</td><td style="vertical-align:top;">:</td><td><div>&lt;socket._fileobject object at 0x040F88F0&gt;</div></td></tr><tr><td style="font-weight:bold;vertical-align:top;">wsgi.multiprocess</td><td style="vertical-align:top;">:</td><td><div>False</div></td></tr><tr><td style="font-weight:bold;vertical-align:top;">wsgi.multithread</td><td style="vertical-align:top;">:</td><td><div>True</div></td></tr><tr><td style="font-weight:bold;vertical-align:top;">wsgi.run_once</td><td style="vertical-align:top;">:</td><td><div>False</div></td></tr><tr><td style="font-weight:bold;vertical-align:top;">wsgi.url_scheme</td><td style="vertical-align:top;">:</td><td><div>http</div></td></tr><tr><td style="font-weight:bold;vertical-align:top;">wsgi.version</td><td style="vertical-align:top;">:</td><td><div><table><tr><td><div>1</div></td></tr><tr><td><div>0</div></td></tr></table></div></td></tr><tr><td style="font-weight:bold;vertical-align:top;">wsgi_errors</td><td style="vertical-align:top;">:</td><td><div>&lt;open file &#x27;&lt;stderr&gt;&#x27;, mode &#x27;w&#x27; at 0x01BDD0D0&gt;</div></td></tr><tr><td style="font-weight:bold;vertical-align:top;">wsgi_file_wrapper</td><td style="vertical-align:top;">:</td><td><div>&lt;class wsgiref.util.FileWrapper at 0x03C501B8&gt;</div></td></tr><tr><td style="font-weight:bold;vertical-align:top;">wsgi_input</td><td style="vertical-align:top;">:</td><td><div>&lt;socket._fileobject object at 0x040F88F0&gt;</div></td></tr><tr><td style="font-weight:bold;vertical-align:top;">wsgi_multiprocess</td><td style="vertical-align:top;">:</td><td><div>False</div></td></tr><tr><td style="font-weight:bold;vertical-align:top;">wsgi_multithread</td><td style="vertical-align:top;">:</td><td><div>True</div></td></tr><tr><td style="font-weight:bold;vertical-align:top;">wsgi_run_once</td><td style="vertical-align:top;">:</td><td><div>False</div></td></tr><tr><td style="font-weight:bold;vertical-align:top;">wsgi_url_scheme</td><td style="vertical-align:top;">:</td><td><div>http</div></td></tr><tr><td style="font-weight:bold;vertical-align:top;">wsgi_version</td><td style="vertical-align:top;">:</td><td><div><table><tr><td><div>1</div></td></tr><tr><td><div>0</div></td></tr></table></div></td></tr></table></div></td></tr><tr><td style="font-weight:bold;vertical-align:top;">extension</td><td style="vertical-align:top;">:</td><td><div>html</div></td></tr><tr><td style="font-weight:bold;vertical-align:top;">folder</td><td style="vertical-align:top;">:</td><td><div>C:\\Users\\bob\\Google Drive\\EXE_RP\\web2py\\applications\\crmraw\\</div></td></tr><tr><td style="font-weight:bold;vertical-align:top;">function</td><td style="vertical-align:top;">:</td><td><div>view_task</div></td></tr><tr><td style="font-weight:bold;vertical-align:top;">global_settings</td><td style="vertical-align:top;">:</td><td><div><table><tr><td style="font-weight:bold;vertical-align:top;">app_folders</td><td style="vertical-align:top;">:</td><td><div>set([&#x27;C:\\\\Users\\\\bob\\\\Google Drive\\\\EXE_RP\\\\web2py\\\\applications\\\\crmraw\\\\&#x27;, &#x27;C:\\\\Users\\\\bob\\\\Google Drive\\\\EXE_RP\\\\web2py\\\\applications\\\\admin\\\\&#x27;, &#x27;C:\\\\Users\\\\bob\\\\Google Drive\\\\EXE_RP\\\\web2py\\\\applications\\\\welcome\\\\&#x27;])</div></td></tr><tr><td style="font-weight:bold;vertical-align:top;">applications_parent</td><td style="vertical-align:top;">:</td><td><div>C:\\Users\\bob\\Google Drive\\EXE_RP\\web2py</div></td></tr><tr><td style="font-weight:bold;vertical-align:top;">cmd_args</td><td style="vertical-align:top;">:</td><td><div><table></table></div></td></tr><tr><td style="font-weight:bold;vertical-align:top;">cmd_options</td><td style="vertical-align:top;">:</td><td><div>&lt;Values at 0x32527b0: {&#x27;verbose&#x27;: False, &#x27;ip&#x27;: &#x27;127.0.0.1&#x27;, &#x27;debuglevel&#x27;: 30, &#x27;with_scheduler&#x27;: False, &#x27;ips&#x27;: [], &#x27;shutdown_timeout&#x27;: 5, &#x27;taskbar&#x27;: False, &#x27;with_coverage&#x27;: False, &#x27;scheduler_groups&#x27;: None, &#x27;port&#x27;: 8000, &#x27;maxthreads&#x27;: None, &#x27;softcron&#x27;: False, &#x27;server_name&#x27;: &#x27;RPBASE1&#x27;, &#x27;bpython&#x27;: False, &#x27;nogui&#x27;: False, &#x27;pid_filename&#x27;: &#x27;httpserver.pid&#x27;, &#x27;print_errors&#x27;: False, &#x27;extcron&#x27;: False, &#x27;runcron&#x27;: False, &#x27;run_system_tests&#x27;: False, &#x27;test&#x27;: None, &#x27;folder&#x27;: &#x27;C:\\\\Users\\\\bob\\\\Google Drive\\\\EXE_RP\\\\web2py&#x27;, &#x27;config&#x27;: &#x27;&#x27;, &#x27;minthreads&#x27;: None, &#x27;shell&#x27;: None, &#x27;run&#x27;: &#x27;&#x27;, &#x27;log_filename&#x27;: &#x27;httpserver.log&#x27;, &#x27;profiler_dir&#x27;: None, &#x27;args&#x27;: [&#x27;&#x27;], &#x27;socket_timeout&#x27;: 5, &#x27;ssl_ca_certificate&#x27;: None, &#x27;scheduler&#x27;: None, &#x27;interfaces&#x27;: None, &#x27;ssl_private_key&#x27;: &#x27;&#x27;, &#x27;gae&#x27;: None, &#x27;password&#x27;: &#x27;&lt;ask&gt;&#x27;, &#x27;request_queue_size&#x27;: 5, &#x27;ssl_certificate&#x27;: &#x27;&#x27;, &#x27;cronjob&#x27;: False, &#x27;numthreads&#x27;: None, &#x27;quiet&#x27;: False, &#x27;import_models&#x27;: False, &#x27;timeout&#x27;: 10, &#x27;plain&#x27;: False, &#x27;nobanner&#x27;: False}&gt;</div></td></tr><tr><td style="font-weight:bold;vertical-align:top;">db_sessions</td><td style="vertical-align:top;">:</td><td><div>set([])</div></td></tr><tr><td style="font-weight:bold;vertical-align:top;">debugging</td><td style="vertical-align:top;">:</td><td><div>False</div></td></tr><tr><td style="font-weight:bold;vertical-align:top;">gluon_parent</td><td style="vertical-align:top;">:</td><td><div>C:\\Users\\bob\\Google Drive\\EXE_RP\\web2py</div></td></tr><tr><td style="font-weight:bold;vertical-align:top;">is_jython</td><td style="vertical-align:top;">:</td><td><div>False</div></td></tr><tr><td style="font-weight:bold;vertical-align:top;">is_pypy</td><td style="vertical-align:top;">:</td><td><div>False</div></td></tr><tr><td style="font-weight:bold;vertical-align:top;">is_source</td><td style="vertical-align:top;">:</td><td><div>False</div></td></tr><tr><td style="font-weight:bold;vertical-align:top;">local_hosts</td><td style="vertical-align:top;">:</td><td><div><table><tr><td><div>::ffff:127.0.0.1</div></td></tr><tr><td><div>::1</div></td></tr><tr><td><div>192.168.1.56</div></td></tr><tr><td><div>fe80::48d0:efaa:de27:62ec%10</div></td></tr><tr><td><div>RPBASE1</div></td></tr><tr><td><div>RPBASE1.office.actant.com</div></td></tr><tr><td><div>127.0.0.1</div></td></tr></table></div></td></tr><tr><td style="font-weight:bold;vertical-align:top;">web2py_version</td><td style="vertical-align:top;">:</td><td><div>2.13.4-stable+timestamp.2015.12.26.04.59.39</div></td></tr></table></div></td></tr><tr><td style="font-weight:bold;vertical-align:top;">is_https</td><td style="vertical-align:top;">:</td><td><div>False</div></td></tr><tr><td style="font-weight:bold;vertical-align:top;">is_local</td><td style="vertical-align:top;">:</td><td><div>True</div></td></tr><tr><td style="font-weight:bold;vertical-align:top;">is_restful</td><td style="vertical-align:top;">:</td><td><div>False</div></td></tr><tr><td style="font-weight:bold;vertical-align:top;">is_scheduler</td><td style="vertical-align:top;">:</td><td><div>False</div></td></tr><tr><td style="font-weight:bold;vertical-align:top;">is_shell</td><td style="vertical-align:top;">:</td><td><div>False</div></td></tr><tr><td style="font-weight:bold;vertical-align:top;">now</td><td style="vertical-align:top;">:</td><td><div>datetime.datetime(2016, 5, 1, 13, 11, 38, 572000)</div></td></tr><tr><td style="font-weight:bold;vertical-align:top;">raw_args</td><td style="vertical-align:top;">:</td><td><div>1</div></td></tr><tr><td style="font-weight:bold;vertical-align:top;">raw_extension</td><td style="vertical-align:top;">:</td><td><div>None</div></td></tr><tr><td style="font-weight:bold;vertical-align:top;">url</td><td style="vertical-align:top;">:</td><td><div>/crmraw/default/view_task/1</div></td></tr><tr><td style="font-weight:bold;vertical-align:top;">utcnow</td><td style="vertical-align:top;">:</td><td><div>datetime.datetime(2016, 5, 1, 11, 11, 38, 572000)</div></td></tr><tr><td style="font-weight:bold;vertical-align:top;">wsgi</td><td style="vertical-align:top;">:</td><td><div>&lt;gluon.main.LazyWSGI object at 0x04100650&gt;</div></td></tr></table></div>'
tRp57
sS'frames'
p58
(lp59
(dp60
S'file'
p61
S'C:\\Users\\bob\\Google Drive\\EXE_RP\\web2py\\gluon\\restricted.py'
p62
sS'dump'
p63
(dp64
S'environment'
p65
S"{'A': <class 'gluon.html.A'>, 'ANY_OF': <class 'gluon.validators.ANY_OF'>, 'ASSIGNJS': <function ASSIGNJS>, 'Auth': <class 'gluon.tools.Auth'>, 'B': <class 'gluon.html.B'>, 'BEAUTIFY': <class 'gluon.html.BEAUTIFY'>, 'BODY': <class 'gluon.html.BODY'>, 'BR': <class 'gluon.html.BR'>, 'BUTTON': <class 'gluon.html.BUTTON'>, 'CAT': <class 'gluon.html.CAT'>, ...}"
p66
sS'ccode'
p67
S'<code object <module> at 048BB9F8, file "C:\\User...ications\\crmraw\\controllers/default.py", line 11>'
p68
ssS'lnum'
p69
I227
sS'lines'
p70
(dp71
I224
S'            ccode = code'
p72
sI225
S'        else:'
p73
sI226
S'            ccode = compile2(code, layer)'
p74
sI227
S'        exec ccode in environment'
p75
sI228
S'    except HTTP:'
p76
sI229
S'        raise'
p77
sI230
S'    except RestrictedError:'
p78
sI231
S'        # do not encapsulate (obfuscate) the original RestrictedError'
p79
sI222
S'    try:'
p80
sI223
S'        if isinstance(code, types.CodeType):'
p81
ssS'call'
p82
S"(code='# coding: utf8\\n\\n################################...    \\n\\nresponse._vars=response._caller(view_task)\\n', environment={'A': <class 'gluon.html.A'>, 'ANY_OF': <class 'gluon.validators.ANY_OF'>, 'ASSIGNJS': <function ASSIGNJS>, 'Auth': <class 'gluon.tools.Auth'>, 'B': <class 'gluon.html.B'>, 'BEAUTIFY': <class 'gluon.html.BEAUTIFY'>, 'BODY': <class 'gluon.html.BODY'>, 'BR': <class 'gluon.html.BR'>, 'BUTTON': <class 'gluon.html.BUTTON'>, 'CAT': <class 'gluon.html.CAT'>, ...}, layer=r'C:\\Users\\bob\\Google Drive\\EXE_RP\\web2py\\applications\\crmraw\\controllers/default.py')"
p83
sS'func'
p84
S'restricted'
p85
sa(dp86
g61
S'C:\\Users\\bob\\Google Drive\\EXE_RP\\web2py\\applications\\crmraw\\controllers\\default.py'
p87
sg63
(dp88
sg69
I240
sg70
(dp89
I229
S'    raise HTTP(400,"internal error")'
p90
sI230
S''
sI231
S'def ajaxwiki():'
p91
sI232
S"    form=FORM(TEXTAREA(_id='text',_name='text'),"
p92
sI233
S"              INPUT(_type='button',_value='markmin click to save',"
p93
sI234
S'              _onclick="ajax(\'ajaxwiki_onclick\',[\'text\'],\'html\')"))'
p94
sI235
S"    return dict(form=form,html=DIV(_id='html'))"
p95
sI236
S''
sI237
S'def ajaxwiki_onclick():'
p96
sI238
S'    return MARKMIN(request.vars.text).xml()'
p97
ssg82
S'()'
p98
sg84
S'<module>'
p99
sa(dp100
g61
S'C:\\Users\\bob\\Google Drive\\EXE_RP\\web2py\\gluon\\globals.py'
p101
sg63
(dp102
S'self'
p103
S'undefined'
p104
sS'f'
S'<function view_task>'
p105
ssg69
I412
sg70
(dp106
I416
S"        self.generic_patterns = ['*']"
p107
sI407
S"        self.flash = ''            # used by the default view layout"
p108
sI408
S'        self.meta = Storage()      # used by web2py_ajax.html'
p109
sI409
S'        self.menu = []             # used by the default view layout'
p110
sI410
S'        self.files = []            # used by web2py_ajax.html'
p111
sI411
S'        self._vars = None'
p112
sI412
S'        self._caller = lambda f: f()'
p113
sI413
S'        self._view_environment = None'
p114
sI414
S'        self._custom_commit = None'
p115
sI415
S'        self._custom_rollback = None'
p116
ssg82
S'(f=<function view_task>)'
p117
sg84
S'<lambda>'
p118
sa(dp119
g61
S'C:\\Users\\bob\\Google Drive\\EXE_RP\\web2py\\gluon\\tools.py'
p120
sg63
(dp121
S'action'
p122
S'<function view_task>'
p123
sS'a'
S'()'
p124
sS'b'
g45
ssg69
I4236
sg70
(dp125
I4231
S'                    flag = condition'
p126
sI4232
S'                if not flag:'
p127
sI4233
S'                    current.session.flash = self.messages.access_denied'
p128
sI4234
S'                    return call_or_redirect('
p129
sI4235
S'                        self.settings.on_failed_authorization)'
p130
sI4236
S'                return action(*a, **b)'
p131
sI4237
S'            f.__doc__ = action.__doc__'
p132
sI4238
S'            f.__name__ = action.__name__'
p133
sI4239
S'            f.__dict__.update(action.__dict__)'
p134
sI4240
S'            return f'
p135
ssg82
S'(*a=(), **b={})'
p136
sg84
S'f'
sa(dp137
g61
S'C:\\Users\\bob\\Google Drive\\EXE_RP\\web2py\\applications\\crmraw\\controllers\\default.py'
p138
sg63
(dp139
S'global session'
p140
S"<Storage {'recent_companies': [(1L, 'firstco'), ...e1bec', 'fc77ec85-5808-462f-966f-eaf160cb6405']}>"
p141
sS'session.recent_tasks'
p142
S'[]'
p143
sS'global add'
p144
S'<function add>'
p145
sS'task'
p146
S"<Row {'task_type': 'Phone', 'description': 'call...time.datetime(2016, 4, 30, 8, 22, 59), 'id': 1L}>"
p147
ssg69
I130
sg70
(dp148
I128
S'    db.task.person.writable=db.task.person.readable=False'
p149
sI129
S'    form=crud.read(db.task,task)'
p150
sI130
S'    session.recent_tasks = add(session.recent_tasks,task)'
p151
sI131
S'    return dict(form=form, person=person, task=task)'
p152
sI132
S''
sI133
S'@auth.requires_login()'
p153
sI134
S'def list_tasks():'
p154
sI125
S'    task_id=request.args(0)'
p155
sI126
S'    task=db.task[task_id] or redirect(error_page)'
p156
sI127
S'    person=db.person[task.person]'
p157
ssg82
S'()'
p158
sg84
S'view_task'
p159
sa(dp160
g61
S'C:\\Users\\bob\\Google Drive\\EXE_RP\\web2py\\applications\\crmraw\\controllers\\default.py'
p161
sg63
(dp162
S'item'
p163
S"<Row {'task_type': 'Phone', 'description': 'call...time.datetime(2016, 4, 30, 8, 22, 59), 'id': 1L}>"
p164
sS'mylist'
p165
S'[]'
p166
sS'item.id'
p167
S'1L'
p168
sS'item.name'
p169
g104
ssg69
I26
sg70
(dp170
I21
S"  ['Tasks',False,url('list_tasks')],"
p171
sI22
S']'
sI23
S''
sI24
S'def add(mylist,item):'
p172
sI25
S'    if not item.id in [x[0] for x in mylist]:'
p173
sI26
S'        return mylist[:9]+[(item.id,item.name)]'
p174
sI27
S'    else:'
p175
sI28
S'        return mylist'
p176
sI29
S''
sI30
S'def index():'
p177
ssg82
S"(mylist=[], item=<Row {'task_type': 'Phone', 'description': 'call...time.datetime(2016, 4, 30, 8, 22, 59), 'id': 1L}>)"
p178
sg84
S'add'
p179
sa(dp180
g61
S'C:\\Users\\bob\\Google Drive\\EXE_RP\\web2py\\gluon\\packages\\dal\\pydal\\objects.py'
p181
sg63
(dp182
S'builtinAttributeError'
p183
S"<type 'exceptions.AttributeError'>"
p184
ssg69
I90
sg70
(dp185
I85
S''
sI86
S'    def __getattr__(self, k):'
p186
sI87
S'        try:'
p187
sI88
S'            return self.__getitem__(k)'
p188
sI89
S'        except KeyError:'
p189
sI90
S'            raise AttributeError'
p190
sI91
S''
sI92
S'    def __copy__(self):'
p191
sI93
S'        return Row(self)'
p192
sI94
S''
ssg82
S"(self=<Row {'task_type': 'Phone', 'description': 'call...time.datetime(2016, 4, 30, 8, 22, 59), 'id': 1L}>, k='name')"
p193
sg84
S'__getattr__'
p194
sasS'pyver'
p195
S'Python 2.7.9: C:\\Users\\bob\\Google Drive\\EXE_RP\\web2py\\web2py.exe (prefix: C:\\Python27)'
p196
sS'session'
p197
g56
(S's\xf1\x0b\x00\x00<div><table><tr><td style="font-weight:bold;vertical-align:top;">auth</td><td style="vertical-align:top;">:</td><td><div><table><tr><td style="font-weight:bold;vertical-align:top;">expiration</td><td style="vertical-align:top;">:</td><td><div>2592000</div></td></tr><tr><td style="font-weight:bold;vertical-align:top;">hmac_key</td><td style="vertical-align:top;">:</td><td><div>d447eeda-00ce-4449-8939-4899f7402aa2</div></td></tr><tr><td style="font-weight:bold;vertical-align:top;">last_visit</td><td style="vertical-align:top;">:</td><td><div>datetime.datetime(2016, 4, 29, 6, 10, 21, 895000)</div></td></tr><tr><td style="font-weight:bold;vertical-align:top;">remember_me</td><td style="vertical-align:top;">:</td><td><div>True</div></td></tr><tr><td style="font-weight:bold;vertical-align:top;">user</td><td style="vertical-align:top;">:</td><td><div><table><tr><td style="font-weight:bold;vertical-align:top;">email</td><td style="vertical-align:top;">:</td><td><div>p@p.pp</div></td></tr><tr><td style="font-weight:bold;vertical-align:top;">first_name</td><td style="vertical-align:top;">:</td><td><div>p</div></td></tr><tr><td style="font-weight:bold;vertical-align:top;">id</td><td style="vertical-align:top;">:</td><td><div>2L</div></td></tr><tr><td style="font-weight:bold;vertical-align:top;">last_name</td><td style="vertical-align:top;">:</td><td><div>p</div></td></tr><tr><td style="font-weight:bold;vertical-align:top;">registration_id</td><td style="vertical-align:top;">:</td><td><div></div></td></tr><tr><td style="font-weight:bold;vertical-align:top;">registration_key</td><td style="vertical-align:top;">:</td><td><div></div></td></tr><tr><td style="font-weight:bold;vertical-align:top;">reset_password_key</td><td style="vertical-align:top;">:</td><td><div></div></td></tr></table></div></td></tr><tr><td style="font-weight:bold;vertical-align:top;">user_groups</td><td style="vertical-align:top;">:</td><td><div><table><tr><td style="font-weight:bold;vertical-align:top;">2</td><td style="vertical-align:top;">:</td><td><div>user_2</div></td></tr></table></div></td></tr></table></div></td></tr><tr><td style="font-weight:bold;vertical-align:top;">flash</td><td style="vertical-align:top;">:</td><td><div>None</div></td></tr><tr><td style="font-weight:bold;vertical-align:top;">recent_companies</td><td style="vertical-align:top;">:</td><td><div><table><tr><td><div><table><tr><td><div>1L</div></td></tr><tr><td><div>firstco</div></td></tr></table></div></td></tr><tr><td><div><table><tr><td><div>2L</div></td></tr><tr><td><div>scondco</div></td></tr></table></div></td></tr></table></div></td></tr><tr><td style="font-weight:bold;vertical-align:top;">recent_persons</td><td style="vertical-align:top;">:</td><td><div><table><tr><td><div><table><tr><td><div>1L</div></td></tr><tr><td><div>every contact needs</div></td></tr></table></div></td></tr></table></div></td></tr><tr><td style="font-weight:bold;vertical-align:top;">recent_tasks</td><td style="vertical-align:top;">:</td><td><div><table></table></div></td></tr></table></div>'
tRp198
sS'etype'
p199
S"<type 'exceptions.AttributeError'>"
p200
sS'date'
p201
S'Sun May 01 13:11:38 2016'
p202
sS'response'
p203
g56
(S's\x0f%\x00\x00<div><table><tr><td style="font-weight:bold;vertical-align:top;">body</td><td style="vertical-align:top;">:</td><td><div>&lt;cStringIO.StringO object at 0x0465C440&gt;</div></td></tr><tr><td style="font-weight:bold;vertical-align:top;">cookies</td><td style="vertical-align:top;">:</td><td><div><table><tr><td style="font-weight:bold;vertical-align:top;">session_id_crmraw</td><td style="vertical-align:top;">:</td><td><div>127.0.0.1-c63ee9db-bf95-4c5c-9ba4-fb84ac052322<table><tr><td style="font-weight:bold;vertical-align:top;">comment</td><td style="vertical-align:top;">:</td><td><div></div></td></tr><tr><td style="font-weight:bold;vertical-align:top;">domain</td><td style="vertical-align:top;">:</td><td><div></div></td></tr><tr><td style="font-weight:bold;vertical-align:top;">expires</td><td style="vertical-align:top;">:</td><td><div></div></td></tr><tr><td style="font-weight:bold;vertical-align:top;">httponly</td><td style="vertical-align:top;">:</td><td><div></div></td></tr><tr><td style="font-weight:bold;vertical-align:top;">max-age</td><td style="vertical-align:top;">:</td><td><div></div></td></tr><tr><td style="font-weight:bold;vertical-align:top;">path</td><td style="vertical-align:top;">:</td><td><div>/</div></td></tr><tr><td style="font-weight:bold;vertical-align:top;">secure</td><td style="vertical-align:top;">:</td><td><div></div></td></tr><tr><td style="font-weight:bold;vertical-align:top;">version</td><td style="vertical-align:top;">:</td><td><div></div></td></tr></table></div></td></tr></table></div></td></tr><tr><td style="font-weight:bold;vertical-align:top;">delimiters</td><td style="vertical-align:top;">:</td><td><div><table><tr><td><div>{{</div></td></tr><tr><td><div>}}</div></td></tr></table></div></td></tr><tr><td style="font-weight:bold;vertical-align:top;">files</td><td style="vertical-align:top;">:</td><td><div><table></table></div></td></tr><tr><td style="font-weight:bold;vertical-align:top;">flash</td><td style="vertical-align:top;">:</td><td><div></div></td></tr><tr><td style="font-weight:bold;vertical-align:top;">form_label_separator</td><td style="vertical-align:top;">:</td><td><div>: </div></td></tr><tr><td style="font-weight:bold;vertical-align:top;">formstyle</td><td style="vertical-align:top;">:</td><td><div>table3cols</div></td></tr><tr><td style="font-weight:bold;vertical-align:top;">generic_patterns</td><td style="vertical-align:top;">:</td><td><div><table><tr><td><div>*</div></td></tr></table></div></td></tr><tr><td style="font-weight:bold;vertical-align:top;">headers</td><td style="vertical-align:top;">:</td><td><div><table><tr><td style="font-weight:bold;vertical-align:top;">X-Powered-By</td><td style="vertical-align:top;">:</td><td><div>web2py</div></td></tr></table></div></td></tr><tr><td style="font-weight:bold;vertical-align:top;">menu</td><td style="vertical-align:top;">:</td><td><div><table><tr><td><div><table><tr><td><div>Companies</div></td></tr><tr><td><div>False</div></td></tr><tr><td><div>/crmraw/default/list_companies</div></td></tr></table></div></td></tr><tr><td><div><table><tr><td><div>Contacts</div></td></tr><tr><td><div>False</div></td></tr><tr><td><div>/crmraw/default/list_persons</div></td></tr></table></div></td></tr><tr><td><div><table><tr><td><div>Tasks</div></td></tr><tr><td><div>False</div></td></tr><tr><td><div>/crmraw/default/list_tasks</div></td></tr></table></div></td></tr></table></div></td></tr><tr><td style="font-weight:bold;vertical-align:top;">menu_auth</td><td style="vertical-align:top;">:</td><td><div><table><tr><td><div><table><tr><td><div>User: p</div></td></tr><tr><td><div>False</div></td></tr><tr><td><div>None</div></td></tr><tr><td><div><table><tr><td><div><table><tr><td><div>Logout</div></td></tr><tr><td><div>False</div></td></tr><tr><td><div>/crmraw/default/user/logout</div></td></tr></table></div></td></tr><tr><td><div><table><tr><td><div>Edit Profile</div></td></tr><tr><td><div>False</div></td></tr><tr><td><div>/crmraw/default/user/profile</div></td></tr></table></div></td></tr><tr><td><div><table><tr><td><div>Change Password</div></td></tr><tr><td><div>False</div></td></tr><tr><td><div>/crmraw/default/user/change_password</div></td></tr></table></div></td></tr></table></div></td></tr></table></div></td></tr></table></div></td></tr><tr><td style="font-weight:bold;vertical-align:top;">menu_edit</td><td style="vertical-align:top;">:</td><td><div><table><tr><td><div><table><tr><td><div>Edit</div></td></tr><tr><td><div>False</div></td></tr><tr><td><div>/admin/default/design/crmraw</div></td></tr><tr><td><div><table><tr><td><div><table><tr><td><div>Controller</div></td></tr><tr><td><div>False</div></td></tr><tr><td><div>/admin/default/edit/crmraw/controllers/default.py</div></td></tr></table></div></td></tr><tr><td><div><table><tr><td><div>View</div></td></tr><tr><td><div>False</div></td></tr><tr><td><div>/admin/default/edit/crmraw/views/default/view_task.html</div></td></tr></table></div></td></tr><tr><td><div><table><tr><td><div>Layout</div></td></tr><tr><td><div>False</div></td></tr><tr><td><div>/admin/default/edit/crmraw/views/layout.html</div></td></tr></table></div></td></tr><tr><td><div><table><tr><td><div>Stylesheet</div></td></tr><tr><td><div>False</div></td></tr><tr><td><div>/admin/default/edit/crmraw/static/base.css</div></td></tr></table></div></td></tr><tr><td><div><table><tr><td><div>DB Model</div></td></tr><tr><td><div>False</div></td></tr><tr><td><div>/admin/default/edit/crmraw/models/db.py</div></td></tr></table></div></td></tr><tr><td><div><table><tr><td><div>Menu Model</div></td></tr><tr><td><div>False</div></td></tr><tr><td><div>/admin/default/edit/crmraw/models/menu.py</div></td></tr></table></div></td></tr><tr><td><div><table><tr><td><div>Database</div></td></tr><tr><td><div>False</div></td></tr><tr><td><div>/crmraw/appadmin/index</div></td></tr></table></div></td></tr></table></div></td></tr></table></div></td></tr></table></div></td></tr><tr><td style="font-weight:bold;vertical-align:top;">meta</td><td style="vertical-align:top;">:</td><td><div><table></table></div></td></tr><tr><td style="font-weight:bold;vertical-align:top;">models_to_run</td><td style="vertical-align:top;">:</td><td><div><table><tr><td><div>^\\w+\\.py$</div></td></tr><tr><td><div>^default/\\w+\\.py$</div></td></tr><tr><td><div>^default/view_task/\\w+\\.py$</div></td></tr></table></div></td></tr><tr><td style="font-weight:bold;vertical-align:top;">postprocessing</td><td style="vertical-align:top;">:</td><td><div><table></table></div></td></tr><tr><td style="font-weight:bold;vertical-align:top;">session_client</td><td style="vertical-align:top;">:</td><td><div>127.0.0.1</div></td></tr><tr><td style="font-weight:bold;vertical-align:top;">session_cookie_compression_level</td><td style="vertical-align:top;">:</td><td><div>None</div></td></tr><tr><td style="font-weight:bold;vertical-align:top;">session_cookie_expires</td><td style="vertical-align:top;">:</td><td><div>2592000</div></td></tr><tr><td style="font-weight:bold;vertical-align:top;">session_cookie_key</td><td style="vertical-align:top;">:</td><td><div>None</div></td></tr><tr><td style="font-weight:bold;vertical-align:top;">session_data_name</td><td style="vertical-align:top;">:</td><td><div>session_data_crmraw</div></td></tr><tr><td style="font-weight:bold;vertical-align:top;">session_file</td><td style="vertical-align:top;">:</td><td><div>&lt;open file &#x27;C:\\\\Users\\\\bob\\\\Google Drive\\\\EXE_RP\\\\web2py\\\\applications\\\\crmraw\\\\sessions\\\\1f9\\\\1be\\\\127.0.0.1-c63ee9db-bf95-4c5c-9ba4-fb84ac052322&#x27;, mode &#x27;rb+&#x27; at 0x02F77700&gt;</div></td></tr><tr><td style="font-weight:bold;vertical-align:top;">session_filename</td><td style="vertical-align:top;">:</td><td><div>C:\\Users\\bob\\Google Drive\\EXE_RP\\web2py\\applications\\crmraw\\sessions\\127.0.0.1-c63ee9db-bf95-4c5c-9ba4-fb84ac052322</div></td></tr><tr><td style="font-weight:bold;vertical-align:top;">session_hash</td><td style="vertical-align:top;">:</td><td><div>58b4950b5c845ad38ed4dfcf9f8fc249</div></td></tr><tr><td style="font-weight:bold;vertical-align:top;">session_id</td><td style="vertical-align:top;">:</td><td><div>127.0.0.1-c63ee9db-bf95-4c5c-9ba4-fb84ac052322</div></td></tr><tr><td style="font-weight:bold;vertical-align:top;">session_id_name</td><td style="vertical-align:top;">:</td><td><div>session_id_crmraw</div></td></tr><tr><td style="font-weight:bold;vertical-align:top;">session_locked</td><td style="vertical-align:top;">:</td><td><div>True</div></td></tr><tr><td style="font-weight:bold;vertical-align:top;">session_masterapp</td><td style="vertical-align:top;">:</td><td><div>crmraw</div></td></tr><tr><td style="font-weight:bold;vertical-align:top;">session_new</td><td style="vertical-align:top;">:</td><td><div>False</div></td></tr><tr><td style="font-weight:bold;vertical-align:top;">session_storage_type</td><td style="vertical-align:top;">:</td><td><div>file</div></td></tr><tr><td style="font-weight:bold;vertical-align:top;">status</td><td style="vertical-align:top;">:</td><td><div>200</div></td></tr><tr><td style="font-weight:bold;vertical-align:top;">subtitle</td><td style="vertical-align:top;">:</td><td><div>customize me!</div></td></tr><tr><td style="font-weight:bold;vertical-align:top;">title</td><td style="vertical-align:top;">:</td><td><div>crmraw</div></td></tr><tr><td style="font-weight:bold;vertical-align:top;">view</td><td style="vertical-align:top;">:</td><td><div>default/view_task.html</div></td></tr></table></div>'
tRp204
sS'locals'
p205
(dp206
S'k'
S"'name'"
p207
sS'self'
p208
S"<Row {'task_type': 'Phone', 'description': 'call...time.datetime(2016, 4, 30, 8, 22, 59), 'id': 1L}>"
p209
sssS'traceback'
p210
S'Traceback (most recent call last):\n  File "C:\\Users\\bob\\Google Drive\\EXE_RP\\web2py\\gluon\\restricted.py", line 227, in restricted\n    exec ccode in environment\n  File "C:\\Users\\bob\\Google Drive\\EXE_RP\\web2py\\applications\\crmraw\\controllers/default.py", line 240, in <module>\n  File "C:\\Users\\bob\\Google Drive\\EXE_RP\\web2py\\gluon\\globals.py", line 412, in <lambda>\n    self._caller = lambda f: f()\n  File "C:\\Users\\bob\\Google Drive\\EXE_RP\\web2py\\gluon\\tools.py", line 4236, in f\n    return action(*a, **b)\n  File "C:\\Users\\bob\\Google Drive\\EXE_RP\\web2py\\applications\\crmraw\\controllers/default.py", line 130, in view_task\n    session.recent_tasks = add(session.recent_tasks,task)\n  File "C:\\Users\\bob\\Google Drive\\EXE_RP\\web2py\\applications\\crmraw\\controllers/default.py", line 26, in add\n    return mylist[:9]+[(item.id,item.name)]\n  File "C:\\Users\\bob\\Google Drive\\EXE_RP\\web2py\\gluon\\packages\\dal\\pydal\\objects.py", line 90, in __getattr__\n    raise AttributeError\nAttributeError\n'
p211
s.