(dp1
S'output'
p2
S"<type 'exceptions.NameError'> name 'person' is not defined"
p3
sS'layer'
p4
S'C:\\GITWEBPY\\WEBPY\\web2py\\applications\\CRMwStyle\\views\\default/view_vqfforms.html'
p5
sS'code'
p6
S'response.write(\'<!DOCTYPE html PUBLIC "-//W3C//DTD XHTML 1.0 Strict//EN" "http://www.w3.org/TR/xhtml1/DTD/xhtml1-strict.dtd">\\r\\n<html xmlns="http://www.w3.org/1999/xhtml" lang="en" class="linen js-login" >\\r\\n<html xmlns="http://www.w3.org/1999/xhtml">\\r\\n\\r\\n\\r\\n <head>\\r\\n  <title>\\xf0\\x9f\\x93\\x88Addfinwealth</title>\\r\\n  <link rel="shortcut icon" href="company_logo.ico" type="image/x-icon" />\\r\\n  \', escape=False)\nresponse.files.append(URL(request.application,\'static\',\'themes/AddfinV3/styles.css\'))\nresponse.write(\'\\r\\n\\r\\n\', escape=False)\nresponse.files.append(URL(request.application,\'static\',\'themes/AddfinV3/style.css\'))\nresponse.write(\'\\r\\n\', escape=False)\nresponse.files.append(URL(request.application,\'static\',\'themes/AddfinV3/jquery.ui.all.css\'))\nresponse.write(\'\\r\\n\', escape=False)\nresponse.files.append(URL(request.application,\'static\',\'themes/AddfinV3/styles.css\'))\nresponse.write(\'\\r\\n\', escape=False)\nresponse.files.append(URL(request.application,\'static\',\'themes/AddfinV3/deprecated.css\'))\nresponse.write(\'\\r\\n\', escape=False)\nresponse.files.append(URL(request.application,\'static\',\'themes/AddfinV3/yui.css\'))\nresponse.write(\'\\r\\n\\t\\t\\r\\n<!--\\t\\tfind: \\x91jquer*\\x92: No such file or directory\\r\\n./include/javascript/jquery/markitup/sets/default/style.css\\r\\n./include/javascript/jquery/markitup/skins/simple/style.css\\r\\n./include/javascript/jquery/markitup/templates/preview.css \\r\\n\\r\\n\', escape=False)\nresponse.files.append(URL(request.application,\'static\',\'themes/AddfinV3/base/jquery.ui.accordion.css\'))\nresponse.write(\'\\r\\n\', escape=False)\nresponse.files.append(URL(request.application,\'static\',\'themes/AddfinV3/base/jquery.ui.all.css\'))\nresponse.write(\'\\r\\n\', escape=False)\nresponse.files.append(URL(request.application,\'static\',\'themes/AddfinV3/base/jquery.ui.autocomplete.css\'))\nresponse.write(\'\\r\\n\', escape=False)\nresponse.files.append(URL(request.application,\'static\',\'themes/AddfinV3/base/jquery.ui.base.css\'))\nresponse.write(\'\\r\\n\', escape=False)\nresponse.files.append(URL(request.application,\'static\',\'themes/AddfinV3/base/jquery.ui.button.css\'))\nresponse.write(\'\\r\\n\', escape=False)\nresponse.files.append(URL(request.application,\'static\',\'themes/AddfinV3/base/jquery.ui.core.css\'))\nresponse.write(\'\\r\\n\', escape=False)\nresponse.files.append(URL(request.application,\'static\',\'themes/AddfinV3/base/jquery.ui.datepicker.css\'))\nresponse.write(\'\\r\\n\', escape=False)\nresponse.files.append(URL(request.application,\'static\',\'themes/AddfinV3/base/jquery.ui.dialog.css\'))\nresponse.write(\'\\r\\n\', escape=False)\nresponse.files.append(URL(request.application,\'static\',\'themes/AddfinV3/base/jquery.ui.progressbar.css\'))\nresponse.write(\'\\r\\n\', escape=False)\nresponse.files.append(URL(request.application,\'static\',\'themes/AddfinV3/base/jquery.ui.resizable.css\'))\nresponse.write(\'\\r\\n\', escape=False)\nresponse.files.append(URL(request.application,\'static\',\'themes/AddfinV3/base/jquery.ui.selectable.css\'))\nresponse.write(\'\\r\\n\', escape=False)\nresponse.files.append(URL(request.application,\'static\',\'themes/AddfinV3/base/jquery.ui.slider.css\'))\nresponse.write(\'\\r\\n\', escape=False)\nresponse.files.append(URL(request.application,\'static\',\'themes/AddfinV3/base/jquery.ui.tabs.css\'))\nresponse.write(\'\\r\\n\', escape=False)\nresponse.files.append(URL(request.application,\'static\',\'themes/AddfinV3/base/jquery.ui.theme.css\'))\nresponse.write(\'\\r\\n\\r\\n-->\\r\\n\', escape=False)\nresponse.files.insert(0,URL(r=request,c=\'static\',f=\'jquery.js\'))\nresponse.files.insert(1,URL(r=request,c=\'static\',f=\'calendar.css\'))\nresponse.files.insert(2,URL(r=request,c=\'static\',f=\'calendar.js\'))\nfor _item in response.meta or []:\n    response.write(\'\\r\\n     <meta name="\', escape=False)\n    response.write(_item)\n    response.write(\'" content="\', escape=False)\n    response.write(response.meta[_item])\n    response.write(\'" />\', escape=False)\n    pass\nfor _k,_file in enumerate(response.files or []):\n    if _file in response.files[:_k]:\n        continue\n    elif _file[-4:].lower()==\'.css\':\n        response.write(\'\\r\\n     <link href="\', escape=False)\n        response.write(_file)\n        response.write(\'" rel="stylesheet" type="text/css" charset="utf-8" />\', escape=False)\n    elif _file[-3:].lower()==\'.js\':\n        response.write(\'\\r\\n     <script src="\', escape=False)\n        response.write(_file)\n        response.write(\'" type="text/javascript"></script>\', escape=False)\n        pass\n    pass\nresponse.write(\'\\r\\n<script type="text/javascript"><!--\\r\\nfunction popup(url) {\\r\\n  newwindow=window.open(url,\\\'name\\\',\\\'height=400,width=600\\\');\\r\\n  if (window.focus) newwindow.focus();\\r\\n  return false;\\r\\n}\\r\\nfunction collapse(id) { jQuery(\\\'#\\\'+id).slideToggle(); }\\r\\nfunction fade(id,value) { if(value>0) jQuery(\\\'#\\\'+id).hide().fadeIn(\\\'slow\\\'); else jQuery(\\\'#\\\'+id).show().fadeOut(\\\'slow\\\'); }\\r\\nfunction ajax(u,s,t) {\\r\\n  var query="";\\r\\n  for(i=0; i<s.length; i++) { \\r\\n     if(i>0) query=query+"&";\\r\\n     query=query+encodeURIComponent(s[i])+"="+encodeURIComponent(document.getElementById(s[i]).value);\\r\\n  }\\r\\n  jQuery.ajax({type: "POST", url: u, data: query, success: function(msg) { if(t==\\\':eval\\\') eval(msg); else document.getElementById(t).innerHTML=msg; } });  \\r\\n}\\r\\nString.prototype.reverse = function () { return this.split(\\\'\\\').reverse().join(\\\'\\\');};\\r\\nfunction web2py_ajax_init() {\\r\\n  jQuery(\\\'.hidden\\\').hide();\\r\\n  jQuery(\\\'.error\\\').hide().slideDown(\\\'slow\\\');\\r\\n  jQuery(\\\'.flash\\\').click(function() { jQuery(this).fadeOut(\\\'slow\\\'); return false; });\\r\\n  jQuery(\\\'input.string\\\').attr(\\\'size\\\',50);\\r\\n  jQuery(\\\'textarea.text\\\').attr(\\\'cols\\\',50).attr(\\\'rows\\\',10);\\r\\n  jQuery(\\\'input.integer\\\').keyup(function(){this.value=this.value.reverse().replace(/[^0-9\\\\-]|\\\\-(?=.)/g,\\\'\\\').reverse();});\\r\\n  jQuery(\\\'input.double\\\').keyup(function(){this.value=this.value.reverse().replace(/[^0-9\\\\-\\\\.]|[\\\\-](?=.)|[\\\\.](?=[0-9]*[\\\\.])/g,\\\'\\\').reverse();});\\r\\n  jQuery(\\\'input.delete\\\').attr(\\\'onclick\\\',\\\'if(this.checked) if(!confirm("\', escape=False)\nresponse.write(T(\'Sure you want to delete this object?\'))\nresponse.write(\'")) this.checked=false;\\\');\\r\\n  try {jQuery("input.date").focus( function() {Calendar.setup({\\r\\n     inputField:this.id, ifFormat:"\', escape=False)\nresponse.write(T(\'%Y-%m-%d\'))\nresponse.write(\'", showsTime:false\\r\\n  }); }); } catch(e) {};\\r\\n  try { jQuery("input.datetime").focus( function() {Calendar.setup({\\r\\n     inputField:this.id, ifFormat:"\', escape=False)\nresponse.write(T(\'%Y-%m-%d %H:%M:%S\'))\nresponse.write(\'", showsTime: true,timeFormat: "24"\\r\\n  }); }); } catch(e) {};\\r\\n  try { jQuery("input.time").clockpick({\\r\\n      starthour:0, endhour:23, showminutes:true, military:true\\r\\n  }); } catch(e) {};\\r\\n};\\r\\njQuery(document).ready(function(){\\r\\n   jQuery(\\\'.flash\\\').hide();\\r\\n   if(jQuery(\\\'.flash\\\').html()!=\\\'\\\') jQuery(\\\'.flash\\\').slideDown(\\\'slow\\\');\\r\\n   web2py_ajax_init();});\\r\\n\\r\\nfunction web2py_trap_form(action,target) {\\r\\n   jQuery(\\\'#\\\'+target+\\\' form\\\').each(function(i){\\r\\n      var form=jQuery(this);\\r\\n      jQuery(\\\'input[type="submit"]\\\',this).click(function(){\\r\\n         jQuery(\\\'.flash\\\').hide().html(\\\'\\\');\\r\\n         web2py_ajax_page(\\\'post\\\',action,form.serialize(),target);\\r\\n         return false;\\r\\n      });\\r\\n   });\\r\\n}\\r\\nfunction web2py_ajax_page(method,action,data,target) {\\r\\n  jQuery.ajax({\\\'type\\\':method,\\\'url\\\':action,\\\'data\\\':data,\\r\\n    \\\'beforeSend\\\':function(xhr){\\r\\n      xhr.setRequestHeader(\\\'web2py-component-location\\\',document.location);\\r\\n      xhr.setRequestHeader(\\\'web2py-component-element\\\',target);},\\r\\n    \\\'complete\\\':function(xhr,text){\\r\\n      command=xhr.getResponseHeader(\\\'web2py-component-command\\\');\\r\\n      if(command) eval(command);\\r\\n      flash=xhr.getResponseHeader(\\\'web2py-component-flash\\\');\\r\\n      if(flash) jQuery(\\\'.flash\\\').html(flash).slideDown();\\r\\n      },\\r\\n    \\\'success\\\': function(text) {\\r\\n      jQuery(\\\'#\\\'+target).html(text);\\r\\n      web2py_trap_form(action,target);\\r\\n      web2py_ajax_init();\\r\\n      }\\r\\n    });\\r\\n}\\r\\nfunction web2py_component(action,target) {\\r\\n    jQuery(document).ready(function(){ web2py_ajax_page(\\\'get\\\',action,null,target); });\\r\\n}\\r\\n//--></script>\\r\\n\', escape=False)\nresponse.write(\'\\r\\n\\t<!-- Webfonts -->\\r\\n    <link rel="stylesheet" type=\\\'text/css\\\' href="\', escape=False)\nresponse.write(URL(\'static\',\'https://fonts.googleapis.com/css?family=Lato:300,400,700\'))\nresponse.write(\'\\t"\\r\\n    <link rel="stylesheet"  type=\\\'text/css\\\' href="\', escape=False)\nresponse.write(URL(\'static\',\'https://fonts.googleapis.com/css?family=Oswald:400,700,300\'))\nresponse.write(\'"\\r\\n\\r\\n\\r\\n        <title>ADDFIN &#8211; Central Authentication Service</title>\\r\\n          \\r\\n\\r\\n        <meta http-equiv="Content-Type" content="text/html; charset=UTF-8" />\\r\\n        <link rel="icon" href="/cas/favicon.ico" type="image/x-icon" />\\r\\n        \\r\\n    <!-- FROM LOGIN >>>> -->\\r\\n        \\r\\n    <meta name="HandheldFriendly" content="True">\\r\\n    <meta name="MobileOptimized" content="320">\\r\\n    <meta name="viewport" content="width=device-width, initial-scale=1.0, maximum-scale=1.0, user-scalable=no">\\r\\n    \\r\\n    <!-- For all browsers -->\\r\\n    <link rel="stylesheet" href="css/reset.css?v=1">\\r\\n    <link rel="stylesheet" href="css/style.css?v=1">\\r\\n    <link rel="stylesheet" href="css/colors.css?v=1">\\r\\n    <link rel="stylesheet" media="print" href="css/print.css?v=1">\\r\\n    <!-- For progressively larger displays -->\\r\\n    <link rel="stylesheet" media="only all and (min-width: 480px)" href="css/480.css?v=1">\\r\\n    <link rel="stylesheet" media="only all and (min-width: 768px)" href="css/768.css?v=1">\\r\\n    <link rel="stylesheet" media="only all and (min-width: 992px)" href="css/992.css?v=1">\\r\\n    <link rel="stylesheet" media="only all and (min-width: 1200px)" href="css/1200.css?v=1">\\r\\n    <!-- For Retina displays -->\\r\\n    <link rel="stylesheet" media="only all and (-webkit-min-device-pixel-ratio: 1.5), only screen and (-o-min-device-pixel-ratio: 3/2), only screen and (min-device-pixel-ratio: 1.5)" href="css/2x.css?v=1">\\r\\n\\r\\n    <!-- Additional styles -->\\r\\n    <link rel="stylesheet" href="css/styles/form.css?v=1">\\r\\n\\r\\n    <!-- Login pages styles -->\\r\\n    <link rel="stylesheet" media="screen" href="css/login.css?v=1">\\r\\n    \\r\\n    \\r\\n    <!-- JavaScript at bottom except for Modernizr -->\\r\\n    <script src="js/libs/modernizr.custom.js"></script>\\r\\n    </head>\\r\\n\\t\\r\\n\\t\\r\\n\\t\\r\\n\\t\\r\\n\\t\\r\\n    <body>\\r\\n\\r\\n\\t<header role="banner" id="title-bar">\\r\\n\\t\\t<div class="logo">\\r\\n\\t\\t\\t<div class="quick-access">\\r\\n\\t\\t\\t\\t\\r\\n<div class="quick-access-wrapper">\\r\\n\\t<ul>\\r\\n\\t\\t<li class="create-report disabled">\\r\\n\\t\\t\\t<a href="javascript:void(0)" class="link-iframe">Create a Report</a>\\r\\n\\t\\t</li> \\r\\n</ul>\\r\\n</div>\\t\\t\\r\\n\\t\\r\\n\\t\\r\\n\\t\\r\\n\\t \\r\\n <body>\\r\\n \\r\\n \\r\\n\\r\\n  \\r\\n  \\r\\n  <!-- end #header -->\\r\\n<!-- <div id="menu"> -->\\r\\n   <!-- \', escape=False)\nresponse.write(MENU(response.menu))\nresponse.write(\' -->\\r\\n  <!-- </div> -->\\r\\n  <!-- end #menu -->\\r\\n  \\r\\n  <div id="page">\\r\\n   <div id="content">\\r\\n     <div id="main">\\r\\n        <div class="flash">\', escape=False)\nresponse.write(response.flash or \'\')\nresponse.write(\'</div> \\r\\n       \', escape=False)\nresponse.write(\'\\r\\n<h1>\', escape=False)\nresponse.write(person.name)\nresponse.write(\'</h1>\\r\\n<h2>\', escape=False)\nresponse.write(person.role)\nresponse.write(\' at \', escape=False)\nresponse.write(link_company(person.company))\nresponse.write(\'</a></h2>\\r\\n\\r\\n\', escape=False)\nresponse.write(button(\'edit\',\'edit_person\',person.id))\nresponse.write(\'\\r\\n\', escape=False)\nresponse.write(button(\'logs\',\'list_logs\',person.id))\nresponse.write(\'\\r\\n\', escape=False)\nresponse.write(button(\'docs\',\'list_docs\',person.id))\nresponse.write(\'\\r\\n\', escape=False)\nresponse.write(button(\'tasks\',\'list_tasks\',person.id))\nresponse.write(\'\\r\\n\\r\\n\', escape=False)\nresponse.write(crud.read(db.person,person))\nresponse.write(\'\\r\\n\\r\\n\', escape=False)\nresponse.write(tag(\'person\',person.id))\nresponse.write(\'\\r\\n\', escape=False)\nresponse.write(\'\\r\\n     </div>\\r\\n   </div>\\r\\n   \\r\\n   <!-- end content -->\\r\\n   <!-- \', escape=False)\nleft_sidebar_enabled=True,right_sidebar_enabled=False,(\'message\' in globals())\nresponse.write(\' -->\\r\\n<nav class="main">\\r\\n     <!--<div class="ez-box" id="left_sidebar"> -->\\r\\n            \', escape=False)\nresponse.write(\'\\r\\n                \', escape=False)\nresponse.write(MENU(response.menu,_class=\'level1\'))\nresponse.write(\'\\r\\n            \', escape=False)\nresponse.write(\'    \\r\\n            <!--</div> -->\\r\\n\\r\\n</nav>\\t\\r\\n\\r\\n\\r\\n<div id="container">\\r\\n    <hgroup id="login-title" class="large-margin-bottom">\\r\\n        <h1 class="login-title-image">Developr</h1>\\r\\n    </hgroup>\\r\\n\\r\\n\\r\\n  <div class="box fl-panel" id="login">\\r\\n\\t\\t\\t<form id="fm1" class="fm-v clearfix" action="/cas/login?service=https%3A%2F%2Fdev03.addfinwealth.com%2Findex.php%3Fmodule%3DAccounts%26action%3Dindex" method="post">\\r\\n\\t\\t\\t\\r\\n\\t\\t\\t\\t<!-- Displaying error messages -->\\r\\n\\t\\t\\t\\t\\r\\n\\t\\t\\t\\t        \\r\\n\\t                   \\r\\n                <ul class="inputs black-input large">\\r\\n\\t\\t\\t\\t\\t<!-- The autocomplete="off" attributes is the only way to prevent webkit browsers from filling the inputs with yellow -->\\r\\n                    \\r\\n\\t\\t\\t\\t\\t\\t\\t\\t\\t\\r\\n\\t\\t\\t\\t\\t\\t\\r\\n\\t\\t\\t\\t\\t\\t<li>\\r\\n\\t\\t\\t\\t\\t\\t\\t<span class="icon-user mid-margin-right"></span>\\r\\n\\t\\t\\t\\t\\t\\t\\t<input id="username" name="username" class="input-unstyled" tabindex="1" placeholder="Login" accesskey="u" type="text" value="" size="25" autocomplete="false"/>\\r\\n\\t\\t\\t\\t\\t\\t</li>\\r\\n\\t\\t\\t\\t\\t\\t\\r\\n\\t\\t\\t\\t\\t\\t\\r\\n\\t\\t\\t\\t\\t<li>\\r\\n\\t\\t\\t\\t\\t\\r\\n                        <span class="icon-lock mid-margin-right"></span>\\r\\n\\t\\t\\t\\t\\t\\t\\r\\n\\t\\t\\t\\t\\t\\t\\r\\n\\t\\t\\t\\t\\t\\t<input id="password" name="password" class="input-unstyled" tabindex="2" placeholder="Password" class="input-unstyled" accesskey="p" type="password" value="" size="25" autocomplete="off"/>\\r\\n                    \\r\\n                    </li>\\r\\n\\t\\t\\t\\t</ul>\\r\\n                    \\r\\n                    <div class="row btn-row">\\r\\n\\t\\t\\t\\t\\t\\t<input type="hidden" name="lt" value="LT-3251-cGocNHlgHCx7mErA0xr4MVecMrxpu9" />\\r\\n\\t\\t\\t\\t\\t\\t<input type="hidden" name="execution" value="e1s1" />\\r\\n\\t\\t\\t\\t\\t\\t<input type="hidden" name="_eventId" value="submit" />\\r\\n\\r\\n                        <input class="button glossy full-width huge" name="submit" accesskey="l" value="LOGIN" tabindex="4" type="submit" />\\r\\n                        \\r\\n            </form>\\r\\n          </div>\\r\\n          \\r\\n</div><!-- end container -->\\r\\n\\r\\n\\t\\t\\r\\n\\t\\t<script src="js/jquery/jquery-1.7.2.js"></script>\\r\\n\\t\\t<script src="js/setup.js"></script>\\r\\n\\t\\t\\t\\r\\n        <!-- This script gives blue border around form on focus and needs setup.js, jquery-1.7.2.js and modernizr.custom.js -->\\r\\n\\t\\t<script src="js/developr.input.js"></script>\\r\\n\\t\\t\\r\\n        <script type="text/javascript" src="/cas/js/cas.js"></script>\\r\\n        \\r\\n    </body>\\r\\n</html>\\r\\n\\r\\n\\r\\n\\r\\n\', escape=False)'
p7
sS'snapshot'
p8
(dp9
S'exception'
p10
(dp11
S'__hash__'
p12
S"<method-wrapper '__hash__' of exceptions.NameError object>"
p13
sS'__setattr__'
p14
S"<method-wrapper '__setattr__' of exceptions.NameError object>"
p15
sS'__reduce_ex__'
p16
S'<built-in method __reduce_ex__ of exceptions.NameError object>'
p17
sS'__getslice__'
p18
S"<method-wrapper '__getslice__' of exceptions.NameError object>"
p19
sS'__getitem__'
p20
S"<method-wrapper '__getitem__' of exceptions.NameError object>"
p21
sS'__setstate__'
p22
S'<built-in method __setstate__ of exceptions.NameError object>'
p23
sS'__reduce__'
p24
S'<built-in method __reduce__ of exceptions.NameError object>'
p25
sS'__str__'
p26
S"<method-wrapper '__str__' of exceptions.NameError object>"
p27
sS'__format__'
p28
S'<built-in method __format__ of exceptions.NameError object>'
p29
sS'__getattribute__'
p30
S"<method-wrapper '__getattribute__' of exceptions.NameError object>"
p31
sS'__class__'
p32
S"<type 'exceptions.NameError'>"
p33
sS'__unicode__'
p34
S'<built-in method __unicode__ of exceptions.NameError object>'
p35
sS'__delattr__'
p36
S"<method-wrapper '__delattr__' of exceptions.NameError object>"
p37
sS'__subclasshook__'
p38
S'<built-in method __subclasshook__ of type object>'
p39
sS'__repr__'
p40
S"<method-wrapper '__repr__' of exceptions.NameError object>"
p41
sS'args'
p42
S'("name \'person\' is not defined",)'
p43
sS'__dict__'
p44
S'{}'
p45
sS'__sizeof__'
p46
S'<built-in method __sizeof__ of exceptions.NameError object>'
p47
sS'__doc__'
p48
S"'Name not found globally.'"
p49
sS'__init__'
p50
S"<method-wrapper '__init__' of exceptions.NameError object>"
p51
sS'__new__'
p52
S'<built-in method __new__ of type object>'
p53
ssS'evalue'
p54
S"name 'person' is not defined"
p55
sS'request'
p56
cgluon.html
XML_unpickle
p57
(S'se]\x00\x00<div><table><tr><td style="font-weight:bold;vertical-align:top;">ajax</td><td style="vertical-align:top;">:</td><td><div>False</div></td></tr><tr><td style="font-weight:bold;vertical-align:top;">application</td><td style="vertical-align:top;">:</td><td><div>CRMwStyle</div></td></tr><tr><td style="font-weight:bold;vertical-align:top;">args</td><td style="vertical-align:top;">:</td><td><div><table></table></div></td></tr><tr><td style="font-weight:bold;vertical-align:top;">cid</td><td style="vertical-align:top;">:</td><td><div>None</div></td></tr><tr><td style="font-weight:bold;vertical-align:top;">client</td><td style="vertical-align:top;">:</td><td><div>127.0.0.1</div></td></tr><tr><td style="font-weight:bold;vertical-align:top;">controller</td><td style="vertical-align:top;">:</td><td><div>default</div></td></tr><tr><td style="font-weight:bold;vertical-align:top;">cookies</td><td style="vertical-align:top;">:</td><td><div><table><tr><td style="font-weight:bold;vertical-align:top;">session_id_admin</td><td style="vertical-align:top;">:</td><td><div>127.0.0.1-eaf0aadb-4a71-411b-88c1-6f44a032e2d4<table><tr><td style="font-weight:bold;vertical-align:top;">comment</td><td style="vertical-align:top;">:</td><td><div></div></td></tr><tr><td style="font-weight:bold;vertical-align:top;">domain</td><td style="vertical-align:top;">:</td><td><div></div></td></tr><tr><td style="font-weight:bold;vertical-align:top;">expires</td><td style="vertical-align:top;">:</td><td><div></div></td></tr><tr><td style="font-weight:bold;vertical-align:top;">httponly</td><td style="vertical-align:top;">:</td><td><div></div></td></tr><tr><td style="font-weight:bold;vertical-align:top;">max-age</td><td style="vertical-align:top;">:</td><td><div></div></td></tr><tr><td style="font-weight:bold;vertical-align:top;">path</td><td style="vertical-align:top;">:</td><td><div></div></td></tr><tr><td style="font-weight:bold;vertical-align:top;">secure</td><td style="vertical-align:top;">:</td><td><div></div></td></tr><tr><td style="font-weight:bold;vertical-align:top;">version</td><td style="vertical-align:top;">:</td><td><div></div></td></tr></table></div></td></tr><tr><td style="font-weight:bold;vertical-align:top;">session_id_crmwstyle</td><td style="vertical-align:top;">:</td><td><div>127.0.0.1-d3f5a0dc-a6ef-49ae-a8b5-a46a2009bbef<table><tr><td style="font-weight:bold;vertical-align:top;">comment</td><td style="vertical-align:top;">:</td><td><div></div></td></tr><tr><td style="font-weight:bold;vertical-align:top;">domain</td><td style="vertical-align:top;">:</td><td><div></div></td></tr><tr><td style="font-weight:bold;vertical-align:top;">expires</td><td style="vertical-align:top;">:</td><td><div></div></td></tr><tr><td style="font-weight:bold;vertical-align:top;">httponly</td><td style="vertical-align:top;">:</td><td><div></div></td></tr><tr><td style="font-weight:bold;vertical-align:top;">max-age</td><td style="vertical-align:top;">:</td><td><div></div></td></tr><tr><td style="font-weight:bold;vertical-align:top;">path</td><td style="vertical-align:top;">:</td><td><div></div></td></tr><tr><td style="font-weight:bold;vertical-align:top;">secure</td><td style="vertical-align:top;">:</td><td><div></div></td></tr><tr><td style="font-weight:bold;vertical-align:top;">version</td><td style="vertical-align:top;">:</td><td><div></div></td></tr></table></div></td></tr><tr><td style="font-weight:bold;vertical-align:top;">session_id_welcome</td><td style="vertical-align:top;">:</td><td><div>127.0.0.1-2cc084a5-c0d5-4a98-9139-d50d73df7c3e<table><tr><td style="font-weight:bold;vertical-align:top;">comment</td><td style="vertical-align:top;">:</td><td><div></div></td></tr><tr><td style="font-weight:bold;vertical-align:top;">domain</td><td style="vertical-align:top;">:</td><td><div></div></td></tr><tr><td style="font-weight:bold;vertical-align:top;">expires</td><td style="vertical-align:top;">:</td><td><div></div></td></tr><tr><td style="font-weight:bold;vertical-align:top;">httponly</td><td style="vertical-align:top;">:</td><td><div></div></td></tr><tr><td style="font-weight:bold;vertical-align:top;">max-age</td><td style="vertical-align:top;">:</td><td><div></div></td></tr><tr><td style="font-weight:bold;vertical-align:top;">path</td><td style="vertical-align:top;">:</td><td><div></div></td></tr><tr><td style="font-weight:bold;vertical-align:top;">secure</td><td style="vertical-align:top;">:</td><td><div></div></td></tr><tr><td style="font-weight:bold;vertical-align:top;">version</td><td style="vertical-align:top;">:</td><td><div></div></td></tr></table></div></td></tr></table></div></td></tr><tr><td style="font-weight:bold;vertical-align:top;">env</td><td style="vertical-align:top;">:</td><td><div><table><tr><td style="font-weight:bold;vertical-align:top;">HTTP_ACCEPT</td><td style="vertical-align:top;">:</td><td><div>text/html,application/xhtml+xml,application/xml;q=0.9,image/webp,*/*;q=0.8</div></td></tr><tr><td style="font-weight:bold;vertical-align:top;">HTTP_ACCEPT_ENCODING</td><td style="vertical-align:top;">:</td><td><div>gzip, deflate, sdch</div></td></tr><tr><td style="font-weight:bold;vertical-align:top;">HTTP_ACCEPT_LANGUAGE</td><td style="vertical-align:top;">:</td><td><div>en-US,en;q=0.8,de-DE;q=0.6,de;q=0.4</div></td></tr><tr><td style="font-weight:bold;vertical-align:top;">HTTP_CONNECTION</td><td style="vertical-align:top;">:</td><td><div>keep-alive</div></td></tr><tr><td style="font-weight:bold;vertical-align:top;">HTTP_COOKIE</td><td style="vertical-align:top;">:</td><td><div>session_id_welcome=127.0.0.1-2cc084a5-c0d5-4a98-9139-d50d73df7c3e; session_id_admin=127.0.0.1-eaf0aadb-4a71-411b-88c1-6f44a032e2d4; session_id_crmwstyle=127.0.0.1-d3f5a0dc-a6ef-49ae-a8b5-a46a2009bbef</div></td></tr><tr><td style="font-weight:bold;vertical-align:top;">HTTP_HOST</td><td style="vertical-align:top;">:</td><td><div>127.0.0.1:8000</div></td></tr><tr><td style="font-weight:bold;vertical-align:top;">HTTP_UPGRADE_INSECURE_REQUESTS</td><td style="vertical-align:top;">:</td><td><div>1</div></td></tr><tr><td style="font-weight:bold;vertical-align:top;">HTTP_USER_AGENT</td><td style="vertical-align:top;">:</td><td><div>Mozilla/5.0 (Windows NT 10.0; WOW64) AppleWebKit/537.36 (KHTML, like Gecko) Chrome/51.0.2704.84 Safari/537.36</div></td></tr><tr><td style="font-weight:bold;vertical-align:top;">PATH_INFO</td><td style="vertical-align:top;">:</td><td><div>/CRMwStyle/default/view_vqfforms</div></td></tr><tr><td style="font-weight:bold;vertical-align:top;">QUERY_STRING</td><td style="vertical-align:top;">:</td><td><div></div></td></tr><tr><td style="font-weight:bold;vertical-align:top;">REMOTE_ADDR</td><td style="vertical-align:top;">:</td><td><div>127.0.0.1</div></td></tr><tr><td style="font-weight:bold;vertical-align:top;">REMOTE_PORT</td><td style="vertical-align:top;">:</td><td><div>53639</div></td></tr><tr><td style="font-weight:bold;vertical-align:top;">REQUEST_METHOD</td><td style="vertical-align:top;">:</td><td><div>GET</div></td></tr><tr><td style="font-weight:bold;vertical-align:top;">SCRIPT_NAME</td><td style="vertical-align:top;">:</td><td><div></div></td></tr><tr><td style="font-weight:bold;vertical-align:top;">SERVER_NAME</td><td style="vertical-align:top;">:</td><td><div>base03</div></td></tr><tr><td style="font-weight:bold;vertical-align:top;">SERVER_PORT</td><td style="vertical-align:top;">:</td><td><div>8000</div></td></tr><tr><td style="font-weight:bold;vertical-align:top;">SERVER_PROTOCOL</td><td style="vertical-align:top;">:</td><td><div>HTTP/1.1</div></td></tr><tr><td style="font-weight:bold;vertical-align:top;">SERVER_SOFTWARE</td><td style="vertical-align:top;">:</td><td><div>Rocket 1.2.6</div></td></tr><tr><td style="font-weight:bold;vertical-align:top;">app_folders</td><td style="vertical-align:top;">:</td><td><div>set([&#x27;C:\\\\GITWEBPY\\\\WEBPY\\\\web2py\\\\applications\\\\admin\\\\&#x27;, &#x27;C:\\\\GITWEBPY\\\\WEBPY\\\\web2py\\\\applications\\\\welcome\\\\&#x27;, &#x27;C:\\\\GITWEBPY\\\\WEBPY\\\\web2py\\\\applications\\\\CRMwStyle\\\\&#x27;])</div></td></tr><tr><td style="font-weight:bold;vertical-align:top;">applications_parent</td><td style="vertical-align:top;">:</td><td><div>C:\\GITWEBPY\\WEBPY\\web2py</div></td></tr><tr><td style="font-weight:bold;vertical-align:top;">cmd_args</td><td style="vertical-align:top;">:</td><td><div><table></table></div></td></tr><tr><td style="font-weight:bold;vertical-align:top;">cmd_options</td><td style="vertical-align:top;">:</td><td><div>&lt;Values at 0x2e85878: {&#x27;verbose&#x27;: False, &#x27;ip&#x27;: &#x27;127.0.0.1&#x27;, &#x27;debuglevel&#x27;: 30, &#x27;with_scheduler&#x27;: False, &#x27;ips&#x27;: [&#x27;2001:0:9d38:90d7:2cd8:72ed:2be8:1dfb&#x27;, &#x27;192.168.8.195&#x27;, &#x27;fe80::2cd8:72ed:2be8:1dfb%3&#x27;, &#x27;fe80::f42d:de1:215e:ed16%11&#x27;], &#x27;shutdown_timeout&#x27;: 5, &#x27;taskbar&#x27;: False, &#x27;with_coverage&#x27;: False, &#x27;scheduler_groups&#x27;: None, &#x27;port&#x27;: 8000, &#x27;maxthreads&#x27;: None, &#x27;softcron&#x27;: False, &#x27;server_name&#x27;: &#x27;base03&#x27;, &#x27;bpython&#x27;: False, &#x27;nogui&#x27;: False, &#x27;pid_filename&#x27;: &#x27;httpserver.pid&#x27;, &#x27;print_errors&#x27;: False, &#x27;extcron&#x27;: False, &#x27;runcron&#x27;: False, &#x27;run_system_tests&#x27;: False, &#x27;test&#x27;: None, &#x27;folder&#x27;: &#x27;C:\\\\GITWEBPY\\\\WEBPY\\\\web2py&#x27;, &#x27;config&#x27;: &#x27;&#x27;, &#x27;minthreads&#x27;: None, &#x27;shell&#x27;: None, &#x27;run&#x27;: &#x27;&#x27;, &#x27;log_filename&#x27;: &#x27;httpserver.log&#x27;, &#x27;profiler_dir&#x27;: None, &#x27;args&#x27;: [&#x27;&#x27;], &#x27;socket_timeout&#x27;: 5, &#x27;ssl_ca_certificate&#x27;: None, &#x27;scheduler&#x27;: None, &#x27;interfaces&#x27;: None, &#x27;ssl_private_key&#x27;: &#x27;&#x27;, &#x27;gae&#x27;: None, &#x27;password&#x27;: &#x27;&lt;ask&gt;&#x27;, &#x27;request_queue_size&#x27;: 5, &#x27;ssl_certificate&#x27;: &#x27;&#x27;, &#x27;cronjob&#x27;: False, &#x27;numthreads&#x27;: None, &#x27;quiet&#x27;: False, &#x27;import_models&#x27;: False, &#x27;timeout&#x27;: 10, &#x27;plain&#x27;: False, &#x27;nobanner&#x27;: False}&gt;</div></td></tr><tr><td style="font-weight:bold;vertical-align:top;">db_sessions</td><td style="vertical-align:top;">:</td><td><div>set([])</div></td></tr><tr><td style="font-weight:bold;vertical-align:top;">debugging</td><td style="vertical-align:top;">:</td><td><div>False</div></td></tr><tr><td style="font-weight:bold;vertical-align:top;">gluon_parent</td><td style="vertical-align:top;">:</td><td><div>C:\\GITWEBPY\\WEBPY\\web2py</div></td></tr><tr><td style="font-weight:bold;vertical-align:top;">http_accept</td><td style="vertical-align:top;">:</td><td><div>text/html,application/xhtml+xml,application/xml;q=0.9,image/webp,*/*;q=0.8</div></td></tr><tr><td style="font-weight:bold;vertical-align:top;">http_accept_encoding</td><td style="vertical-align:top;">:</td><td><div>gzip, deflate, sdch</div></td></tr><tr><td style="font-weight:bold;vertical-align:top;">http_accept_language</td><td style="vertical-align:top;">:</td><td><div>en-US,en;q=0.8,de-DE;q=0.6,de;q=0.4</div></td></tr><tr><td style="font-weight:bold;vertical-align:top;">http_connection</td><td style="vertical-align:top;">:</td><td><div>keep-alive</div></td></tr><tr><td style="font-weight:bold;vertical-align:top;">http_cookie</td><td style="vertical-align:top;">:</td><td><div>session_id_welcome=127.0.0.1-2cc084a5-c0d5-4a98-9139-d50d73df7c3e; session_id_admin=127.0.0.1-eaf0aadb-4a71-411b-88c1-6f44a032e2d4; session_id_crmwstyle=127.0.0.1-d3f5a0dc-a6ef-49ae-a8b5-a46a2009bbef</div></td></tr><tr><td style="font-weight:bold;vertical-align:top;">http_host</td><td style="vertical-align:top;">:</td><td><div>127.0.0.1:8000</div></td></tr><tr><td style="font-weight:bold;vertical-align:top;">http_upgrade_insecure_requests</td><td style="vertical-align:top;">:</td><td><div>1</div></td></tr><tr><td style="font-weight:bold;vertical-align:top;">http_user_agent</td><td style="vertical-align:top;">:</td><td><div>Mozilla/5.0 (Windows NT 10.0; WOW64) AppleWebKit/537.36 (KHTML, like Gecko) Chrome/51.0.2704.84 Safari/537.36</div></td></tr><tr><td style="font-weight:bold;vertical-align:top;">is_jython</td><td style="vertical-align:top;">:</td><td><div>False</div></td></tr><tr><td style="font-weight:bold;vertical-align:top;">is_pypy</td><td style="vertical-align:top;">:</td><td><div>False</div></td></tr><tr><td style="font-weight:bold;vertical-align:top;">is_source</td><td style="vertical-align:top;">:</td><td><div>False</div></td></tr><tr><td style="font-weight:bold;vertical-align:top;">local_hosts</td><td style="vertical-align:top;">:</td><td><div><table><tr><td><div>2001:0:9d38:90d7:2cd8:72ed:2be8:1dfb</div></td></tr><tr><td><div>fe80::f42d:de1:215e:ed16%11</div></td></tr><tr><td><div>base03</div></td></tr><tr><td><div>::ffff:127.0.0.1</div></td></tr><tr><td><div>::1</div></td></tr><tr><td><div>192.168.8.195</div></td></tr><tr><td><div>fe80::2cd8:72ed:2be8:1dfb%3</div></td></tr><tr><td><div>127.0.0.1</div></td></tr></table></div></td></tr><tr><td style="font-weight:bold;vertical-align:top;">path_info</td><td style="vertical-align:top;">:</td><td><div>/CRMwStyle/default/view_vqfforms</div></td></tr><tr><td style="font-weight:bold;vertical-align:top;">query_string</td><td style="vertical-align:top;">:</td><td><div></div></td></tr><tr><td style="font-weight:bold;vertical-align:top;">remote_addr</td><td style="vertical-align:top;">:</td><td><div>127.0.0.1</div></td></tr><tr><td style="font-weight:bold;vertical-align:top;">remote_port</td><td style="vertical-align:top;">:</td><td><div>53639</div></td></tr><tr><td style="font-weight:bold;vertical-align:top;">request_method</td><td style="vertical-align:top;">:</td><td><div>GET</div></td></tr><tr><td style="font-weight:bold;vertical-align:top;">request_uri</td><td style="vertical-align:top;">:</td><td><div>/CRMwStyle/default/view_vqfforms</div></td></tr><tr><td style="font-weight:bold;vertical-align:top;">script_name</td><td style="vertical-align:top;">:</td><td><div></div></td></tr><tr><td style="font-weight:bold;vertical-align:top;">server_name</td><td style="vertical-align:top;">:</td><td><div>base03</div></td></tr><tr><td style="font-weight:bold;vertical-align:top;">server_port</td><td style="vertical-align:top;">:</td><td><div>8000</div></td></tr><tr><td style="font-weight:bold;vertical-align:top;">server_protocol</td><td style="vertical-align:top;">:</td><td><div>HTTP/1.1</div></td></tr><tr><td style="font-weight:bold;vertical-align:top;">server_software</td><td style="vertical-align:top;">:</td><td><div>Rocket 1.2.6</div></td></tr><tr><td style="font-weight:bold;vertical-align:top;">web2py_path</td><td style="vertical-align:top;">:</td><td><div>C:\\GITWEBPY\\WEBPY\\web2py</div></td></tr><tr><td style="font-weight:bold;vertical-align:top;">web2py_version</td><td style="vertical-align:top;">:</td><td><div>2.13.4-stable+timestamp.2015.12.26.04.59.39</div></td></tr><tr><td style="font-weight:bold;vertical-align:top;">wsgi.errors</td><td style="vertical-align:top;">:</td><td><div>&lt;open file &#x27;&lt;stderr&gt;&#x27;, mode &#x27;w&#x27; at 0x0217D0D0&gt;</div></td></tr><tr><td style="font-weight:bold;vertical-align:top;">wsgi.file_wrapper</td><td style="vertical-align:top;">:</td><td><div>&lt;class wsgiref.util.FileWrapper at 0x032151B8&gt;</div></td></tr><tr><td style="font-weight:bold;vertical-align:top;">wsgi.input</td><td style="vertical-align:top;">:</td><td><div>&lt;socket._fileobject object at 0x03B9FD30&gt;</div></td></tr><tr><td style="font-weight:bold;vertical-align:top;">wsgi.multiprocess</td><td style="vertical-align:top;">:</td><td><div>False</div></td></tr><tr><td style="font-weight:bold;vertical-align:top;">wsgi.multithread</td><td style="vertical-align:top;">:</td><td><div>True</div></td></tr><tr><td style="font-weight:bold;vertical-align:top;">wsgi.run_once</td><td style="vertical-align:top;">:</td><td><div>False</div></td></tr><tr><td style="font-weight:bold;vertical-align:top;">wsgi.url_scheme</td><td style="vertical-align:top;">:</td><td><div>http</div></td></tr><tr><td style="font-weight:bold;vertical-align:top;">wsgi.version</td><td style="vertical-align:top;">:</td><td><div><table><tr><td><div>1</div></td></tr><tr><td><div>0</div></td></tr></table></div></td></tr><tr><td style="font-weight:bold;vertical-align:top;">wsgi_errors</td><td style="vertical-align:top;">:</td><td><div>&lt;open file &#x27;&lt;stderr&gt;&#x27;, mode &#x27;w&#x27; at 0x0217D0D0&gt;</div></td></tr><tr><td style="font-weight:bold;vertical-align:top;">wsgi_file_wrapper</td><td style="vertical-align:top;">:</td><td><div>&lt;class wsgiref.util.FileWrapper at 0x032151B8&gt;</div></td></tr><tr><td style="font-weight:bold;vertical-align:top;">wsgi_input</td><td style="vertical-align:top;">:</td><td><div>&lt;socket._fileobject object at 0x03B9FD30&gt;</div></td></tr><tr><td style="font-weight:bold;vertical-align:top;">wsgi_multiprocess</td><td style="vertical-align:top;">:</td><td><div>False</div></td></tr><tr><td style="font-weight:bold;vertical-align:top;">wsgi_multithread</td><td style="vertical-align:top;">:</td><td><div>True</div></td></tr><tr><td style="font-weight:bold;vertical-align:top;">wsgi_run_once</td><td style="vertical-align:top;">:</td><td><div>False</div></td></tr><tr><td style="font-weight:bold;vertical-align:top;">wsgi_url_scheme</td><td style="vertical-align:top;">:</td><td><div>http</div></td></tr><tr><td style="font-weight:bold;vertical-align:top;">wsgi_version</td><td style="vertical-align:top;">:</td><td><div><table><tr><td><div>1</div></td></tr><tr><td><div>0</div></td></tr></table></div></td></tr></table></div></td></tr><tr><td style="font-weight:bold;vertical-align:top;">extension</td><td style="vertical-align:top;">:</td><td><div>html</div></td></tr><tr><td style="font-weight:bold;vertical-align:top;">folder</td><td style="vertical-align:top;">:</td><td><div>C:\\GITWEBPY\\WEBPY\\web2py\\applications\\CRMwStyle\\</div></td></tr><tr><td style="font-weight:bold;vertical-align:top;">function</td><td style="vertical-align:top;">:</td><td><div>view_vqfforms</div></td></tr><tr><td style="font-weight:bold;vertical-align:top;">global_settings</td><td style="vertical-align:top;">:</td><td><div><table><tr><td style="font-weight:bold;vertical-align:top;">app_folders</td><td style="vertical-align:top;">:</td><td><div>set([&#x27;C:\\\\GITWEBPY\\\\WEBPY\\\\web2py\\\\applications\\\\admin\\\\&#x27;, &#x27;C:\\\\GITWEBPY\\\\WEBPY\\\\web2py\\\\applications\\\\welcome\\\\&#x27;, &#x27;C:\\\\GITWEBPY\\\\WEBPY\\\\web2py\\\\applications\\\\CRMwStyle\\\\&#x27;])</div></td></tr><tr><td style="font-weight:bold;vertical-align:top;">applications_parent</td><td style="vertical-align:top;">:</td><td><div>C:\\GITWEBPY\\WEBPY\\web2py</div></td></tr><tr><td style="font-weight:bold;vertical-align:top;">cmd_args</td><td style="vertical-align:top;">:</td><td><div><table></table></div></td></tr><tr><td style="font-weight:bold;vertical-align:top;">cmd_options</td><td style="vertical-align:top;">:</td><td><div>&lt;Values at 0x2e85878: {&#x27;verbose&#x27;: False, &#x27;ip&#x27;: &#x27;127.0.0.1&#x27;, &#x27;debuglevel&#x27;: 30, &#x27;with_scheduler&#x27;: False, &#x27;ips&#x27;: [&#x27;2001:0:9d38:90d7:2cd8:72ed:2be8:1dfb&#x27;, &#x27;192.168.8.195&#x27;, &#x27;fe80::2cd8:72ed:2be8:1dfb%3&#x27;, &#x27;fe80::f42d:de1:215e:ed16%11&#x27;], &#x27;shutdown_timeout&#x27;: 5, &#x27;taskbar&#x27;: False, &#x27;with_coverage&#x27;: False, &#x27;scheduler_groups&#x27;: None, &#x27;port&#x27;: 8000, &#x27;maxthreads&#x27;: None, &#x27;softcron&#x27;: False, &#x27;server_name&#x27;: &#x27;base03&#x27;, &#x27;bpython&#x27;: False, &#x27;nogui&#x27;: False, &#x27;pid_filename&#x27;: &#x27;httpserver.pid&#x27;, &#x27;print_errors&#x27;: False, &#x27;extcron&#x27;: False, &#x27;runcron&#x27;: False, &#x27;run_system_tests&#x27;: False, &#x27;test&#x27;: None, &#x27;folder&#x27;: &#x27;C:\\\\GITWEBPY\\\\WEBPY\\\\web2py&#x27;, &#x27;config&#x27;: &#x27;&#x27;, &#x27;minthreads&#x27;: None, &#x27;shell&#x27;: None, &#x27;run&#x27;: &#x27;&#x27;, &#x27;log_filename&#x27;: &#x27;httpserver.log&#x27;, &#x27;profiler_dir&#x27;: None, &#x27;args&#x27;: [&#x27;&#x27;], &#x27;socket_timeout&#x27;: 5, &#x27;ssl_ca_certificate&#x27;: None, &#x27;scheduler&#x27;: None, &#x27;interfaces&#x27;: None, &#x27;ssl_private_key&#x27;: &#x27;&#x27;, &#x27;gae&#x27;: None, &#x27;password&#x27;: &#x27;&lt;ask&gt;&#x27;, &#x27;request_queue_size&#x27;: 5, &#x27;ssl_certificate&#x27;: &#x27;&#x27;, &#x27;cronjob&#x27;: False, &#x27;numthreads&#x27;: None, &#x27;quiet&#x27;: False, &#x27;import_models&#x27;: False, &#x27;timeout&#x27;: 10, &#x27;plain&#x27;: False, &#x27;nobanner&#x27;: False}&gt;</div></td></tr><tr><td style="font-weight:bold;vertical-align:top;">db_sessions</td><td style="vertical-align:top;">:</td><td><div>set([])</div></td></tr><tr><td style="font-weight:bold;vertical-align:top;">debugging</td><td style="vertical-align:top;">:</td><td><div>False</div></td></tr><tr><td style="font-weight:bold;vertical-align:top;">gluon_parent</td><td style="vertical-align:top;">:</td><td><div>C:\\GITWEBPY\\WEBPY\\web2py</div></td></tr><tr><td style="font-weight:bold;vertical-align:top;">is_jython</td><td style="vertical-align:top;">:</td><td><div>False</div></td></tr><tr><td style="font-weight:bold;vertical-align:top;">is_pypy</td><td style="vertical-align:top;">:</td><td><div>False</div></td></tr><tr><td style="font-weight:bold;vertical-align:top;">is_source</td><td style="vertical-align:top;">:</td><td><div>False</div></td></tr><tr><td style="font-weight:bold;vertical-align:top;">local_hosts</td><td style="vertical-align:top;">:</td><td><div><table><tr><td><div>2001:0:9d38:90d7:2cd8:72ed:2be8:1dfb</div></td></tr><tr><td><div>fe80::f42d:de1:215e:ed16%11</div></td></tr><tr><td><div>base03</div></td></tr><tr><td><div>::ffff:127.0.0.1</div></td></tr><tr><td><div>::1</div></td></tr><tr><td><div>192.168.8.195</div></td></tr><tr><td><div>fe80::2cd8:72ed:2be8:1dfb%3</div></td></tr><tr><td><div>127.0.0.1</div></td></tr></table></div></td></tr><tr><td style="font-weight:bold;vertical-align:top;">web2py_version</td><td style="vertical-align:top;">:</td><td><div>2.13.4-stable+timestamp.2015.12.26.04.59.39</div></td></tr></table></div></td></tr><tr><td style="font-weight:bold;vertical-align:top;">is_https</td><td style="vertical-align:top;">:</td><td><div>False</div></td></tr><tr><td style="font-weight:bold;vertical-align:top;">is_local</td><td style="vertical-align:top;">:</td><td><div>True</div></td></tr><tr><td style="font-weight:bold;vertical-align:top;">is_restful</td><td style="vertical-align:top;">:</td><td><div>False</div></td></tr><tr><td style="font-weight:bold;vertical-align:top;">is_scheduler</td><td style="vertical-align:top;">:</td><td><div>False</div></td></tr><tr><td style="font-weight:bold;vertical-align:top;">is_shell</td><td style="vertical-align:top;">:</td><td><div>False</div></td></tr><tr><td style="font-weight:bold;vertical-align:top;">now</td><td style="vertical-align:top;">:</td><td><div>datetime.datetime(2016, 6, 13, 13, 3, 19, 681000)</div></td></tr><tr><td style="font-weight:bold;vertical-align:top;">raw_args</td><td style="vertical-align:top;">:</td><td><div></div></td></tr><tr><td style="font-weight:bold;vertical-align:top;">raw_extension</td><td style="vertical-align:top;">:</td><td><div>None</div></td></tr><tr><td style="font-weight:bold;vertical-align:top;">url</td><td style="vertical-align:top;">:</td><td><div>/CRMwStyle/default/view_vqfforms</div></td></tr><tr><td style="font-weight:bold;vertical-align:top;">utcnow</td><td style="vertical-align:top;">:</td><td><div>datetime.datetime(2016, 6, 13, 11, 3, 19, 681000)</div></td></tr><tr><td style="font-weight:bold;vertical-align:top;">wsgi</td><td style="vertical-align:top;">:</td><td><div>&lt;gluon.main.LazyWSGI object at 0x04080CF0&gt;</div></td></tr></table></div>'
tRp58
sS'frames'
p59
(lp60
(dp61
S'file'
p62
S'C:\\GITWEBPY\\WEBPY\\web2py\\gluon\\restricted.py'
p63
sS'dump'
p64
(dp65
S'environment'
p66
S"{'A': <class 'gluon.html.A'>, 'ANY_OF': <class 'gluon.validators.ANY_OF'>, 'ASSIGNJS': <function ASSIGNJS>, 'Auth': <class 'gluon.tools.Auth'>, 'B': <class 'gluon.html.B'>, 'BEAUTIFY': <class 'gluon.html.BEAUTIFY'>, 'BODY': <class 'gluon.html.BODY'>, 'BR': <class 'gluon.html.BR'>, 'BUTTON': <class 'gluon.html.BUTTON'>, 'CAT': <class 'gluon.html.CAT'>, ...}"
p67
sS'ccode'
p68
S'<code object <module> at 03F079B0, file "C:\\GITW...wStyle\\views\\default/view_vqfforms.html", line 1>'
p69
ssS'lnum'
p70
I227
sS'lines'
p71
(dp72
I224
S'            ccode = code'
p73
sI225
S'        else:'
p74
sI226
S'            ccode = compile2(code, layer)'
p75
sI227
S'        exec ccode in environment'
p76
sI228
S'    except HTTP:'
p77
sI229
S'        raise'
p78
sI230
S'    except RestrictedError:'
p79
sI231
S'        # do not encapsulate (obfuscate) the original RestrictedError'
p80
sI222
S'    try:'
p81
sI223
S'        if isinstance(code, types.CodeType):'
p82
ssS'call'
p83
S'(code=\'response.write(\\\'<!DOCTYPE html PUBLIC "-//W3C//D.../body>\\\\r\\\\n</html>\\\\r\\\\n\\\\r\\\\n\\\\r\\\\n\\\\r\\\\n\\\', escape=False)\', environment={\'A\': <class \'gluon.html.A\'>, \'ANY_OF\': <class \'gluon.validators.ANY_OF\'>, \'ASSIGNJS\': <function ASSIGNJS>, \'Auth\': <class \'gluon.tools.Auth\'>, \'B\': <class \'gluon.html.B\'>, \'BEAUTIFY\': <class \'gluon.html.BEAUTIFY\'>, \'BODY\': <class \'gluon.html.BODY\'>, \'BR\': <class \'gluon.html.BR\'>, \'BUTTON\': <class \'gluon.html.BUTTON\'>, \'CAT\': <class \'gluon.html.CAT\'>, ...}, layer=r\'C:\\GITWEBPY\\WEBPY\\web2py\\applications\\CRMwStyle\\views\\default/view_vqfforms.html\')'
p84
sS'func'
p85
S'restricted'
p86
sa(dp87
g62
S'C:\\GITWEBPY\\WEBPY\\web2py\\applications\\CRMwStyle\\views\\default\\view_vqfforms.html'
p88
sg64
(dp89
sg70
I82
sg71
(dp90
I73
S"response.write(URL('static','https://fonts.googleapis.com/css?family=Lato:300,400,700'))"
p91
sI74
S'response.write(\'\\t"\\r\\n    <link rel="stylesheet"  type=\\\'text/css\\\' href="\', escape=False)'
p92
sI75
S"response.write(URL('static','https://fonts.googleapis.com/css?family=Oswald:400,700,300'))"
p93
sI76
S'response.write(\'"\\r\\n\\r\\n\\r\\n        <title>ADDFIN &#8211; Central Authentication Service</title>\\r\\n          \\r\\n\\r\\n        <meta http-equiv="Content-Type" content="text/html; charset=UTF-8" />\\r\\n        <link rel="icon" href="/cas/favicon.ico" type="image/x-icon" />\\r\\n        \\r\\n    <!-- FROM LOGIN >>>> -->\\r\\n        \\r\\n    <meta name="HandheldFriendly" content="True">\\r\\n    <meta name="MobileOptimized" content="320">\\r\\n    <meta name="viewport" content="width=device-width, initial-scale=1.0, maximum-scale=1.0, user-scalable=no">\\r\\n    \\r\\n    <!-- For all browsers -->\\r\\n    <link rel="stylesheet" href="css/reset.css?v=1">\\r\\n    <link rel="stylesheet" href="css/style.css?v=1">\\r\\n    <link rel="stylesheet" href="css/colors.css?v=1">\\r\\n    <link rel="stylesheet" media="print" href="css/print.css?v=1">\\r\\n    <!-- For progressively larger displays -->\\r\\n    <link rel="stylesheet" media="only all and (min-width: 480px)" href="css/480.css?v=1">\\r\\n    <link rel="stylesheet" media="only all and (min-width: 768px)" href="css/768.css?v=1">\\r\\n    <link rel="stylesheet" media="only all and (min-width: 992px)" href="css/992.css?v=1">\\r\\n    <link rel="stylesheet" media="only all and (min-width: 1200px)" href="css/1200.css?v=1">\\r\\n    <!-- For Retina displays -->\\r\\n    <link rel="stylesheet" media="only all and (-webkit-min-device-pixel-ratio: 1.5), only screen and (-o-min-device-pixel-ratio: 3/2), only screen and (min-device-pixel-ratio: 1.5)" href="css/2x.css?v=1">\\r\\n\\r\\n    <!-- Additional styles -->\\r\\n    <link rel="stylesheet" href="css/styles/form.css?v=1">\\r\\n\\r\\n    <!-- Login pages styles -->\\r\\n    <link rel="stylesheet" media="screen" href="css/login.css?v=1">\\r\\n    \\r\\n    \\r\\n    <!-- JavaScript at bottom except for Modernizr -->\\r\\n    <script src="js/libs/modernizr.custom.js"></script>\\r\\n    </head>\\r\\n\\t\\r\\n\\t\\r\\n\\t\\r\\n\\t\\r\\n\\t\\r\\n    <body>\\r\\n\\r\\n\\t<header role="banner" id="title-bar">\\r\\n\\t\\t<div class="logo">\\r\\n\\t\\t\\t<div class="quick-access">\\r\\n\\t\\t\\t\\t\\r\\n<div class="quick-access-wrapper">\\r\\n\\t<ul>\\r\\n\\t\\t<li class="create-report disabled">\\r\\n\\t\\t\\t<a href="javascript:void(0)" class="link-iframe">Create a Report</a>\\r\\n\\t\\t</li> \\r\\n</ul>\\r\\n</div>\\t\\t\\r\\n\\t\\r\\n\\t\\r\\n\\t\\r\\n\\t \\r\\n <body>\\r\\n \\r\\n \\r\\n\\r\\n  \\r\\n  \\r\\n  <!-- end #header -->\\r\\n<!-- <div id="menu"> -->\\r\\n   <!-- \', escape=False)'
p94
sI77
S'response.write(MENU(response.menu))'
p95
sI78
S'response.write(\' -->\\r\\n  <!-- </div> -->\\r\\n  <!-- end #menu -->\\r\\n  \\r\\n  <div id="page">\\r\\n   <div id="content">\\r\\n     <div id="main">\\r\\n        <div class="flash">\', escape=False)'
p96
sI79
S"response.write(response.flash or '')"
p97
sI80
S"response.write('</div> \\r\\n       ', escape=False)"
p98
sI81
S"response.write('\\r\\n<h1>', escape=False)"
p99
sI82
S'response.write(person.name)'
p100
sI83
S"response.write('</h1>\\r\\n<h2>', escape=False)"
p101
sI84
S'response.write(person.role)'
p102
sI85
S"response.write(' at ', escape=False)"
p103
sI86
S'response.write(link_company(person.company))'
p104
sI87
S"response.write('</a></h2>\\r\\n\\r\\n', escape=False)"
p105
sI88
S"response.write(button('edit','edit_person',person.id))"
p106
sI89
S"response.write('\\r\\n', escape=False)"
p107
sI90
S"response.write(button('logs','list_logs',person.id))"
p108
sI91
S"response.write('\\r\\n', escape=False)"
p109
sI92
S"response.write(button('docs','list_docs',person.id))"
p110
ssg83
S'()'
p111
sg85
S'<module>'
p112
sasS'pyver'
p113
S'Python 2.7.9: C:\\GITWEBPY\\WEBPY\\web2py\\web2py.exe (prefix: C:\\Python27)'
p114
sS'session'
p115
g57
(S'sH\x01\x00\x00<div><table><tr><td style="font-weight:bold;vertical-align:top;">recent_companies</td><td style="vertical-align:top;">:</td><td><div><table></table></div></td></tr><tr><td style="font-weight:bold;vertical-align:top;">recent_persons</td><td style="vertical-align:top;">:</td><td><div><table></table></div></td></tr></table></div>'
tRp116
sS'etype'
p117
S"<type 'exceptions.NameError'>"
p118
sS'date'
p119
S'Mon Jun 13 13:03:19 2016'
p120
sS'response'
p121
g57
(S's\xe8+\x00\x00<div><table><tr><td style="font-weight:bold;vertical-align:top;">body</td><td style="vertical-align:top;">:</td><td><div>&lt;cStringIO.StringO object at 0x041A9BE0&gt;</div></td></tr><tr><td style="font-weight:bold;vertical-align:top;">cookies</td><td style="vertical-align:top;">:</td><td><div><table><tr><td style="font-weight:bold;vertical-align:top;">session_id_crmwstyle</td><td style="vertical-align:top;">:</td><td><div>127.0.0.1-d3f5a0dc-a6ef-49ae-a8b5-a46a2009bbef<table><tr><td style="font-weight:bold;vertical-align:top;">comment</td><td style="vertical-align:top;">:</td><td><div></div></td></tr><tr><td style="font-weight:bold;vertical-align:top;">domain</td><td style="vertical-align:top;">:</td><td><div></div></td></tr><tr><td style="font-weight:bold;vertical-align:top;">expires</td><td style="vertical-align:top;">:</td><td><div></div></td></tr><tr><td style="font-weight:bold;vertical-align:top;">httponly</td><td style="vertical-align:top;">:</td><td><div></div></td></tr><tr><td style="font-weight:bold;vertical-align:top;">max-age</td><td style="vertical-align:top;">:</td><td><div></div></td></tr><tr><td style="font-weight:bold;vertical-align:top;">path</td><td style="vertical-align:top;">:</td><td><div>/</div></td></tr><tr><td style="font-weight:bold;vertical-align:top;">secure</td><td style="vertical-align:top;">:</td><td><div></div></td></tr><tr><td style="font-weight:bold;vertical-align:top;">version</td><td style="vertical-align:top;">:</td><td><div></div></td></tr></table></div></td></tr></table></div></td></tr><tr><td style="font-weight:bold;vertical-align:top;">delimiters</td><td style="vertical-align:top;">:</td><td><div><table><tr><td><div>{{</div></td></tr><tr><td><div>}}</div></td></tr></table></div></td></tr><tr><td style="font-weight:bold;vertical-align:top;">files</td><td style="vertical-align:top;">:</td><td><div><table><tr><td><div>/CRMwStyle/static/jquery.js</div></td></tr><tr><td><div>/CRMwStyle/static/calendar.css</div></td></tr><tr><td><div>/CRMwStyle/static/calendar.js</div></td></tr><tr><td><div>/CRMwStyle/static/themes/AddfinV3/styles.css</div></td></tr><tr><td><div>/CRMwStyle/static/themes/AddfinV3/style.css</div></td></tr><tr><td><div>/CRMwStyle/static/themes/AddfinV3/jquery.ui.all.css</div></td></tr><tr><td><div>/CRMwStyle/static/themes/AddfinV3/styles.css</div></td></tr><tr><td><div>/CRMwStyle/static/themes/AddfinV3/deprecated.css</div></td></tr><tr><td><div>/CRMwStyle/static/themes/AddfinV3/yui.css</div></td></tr><tr><td><div>/CRMwStyle/static/themes/AddfinV3/base/jquery.ui.accordion.css</div></td></tr><tr><td><div>/CRMwStyle/static/themes/AddfinV3/base/jquery.ui.all.css</div></td></tr><tr><td><div>/CRMwStyle/static/themes/AddfinV3/base/jquery.ui.autocomplete.css</div></td></tr><tr><td><div>/CRMwStyle/static/themes/AddfinV3/base/jquery.ui.base.css</div></td></tr><tr><td><div>/CRMwStyle/static/themes/AddfinV3/base/jquery.ui.button.css</div></td></tr><tr><td><div>/CRMwStyle/static/themes/AddfinV3/base/jquery.ui.core.css</div></td></tr><tr><td><div>/CRMwStyle/static/themes/AddfinV3/base/jquery.ui.datepicker.css</div></td></tr><tr><td><div>/CRMwStyle/static/themes/AddfinV3/base/jquery.ui.dialog.css</div></td></tr><tr><td><div>/CRMwStyle/static/themes/AddfinV3/base/jquery.ui.progressbar.css</div></td></tr><tr><td><div>/CRMwStyle/static/themes/AddfinV3/base/jquery.ui.resizable.css</div></td></tr><tr><td><div>/CRMwStyle/static/themes/AddfinV3/base/jquery.ui.selectable.css</div></td></tr><tr><td><div>/CRMwStyle/static/themes/AddfinV3/base/jquery.ui.slider.css</div></td></tr><tr><td><div>/CRMwStyle/static/themes/AddfinV3/base/jquery.ui.tabs.css</div></td></tr><tr><td><div>/CRMwStyle/static/themes/AddfinV3/base/jquery.ui.theme.css</div></td></tr></table></div></td></tr><tr><td style="font-weight:bold;vertical-align:top;">flash</td><td style="vertical-align:top;">:</td><td><div></div></td></tr><tr><td style="font-weight:bold;vertical-align:top;">form_label_separator</td><td style="vertical-align:top;">:</td><td><div>: </div></td></tr><tr><td style="font-weight:bold;vertical-align:top;">formstyle</td><td style="vertical-align:top;">:</td><td><div>table3cols</div></td></tr><tr><td style="font-weight:bold;vertical-align:top;">generic_patterns</td><td style="vertical-align:top;">:</td><td><div><table><tr><td><div>*</div></td></tr></table></div></td></tr><tr><td style="font-weight:bold;vertical-align:top;">headers</td><td style="vertical-align:top;">:</td><td><div><table><tr><td style="font-weight:bold;vertical-align:top;">X-Powered-By</td><td style="vertical-align:top;">:</td><td><div>web2py</div></td></tr></table></div></td></tr><tr><td style="font-weight:bold;vertical-align:top;">menu</td><td style="vertical-align:top;">:</td><td><div><table><tr><td><div><table><tr><td><div>Companies</div></td></tr><tr><td><div>False</div></td></tr><tr><td><div>/CRMwStyle/default/list_companies</div></td></tr></table></div></td></tr><tr><td><div><table><tr><td><div>Contacts</div></td></tr><tr><td><div>False</div></td></tr><tr><td><div>/CRMwStyle/default/list_persons</div></td></tr></table></div></td></tr><tr><td><div><table><tr><td><div>Tasks</div></td></tr><tr><td><div>False</div></td></tr><tr><td><div>/CRMwStyle/default/list_tasks</div></td></tr></table></div></td></tr></table></div></td></tr><tr><td style="font-weight:bold;vertical-align:top;">menu_auth</td><td style="vertical-align:top;">:</td><td><div><table><tr><td><div><table><tr><td><div>Login</div></td></tr><tr><td><div>False</div></td></tr><tr><td><div>/CRMwStyle/default/user/login</div></td></tr><tr><td><div><table><tr><td><div><table><tr><td><div>Register</div></td></tr><tr><td><div>False</div></td></tr><tr><td><div>/CRMwStyle/default/user/register</div></td></tr></table></div></td></tr><tr><td><div><table><tr><td><div>Lost Password</div></td></tr><tr><td><div>False</div></td></tr><tr><td><div>/CRMwStyle/default/user/retrieve_password</div></td></tr></table></div></td></tr></table></div></td></tr></table></div></td></tr></table></div></td></tr><tr><td style="font-weight:bold;vertical-align:top;">menu_edit</td><td style="vertical-align:top;">:</td><td><div><table><tr><td><div><table><tr><td><div>Edit</div></td></tr><tr><td><div>False</div></td></tr><tr><td><div>/admin/default/design/CRMwStyle</div></td></tr><tr><td><div><table><tr><td><div><table><tr><td><div>Controller</div></td></tr><tr><td><div>False</div></td></tr><tr><td><div>/admin/default/edit/CRMwStyle/controllers/default.py</div></td></tr></table></div></td></tr><tr><td><div><table><tr><td><div>View</div></td></tr><tr><td><div>False</div></td></tr><tr><td><div>/admin/default/edit/CRMwStyle/views/default/view_vqfforms.html</div></td></tr></table></div></td></tr><tr><td><div><table><tr><td><div>Layout</div></td></tr><tr><td><div>False</div></td></tr><tr><td><div>/admin/default/edit/CRMwStyle/views/layout.html</div></td></tr></table></div></td></tr><tr><td><div><table><tr><td><div>Stylesheet</div></td></tr><tr><td><div>False</div></td></tr><tr><td><div>/admin/default/edit/CRMwStyle/static/base.css</div></td></tr></table></div></td></tr><tr><td><div><table><tr><td><div>DB Model</div></td></tr><tr><td><div>False</div></td></tr><tr><td><div>/admin/default/edit/CRMwStyle/models/db.py</div></td></tr></table></div></td></tr><tr><td><div><table><tr><td><div>Menu Model</div></td></tr><tr><td><div>False</div></td></tr><tr><td><div>/admin/default/edit/CRMwStyle/models/menu.py</div></td></tr></table></div></td></tr><tr><td><div><table><tr><td><div>Database</div></td></tr><tr><td><div>False</div></td></tr><tr><td><div>/CRMwStyle/appadmin/index</div></td></tr></table></div></td></tr></table></div></td></tr></table></div></td></tr></table></div></td></tr><tr><td style="font-weight:bold;vertical-align:top;">meta</td><td style="vertical-align:top;">:</td><td><div><table></table></div></td></tr><tr><td style="font-weight:bold;vertical-align:top;">models_to_run</td><td style="vertical-align:top;">:</td><td><div><table><tr><td><div>^\\w+\\.py$</div></td></tr><tr><td><div>^default/\\w+\\.py$</div></td></tr><tr><td><div>^default/view_vqfforms/\\w+\\.py$</div></td></tr></table></div></td></tr><tr><td style="font-weight:bold;vertical-align:top;">postprocessing</td><td style="vertical-align:top;">:</td><td><div><table></table></div></td></tr><tr><td style="font-weight:bold;vertical-align:top;">session_client</td><td style="vertical-align:top;">:</td><td><div>127.0.0.1</div></td></tr><tr><td style="font-weight:bold;vertical-align:top;">session_cookie_compression_level</td><td style="vertical-align:top;">:</td><td><div>None</div></td></tr><tr><td style="font-weight:bold;vertical-align:top;">session_cookie_expires</td><td style="vertical-align:top;">:</td><td><div>None</div></td></tr><tr><td style="font-weight:bold;vertical-align:top;">session_cookie_key</td><td style="vertical-align:top;">:</td><td><div>None</div></td></tr><tr><td style="font-weight:bold;vertical-align:top;">session_data_name</td><td style="vertical-align:top;">:</td><td><div>session_data_crmwstyle</div></td></tr><tr><td style="font-weight:bold;vertical-align:top;">session_file</td><td style="vertical-align:top;">:</td><td><div>&lt;open file &#x27;C:\\\\GITWEBPY\\\\WEBPY\\\\web2py\\\\applications\\\\CRMwStyle\\\\sessions\\\\029\\\\1f3\\\\127.0.0.1-d3f5a0dc-a6ef-49ae-a8b5-a46a2009bbef&#x27;, mode &#x27;rb+&#x27; at 0x03EB8AC8&gt;</div></td></tr><tr><td style="font-weight:bold;vertical-align:top;">session_filename</td><td style="vertical-align:top;">:</td><td><div>C:\\GITWEBPY\\WEBPY\\web2py\\applications\\CRMwStyle\\sessions\\127.0.0.1-d3f5a0dc-a6ef-49ae-a8b5-a46a2009bbef</div></td></tr><tr><td style="font-weight:bold;vertical-align:top;">session_hash</td><td style="vertical-align:top;">:</td><td><div>ae83bc65c42789300be6ff8ce0b338d3</div></td></tr><tr><td style="font-weight:bold;vertical-align:top;">session_id</td><td style="vertical-align:top;">:</td><td><div>127.0.0.1-d3f5a0dc-a6ef-49ae-a8b5-a46a2009bbef</div></td></tr><tr><td style="font-weight:bold;vertical-align:top;">session_id_name</td><td style="vertical-align:top;">:</td><td><div>session_id_crmwstyle</div></td></tr><tr><td style="font-weight:bold;vertical-align:top;">session_locked</td><td style="vertical-align:top;">:</td><td><div>True</div></td></tr><tr><td style="font-weight:bold;vertical-align:top;">session_masterapp</td><td style="vertical-align:top;">:</td><td><div>CRMwStyle</div></td></tr><tr><td style="font-weight:bold;vertical-align:top;">session_new</td><td style="vertical-align:top;">:</td><td><div>False</div></td></tr><tr><td style="font-weight:bold;vertical-align:top;">session_storage_type</td><td style="vertical-align:top;">:</td><td><div>file</div></td></tr><tr><td style="font-weight:bold;vertical-align:top;">status</td><td style="vertical-align:top;">:</td><td><div>200</div></td></tr><tr><td style="font-weight:bold;vertical-align:top;">subtitle</td><td style="vertical-align:top;">:</td><td><div>customize me!</div></td></tr><tr><td style="font-weight:bold;vertical-align:top;">title</td><td style="vertical-align:top;">:</td><td><div>CRMwStyle</div></td></tr><tr><td style="font-weight:bold;vertical-align:top;">view</td><td style="vertical-align:top;">:</td><td><div>default/view_vqfforms.html</div></td></tr></table></div>'
tRp122
sS'locals'
p123
(dp124
S'Service'
p125
S"<class 'gluon.tools.Service'>"
p126
sS'OBJECT'
p127
S"<class 'gluon.html.OBJECT'>"
p128
sS'_file'
p129
S"'/CRMwStyle/static/themes/AddfinV3/base/jquery.ui.theme.css'"
p130
sS'SQLDB'
p131
S"<class 'pydal.base.DAL'>"
p132
sg115
S"<Storage {'recent_companies': [], 'recent_persons': []}>"
p133
sS'LINK'
p134
S"<class 'gluon.html.LINK'>"
p135
sS'BR'
p136
S"<class 'gluon.html.BR'>"
p137
sS'local_import'
p138
S'<function <lambda>>'
p139
sS'OPTGROUP'
p140
S"<class 'gluon.html.OPTGROUP'>"
p141
sS'__package__'
p142
S'None'
p143
sS'PRE'
p144
S"<class 'gluon.html.PRE'>"
p145
sS'IS_INT_IN_RANGE'
p146
S"<class 'gluon.validators.IS_INT_IN_RANGE'>"
p147
sS'IS_LOWER'
p148
S"<class 'gluon.validators.IS_LOWER'>"
p149
sS'IS_STRONG'
p150
S"<class 'gluon.validators.IS_STRONG'>"
p151
sS'Recaptcha'
p152
S"<class 'gluon.tools.Recaptcha'>"
p153
sS'cache'
p154
S'<gluon.cache.Cache object>'
p155
sS'IS_IN_DB'
p156
S"<class 'gluon.validators.IS_IN_DB'>"
p157
sS'TAG'
p158
S'<gluon.html.__TAG__ object>'
p159
sS'_k'
p160
S'22'
p161
sS'SQLField'
p162
S"<class 'pydal.objects.Field'>"
p163
sS'BODY'
p164
S"<class 'gluon.html.BODY'>"
p165
sS'IS_DATE_IN_RANGE'
p166
S"<class 'gluon.validators.IS_DATE_IN_RANGE'>"
p167
sS'IFRAME'
p168
S"<class 'gluon.html.IFRAME'>"
p169
sS'URL'
p170
S'<function URL>'
p171
sS'__file__'
p172
S"r'C:\\GITWEBPY\\WEBPY\\web2py\\applications\\CRMwStyle\\views\\default/view_vqfforms.html'"
p173
sS'db'
p174
S'<DAL uri="sqlite://storage.sqlite">'
p175
sS'auth'
p176
S'<gluon.tools.Auth object>'
p177
sS'P'
S"<class 'gluon.html.P'>"
p178
sS'TFOOT'
p179
S"<class 'gluon.html.TFOOT'>"
p180
sS'XHTML'
p181
S"<class 'gluon.html.XHTML'>"
p182
sS'ON'
p183
S'True'
p184
sS'OL'
p185
S"<class 'gluon.html.OL'>"
p186
sS'TEXTAREA'
p187
S"<class 'gluon.html.TEXTAREA'>"
p188
sS'MENU'
p189
S"<class 'gluon.html.MENU'>"
p190
sS'button'
p191
S'<function button>'
p192
sS'IS_IMAGE'
p193
S"<class 'gluon.validators.IS_IMAGE'>"
p194
sS'reverse_geocode'
p195
S'<function reverse_geocode>'
p196
sS'EM'
p197
S"<class 'gluon.html.EM'>"
p198
sS'CODE'
p199
S"<class 'gluon.html.CODE'>"
p200
sS'HTTP'
p201
S"<class 'gluon.http.HTTP'>"
p202
sS'HR'
p203
S"<class 'gluon.html.HR'>"
p204
sS'IS_DATETIME'
p205
S"<class 'gluon.validators.IS_DATETIME'>"
p206
sS'STYLE'
p207
S"<class 'gluon.html.STYLE'>"
p208
sS'LABEL'
p209
S"<class 'gluon.html.LABEL'>"
p210
sS'CLEANUP'
p211
S"<class 'gluon.validators.CLEANUP'>"
p212
sS'SELECT'
p213
S"<class 'gluon.html.SELECT'>"
p214
sS'CENTER'
p215
S"<class 'gluon.html.CENTER'>"
p216
sS'prettydate'
p217
S'<function prettydate>'
p218
sS'Crud'
p219
S"<class 'gluon.tools.Crud'>"
p220
sS'Auth'
p221
S"<class 'gluon.tools.Auth'>"
p222
sS'__builtins__'
p223
S"{'ArithmeticError': <type 'exceptions.ArithmeticError'>, 'AssertionError': <type 'exceptions.AssertionError'>, 'AttributeError': <type 'exceptions.AttributeError'>, 'BaseException': <type 'exceptions.BaseException'>, 'BufferError': <type 'exceptions.BufferError'>, 'BytesWarning': <type 'exceptions.BytesWarning'>, 'DeprecationWarning': <type 'exceptions.DeprecationWarning'>, 'EOFError': <type 'exceptions.EOFError'>, 'Ellipsis': Ellipsis, 'EnvironmentError': <type 'exceptions.EnvironmentError'>, ...}"
p224
sS'HTML'
p225
S"<class 'gluon.html.HTML'>"
p226
sS'SQLFORM'
p227
S"<class 'gluon.sqlhtml.SQLFORM'>"
p228
sS'LOAD'
p229
S'<function LOAD>'
p230
sS'redirect'
p231
S'<function redirect>'
p232
sS'FIELDSET'
p233
S"<class 'gluon.html.FIELDSET'>"
p234
sS'IS_EQUAL_TO'
p235
S"<class 'gluon.validators.IS_EQUAL_TO'>"
p236
sS'embed64'
p237
S'<function embed64>'
p238
sS'link_person'
p239
S'<function link_person>'
p240
sS'IS_LIST_OF'
p241
S"<class 'gluon.validators.IS_LIST_OF'>"
p242
sS'INPUT'
p243
S"<class 'gluon.html.INPUT'>"
p244
sS'EMBED'
p245
S"<class 'gluon.html.EMBED'>"
p246
sS'H2'
p247
S"<class 'gluon.html.H2'>"
p248
sS'H3'
p249
S"<class 'gluon.html.H3'>"
p250
sS'BUTTON'
p251
S"<class 'gluon.html.BUTTON'>"
p252
sS'H1'
p253
S"<class 'gluon.html.H1'>"
p254
sS'H6'
p255
S"<class 'gluon.html.H6'>"
p256
sS'H4'
p257
S"<class 'gluon.html.H4'>"
p258
sS'H5'
p259
S"<class 'gluon.html.H5'>"
p260
sS'UL'
p261
S"<class 'gluon.html.UL'>"
p262
sS'IS_UPPER'
p263
S"<class 'gluon.validators.IS_UPPER'>"
p264
sS'xmlescape'
p265
S'<function xmlescape>'
p266
sS'IS_TIME'
p267
S"<class 'gluon.validators.IS_TIME'>"
p268
sS'OPTION'
p269
S"<class 'gluon.html.OPTION'>"
p270
sS'TITLE'
p271
S"<class 'gluon.html.TITLE'>"
p272
sS'CRYPT'
p273
S"<class 'gluon.validators.CRYPT'>"
p274
sS'IS_EMPTY_OR'
p275
S"<class 'gluon.validators.IS_EMPTY_OR'>"
p276
sS'MARKMIN'
p277
S"<class 'gluon.html.MARKMIN'>"
p278
sS'Recaptcha2'
p279
S"<class 'gluon.tools.Recaptcha2'>"
p280
sS'__name__'
p281
S"'__restricted__'"
p282
sS'STRONG'
p283
S"<class 'gluon.html.STRONG'>"
p284
sS'COL'
p285
S"<class 'gluon.html.COL'>"
p286
sS'service'
p287
S'<gluon.tools.Service object>'
p288
sS'SCRIPT'
p289
S"<class 'gluon.html.SCRIPT'>"
p290
sS'is_phone'
p291
S'<gluon.validators.IS_MATCH object>'
p292
sS'geocode'
p293
S'<function geocode>'
p294
sS'TABLE'
p295
S"<class 'gluon.html.TABLE'>"
p296
sS'IS_IPV4'
p297
S"<class 'gluon.validators.IS_IPV4'>"
p298
sS'IS_LENGTH'
p299
S"<class 'gluon.validators.IS_LENGTH'>"
p300
sS'IS_IPV6'
p301
S"<class 'gluon.validators.IS_IPV6'>"
p302
sS'XML'
p303
S"<class 'gluon.html.XML'>"
p304
sS'Wiki'
p305
S"<class 'gluon.tools.Wiki'>"
p306
sS'B'
S"<class 'gluon.html.B'>"
p307
sS'IMG'
p308
S"<class 'gluon.html.IMG'>"
p309
sS'SQLTABLE'
p310
S"<class 'gluon.sqlhtml.SQLTABLE'>"
p311
sS'IS_MATCH'
p312
S"<class 'gluon.validators.IS_MATCH'>"
p313
sS'IS_ALPHANUMERIC'
p314
S"<class 'gluon.validators.IS_ALPHANUMERIC'>"
p315
sS'me'
p316
S'None'
p317
sS'SPAN'
p318
S"<class 'gluon.html.SPAN'>"
p319
sS'IS_JSON'
p320
S"<class 'gluon.validators.IS_JSON'>"
p321
sS'IS_IPADDRESS'
p322
S"<class 'gluon.validators.IS_IPADDRESS'>"
p323
sS'IS_SLUG'
p324
S"<class 'gluon.validators.IS_SLUG'>"
p325
sS'BEAUTIFY'
p326
S"<class 'gluon.html.BEAUTIFY'>"
p327
sS'META'
p328
S"<class 'gluon.html.META'>"
p329
sS'fetch'
p330
S'<function fetch>'
p331
sS'link_company'
p332
S'<function link_company>'
p333
sS'IS_DATE'
p334
S"<class 'gluon.validators.IS_DATE'>"
p335
sS'IS_EMAIL'
p336
S"<class 'gluon.validators.IS_EMAIL'>"
p337
sS'IS_NOT_EMPTY'
p338
S"<class 'gluon.validators.IS_NOT_EMPTY'>"
p339
sS'IS_FLOAT_IN_RANGE'
p340
S"<class 'gluon.validators.IS_FLOAT_IN_RANGE'>"
p341
sS'TBODY'
p342
S"<class 'gluon.html.TBODY'>"
p343
sS'CAT'
p344
S"<class 'gluon.html.CAT'>"
p345
sS'Field'
p346
S"<class 'pydal.objects.Field'>"
p347
sS'tag'
p348
S'<function tag>'
p349
sS'IS_LIST_OF_EMAILS'
p350
S"<class 'gluon.validators.IS_LIST_OF_EMAILS'>"
p351
sS'Mail'
p352
S"<class 'gluon.tools.Mail'>"
p353
sS'DIV'
p354
S"<class 'gluon.html.DIV'>"
p355
sS'LEGEND'
p356
S"<class 'gluon.html.LEGEND'>"
p357
sS'COLGROUP'
p358
S"<class 'gluon.html.COLGROUP'>"
p359
sS'DAL'
p360
S"<class 'pydal.base.DAL'>"
p361
sS'ASSIGNJS'
p362
S'<function ASSIGNJS>'
p363
sS'TR'
p364
S"<class 'gluon.html.TR'>"
p365
sS'LI'
p366
S"<class 'gluon.html.LI'>"
p367
sS'TH'
p368
S"<class 'gluon.html.TH'>"
p369
sS'TD'
p370
S"<class 'gluon.html.TD'>"
p371
sS'PluginManager'
p372
S"<class 'gluon.tools.PluginManager'>"
p373
sS'IS_URL'
p374
S"<class 'gluon.validators.IS_URL'>"
p375
sS'A'
S"<class 'gluon.html.A'>"
p376
sS'HEAD'
p377
S"<class 'gluon.html.HEAD'>"
p378
sS'IS_DATETIME_IN_RANGE'
p379
S"<class 'gluon.validators.IS_DATETIME_IN_RANGE'>"
p380
sS'FORM'
p381
S"<class 'gluon.html.FORM'>"
p382
sS'I'
S"<class 'gluon.html.I'>"
p383
sS'crud'
p384
S'<gluon.tools.Crud object>'
p385
sS'tag_cloud'
p386
S'<function tag_cloud>'
p387
sS'IS_NOT_IN_DB'
p388
S"<class 'gluon.validators.IS_NOT_IN_DB'>"
p389
sg121
S"<Storage {'body': <cStringIO.StringO object at 0...03C170B0>, 'view': 'default/view_vqfforms.html'}>"
p390
sS'THEAD'
p391
S"<class 'gluon.html.THEAD'>"
p392
sS'ANY_OF'
p393
S"<class 'gluon.validators.ANY_OF'>"
p394
sS'IS_NULL_OR'
p395
S"<class 'gluon.validators.IS_EMPTY_OR'>"
p396
sS'TASK_TYPES'
p397
S"('Phone', 'Fax', 'Mail', 'Meet')"
p398
sS'url'
p399
S'<function url>'
p400
sg56
S"<Storage {'_vars': None, 'function': 'view_vqffo...EBPY\\\\WEBPY\\\\web2py\\\\applications\\\\CRMwStyle\\\\'}>"
p401
sS'IS_EXPR'
p402
S"<class 'gluon.validators.IS_EXPR'>"
p403
sS'T'
S'<gluon.languages.translator object>'
p404
sS'IS_IN_SET'
p405
S"<class 'gluon.validators.IS_IN_SET'>"
p406
sS'IS_UPLOAD_FILENAME'
p407
S"<class 'gluon.validators.IS_UPLOAD_FILENAME'>"
p408
sS'TT'
p409
S"<class 'gluon.html.TT'>"
p410
sS'IS_DECIMAL_IN_RANGE'
p411
S"<class 'gluon.validators.IS_DECIMAL_IN_RANGE'>"
p412
sssS'traceback'
p413
S'Traceback (most recent call last):\n  File "C:\\GITWEBPY\\WEBPY\\web2py\\gluon\\restricted.py", line 227, in restricted\n    exec ccode in environment\n  File "C:\\GITWEBPY\\WEBPY\\web2py\\applications\\CRMwStyle\\views\\default/view_vqfforms.html", line 82, in <module>\nNameError: name \'person\' is not defined\n'
p414
s.